LX51 LINKER/LOCATER V4.66.97.0                                                          11/15/2024  17:07:44  PAGE 1


LX51 LINKER/LOCATER V4.66.97.0, INVOKED BY:
C:\KEIL_V5\C51\BIN\LX51.EXE .\Objects\STARTUP_CMS8S6990.obj, .\Objects\main.obj, .\Objects\gpio.obj, .\Objects\ADCCfg.ob
>> j, .\Objects\delay.obj, .\Objects\NTC.obj, .\Objects\SideKey.obj, .\Objects\LEDMgmt.obj, .\Objects\PWM.obj, .\Objects
>> \OutputChannel.obj, .\Objects\Watchdog.obj, .\Objects\Flash.obj, .\Objects\TailKey.obj, .\Objects\BattVoltDisplay.obj
>> , .\Objects\TempControl.obj, .\Objects\Sleep.obj, .\Objects\ModeControl.obj, .\Objects\RampConfig.obj, .\Objects\Self
>> Test.obj, .\Objects\TailMemory.obj TO .\Objects\XRLite PRINT (.\Listings\XRLite.map)


CPU MODE:     8051 MODE
MEMORY MODEL: SMALL WITH FLOATING POINT ARITHMETIC


INPUT MODULES INCLUDED:
  .\Objects\STARTUP_CMS8S6990.obj (?C_STARTUP)
         COMMENT TYPE 0: AX51 V3.15.3.0
  .\Objects\main.obj (MAIN)
         COMMENT TYPE 0: C51 V9.60.0.0
  .\Objects\gpio.obj (GPIO)
         COMMENT TYPE 0: C51 V9.60.0.0
  .\Objects\ADCCfg.obj (ADCCFG)
         COMMENT TYPE 0: C51 V9.60.0.0
  .\Objects\delay.obj (DELAY)
         COMMENT TYPE 0: C51 V9.60.0.0
  .\Objects\NTC.obj (NTC)
         COMMENT TYPE 0: C51 V9.60.0.0
  .\Objects\SideKey.obj (SIDEKEY)
         COMMENT TYPE 0: C51 V9.60.0.0
  .\Objects\LEDMgmt.obj (LEDMGMT)
         COMMENT TYPE 0: C51 V9.60.0.0
  .\Objects\PWM.obj (PWM)
         COMMENT TYPE 0: C51 V9.60.0.0
  .\Objects\OutputChannel.obj (OUTPUTCHANNEL)
         COMMENT TYPE 0: C51 V9.60.0.0
  .\Objects\Watchdog.obj (WATCHDOG)
         COMMENT TYPE 0: C51 V9.60.0.0
  .\Objects\Flash.obj (FLASH)
         COMMENT TYPE 0: C51 V9.60.0.0
  .\Objects\TailKey.obj (TAILKEY)
         COMMENT TYPE 0: C51 V9.60.0.0
  .\Objects\BattVoltDisplay.obj (BATTVOLTDISPLAY)
         COMMENT TYPE 0: C51 V9.60.0.0
  .\Objects\TempControl.obj (TEMPCONTROL)
         COMMENT TYPE 0: C51 V9.60.0.0
  .\Objects\Sleep.obj (SLEEP)
         COMMENT TYPE 0: C51 V9.60.0.0
  .\Objects\ModeControl.obj (MODECONTROL)
         COMMENT TYPE 0: C51 V9.60.0.0
  .\Objects\RampConfig.obj (RAMPCONFIG)
         COMMENT TYPE 0: C51 V9.60.0.0
  .\Objects\SelfTest.obj (SELFTEST)
         COMMENT TYPE 0: C51 V9.60.0.0
  .\Objects\TailMemory.obj (TAILMEMORY)
         COMMENT TYPE 0: C51 V9.60.0.0
  C:\KEIL_V5\C51\LIB\C51FPS.LIB (?C?FPADD)
         COMMENT TYPE 1: A51 / ASM51 Assembler
  C:\KEIL_V5\C51\LIB\C51FPS.LIB (?C?FPMUL)
         COMMENT TYPE 1: A51 / ASM51 Assembler
  C:\KEIL_V5\C51\LIB\C51FPS.LIB (?C?FPDIV)
         COMMENT TYPE 1: A51 / ASM51 Assembler
  C:\KEIL_V5\C51\LIB\C51FPS.LIB (?C?FPCMP)
         COMMENT TYPE 1: A51 / ASM51 Assembler
  C:\KEIL_V5\C51\LIB\C51FPS.LIB (?C?FCAST)
         COMMENT TYPE 1: A51 / ASM51 Assembler
  C:\KEIL_V5\C51\LIB\C51FPS.LIB (?C?CASTF)
         COMMENT TYPE 1: A51 / ASM51 Assembler
  C:\KEIL_V5\C51\LIB\C51FPS.LIB (?C?FPGETOPN)
LX51 LINKER/LOCATER V4.66.97.0                                                        11/15/2024  17:07:44  PAGE 2


         COMMENT TYPE 1: A51 / ASM51 Assembler
  C:\KEIL_V5\C51\LIB\C51S.LIB (?C_INIT)
         COMMENT TYPE 1: A51 / ASM51 Assembler
  C:\KEIL_V5\C51\LIB\C51S.LIB (?C?COPY)
         COMMENT TYPE 1: A51 / ASM51 Assembler
  C:\KEIL_V5\C51\LIB\C51S.LIB (?C?SCDIV)
         COMMENT TYPE 1: A51 / ASM51 Assembler
  C:\KEIL_V5\C51\LIB\C51S.LIB (?C?CLDPTR)
         COMMENT TYPE 1: A51 / ASM51 Assembler
  C:\KEIL_V5\C51\LIB\C51S.LIB (?C?CLDOPTR)
         COMMENT TYPE 1: A51 / ASM51 Assembler
  C:\KEIL_V5\C51\LIB\C51S.LIB (?C?CSTPTR)
         COMMENT TYPE 1: A51 / ASM51 Assembler
  C:\KEIL_V5\C51\LIB\C51S.LIB (?C?IMUL)
         COMMENT TYPE 1: A51 / ASM51 Assembler
  C:\KEIL_V5\C51\LIB\C51S.LIB (?C?SIDIV)
         COMMENT TYPE 1: A51 / ASM51 Assembler
  C:\KEIL_V5\C51\LIB\C51S.LIB (?C?ILDOPTR)
         COMMENT TYPE 1: A51 / ASM51 Assembler
  C:\KEIL_V5\C51\LIB\C51S.LIB (?C?ISTPTR)
         COMMENT TYPE 1: A51 / ASM51 Assembler
  C:\KEIL_V5\C51\LIB\C51S.LIB (?C?LMUL)
         COMMENT TYPE 1: A51 / ASM51 Assembler
  C:\KEIL_V5\C51\LIB\C51S.LIB (?C?ULDIV)
         COMMENT TYPE 1: A51 / ASM51 Assembler
  C:\KEIL_V5\C51\LIB\C51S.LIB (?C?SLDIV)
         COMMENT TYPE 1: A51 / ASM51 Assembler
  C:\KEIL_V5\C51\LIB\C51S.LIB (?C?LNEG)
         COMMENT TYPE 1: A51 / ASM51 Assembler
  C:\KEIL_V5\C51\LIB\C51S.LIB (?C?SLCMP)
         COMMENT TYPE 1: A51 / ASM51 Assembler
  C:\KEIL_V5\C51\LIB\C51S.LIB (?C?ULCMP)
         COMMENT TYPE 1: A51 / ASM51 Assembler
  C:\KEIL_V5\C51\LIB\C51S.LIB (?C?ULSHR)
         COMMENT TYPE 1: A51 / ASM51 Assembler
  C:\KEIL_V5\C51\LIB\C51S.LIB (?C?LLDCODE)
         COMMENT TYPE 1: A51 / ASM51 Assembler
  C:\KEIL_V5\C51\LIB\C51S.LIB (?C?LSTXDATA)
         COMMENT TYPE 1: A51 / ASM51 Assembler
  C:\KEIL_V5\C51\LIB\C51S.LIB (?C?LSTKXDATA)
         COMMENT TYPE 1: A51 / ASM51 Assembler
  C:\KEIL_V5\C51\LIB\C51S.LIB (?C?OFFXADD)
         COMMENT TYPE 1: A51 / ASM51 Assembler
  C:\KEIL_V5\C51\LIB\C51S.LIB (?C?UIDIV)
         COMMENT TYPE 1: A51 / ASM51 Assembler


ACTIVE MEMORY CLASSES OF MODULE:  .\Objects\XRLite (?C_STARTUP)

BASE        START       END         USED      MEMORY CLASS
==========================================================
C:000000H   C:000000H   C:00FFFFH   003D3BH   CODE
I:000000H   I:000000H   I:0000FFH   000001H   IDATA
I:000000H   I:000000H   I:00007FH   00005FH   DATA
I:000020H.0 I:000020H.0 I:00002FH.7 000003H.0 BIT
C:000000H   C:000000H   C:00FFFFH   00026CH   CONST
X:000000H   X:000000H   X:00FFFFH   000063H   XDATA


MEMORY MAP OF MODULE:  .\Objects\XRLite (?C_STARTUP)


START     STOP      LENGTH    ALIGN  RELOC    MEMORY CLASS   SEGMENT NAME
=========================================================================

LX51 LINKER/LOCATER V4.66.97.0                                                        11/15/2024  17:07:44  PAGE 3


* * * * * * * * * * *   D A T A   M E M O R Y   * * * * * * * * * * * * *
000000H   000007H   000008H   ---    AT..     DATA           "REG BANK 0"
000008H   00001AH   000013H   BYTE   UNIT     DATA           ?DT?ADCCFG
00001BH   00001EH   000004H   BYTE   UNIT     DATA           ?DT?TEMPCONTROL
00001FH   00001FH   000001H   BYTE   UNIT     DATA           ?DT?DELAY
000020H.0 000020H.6 000000H.7 BIT    UNIT     BIT            ?BI?MODECONTROL
000020H.7 000021H.2 000000H.4 BIT    UNIT     BIT            _BIT_GROUP_
000021H.3 000021H.5 000000H.3 BIT    UNIT     BIT            ?BI?DELAY
000021H.6 000022H.0 000000H.3 BIT    UNIT     BIT            ?BI?PWM
000022H.1 000022H.3 000000H.3 BIT    UNIT     BIT            ?BI?TEMPCONTROL
000022H.4 000022H.5 000000H.2 BIT    UNIT     BIT            ?BI?BATTVOLTDISPLAY
000022H.6 000022H.6 000000H.1 BIT    UNIT     BIT            ?BI?SIDEKEY
000022H.7 000022H.7 000000H.1 BIT    UNIT     BIT            ?BI?SLEEP
000023H   000048H   000026H   BYTE   UNIT     DATA           _DATA_GROUP_
000049H   000053H   00000BH   BYTE   UNIT     DATA           ?DT?MODECONTROL
000054H   00005CH   000009H   BYTE   UNIT     DATA           ?DT?SIDEKEY
00005DH   00005EH   000002H   BYTE   UNIT     DATA           ?DT?LEDMGMT
00005FH   00005FH   000001H   BYTE   UNIT     DATA           ?DT?WDOG_INIT?WATCHDOG
000060H   000060H   000001H   BYTE   UNIT     DATA           ?DT?GETIFWDOGCAUSERST?WATCHDOG
000061H   000061H   000001H   BYTE   UNIT     DATA           ?DT?TAILKEY
000062H   000062H   000001H   BYTE   UNIT     IDATA          ?STACK

* * * * * * * * * * *   C O D E   M E M O R Y   * * * * * * * * * * * * *
000000H   000002H   000003H   ---    OFFS..   CODE           ?CO?STARTUP_CMS8S6990?3
000003H   00000AH   000008H   BYTE   UNIT     CODE           ?PR?SIDEKEY
00000BH   00000DH   000003H   BYTE   OFFS..   CODE           ?DELAY?0000B
00000EH   000029H   00001CH   BYTE   UNIT     CODE           ?PR?WDOG_INIT?WATCHDOG
00002AH   00002AH   000001H   ---    ---      **GAP**
00002BH   00002DH   000003H   BYTE   OFFS..   CODE           ?DELAY?0002B
00002EH   000046H   000019H   BYTE   UNIT     CODE           ?PR?GETIFWDOGCAUSERST?WATCHDOG
000047H   000049H   000003H   BYTE   UNIT     CODE           ?PR?SYSTEMTELEMHANDLER?ADCCFG
00004AH   00004AH   000001H   ---    ---      **GAP**
00004BH   00004DH   000003H   BYTE   OFFS..   CODE           ?MAIN?0004B
00004EH   000070H   000023H   BYTE   UNIT     CODE           ?PR?CHECKIFHBTIMISREADY?DELAY
000071H   000072H   000002H   ---    ---      **GAP**
000073H   000075H   000003H   BYTE   OFFS..   CODE           ?TAILKEY?00073
000076H   00086DH   0007F8H   BYTE   UNIT     CODE           ?C?LIB_CODE
00086EH   000C7BH   00040EH   BYTE   UNIT     CODE           ?PR?MODESWITCHFSM?MODECONTROL
000C7CH   000F48H   0002CDH   BYTE   UNIT     CODE           ?PR?_GPIO_CONFIGGPIOMODE?GPIO
000F49H   0011C9H   000281H   BYTE   UNIT     CODE           ?PR?BATTERYTELEMHANDLER?BATTVOLTDISPLAY
0011CAH   0013EEH   000225H   BYTE   UNIT     CODE           ?PR?OUTPUTCHANNEL_TESTRUN?OUTPUTCHANNEL
0013EFH   0015DFH   0001F1H   BYTE   UNIT     CODE           ?PR?BATVSHOWFSM?BATTVOLTDISPLAY
0015E0H   001774H   000195H   BYTE   UNIT     CODE           ?PR?THERMALCALCPROCESS?TEMPCONTROL
001775H   0018F2H   00017EH   BYTE   UNIT     CODE           ?PR?_ADC_WRITEOUTPUTBUF?ADCCFG
0018F3H   001A19H   000127H   BYTE   UNIT     CODE           ?PR?_RAMPADJHANDLER?MODECONTROL
001A1AH   001B36H   00011DH   BYTE   UNIT     CODE           ?PR?BATTVOLTDISPLAY
001B37H   001C4AH   000114H   BYTE   UNIT     CODE           ?PR?_THERMALILIMCALC?TEMPCONTROL
001C4BH   001D52H   000108H   BYTE   UNIT     CODE           ?PR?RAMPLOWVOLTHANDLER?MODECONTROL
001D53H   001E59H   000107H   BYTE   UNIT     CODE           ?PR?ADCENGINEHANDLER?ADCCFG
001E5AH   001F5BH   000102H   BYTE   UNIT     CODE           ?PR?LEDCONTROLHANDLER?LEDMGMT
001F5CH   00204AH   0000EFH   BYTE   UNIT     CODE           ?PR?OUTPUTCHANNEL_CALC?OUTPUTCHANNEL
00204BH   002135H   0000EBH   BYTE   UNIT     CODE           ?PR?_PEC8CHECK?RAMPCONFIG
002136H   00221BH   0000E6H   BYTE   UNIT     CODE           ?PR?DISPLAYVBATTATSTART?BATTVOLTDISPLAY
00221CH   0022FDH   0000E2H   BYTE   UNIT     CODE           ?PR?MODECONTROL
0022FEH   0023DCH   0000DFH   BYTE   UNIT     CODE           ?PR?_CALCNTCTEMP?NTC
0023DDH   00249CH   0000C0H   BYTE   UNIT     CODE           ?PR?OUTPUTFAULTDETECT?SELFTEST
00249DH   002555H   0000B9H   BYTE   UNIT     CODE           ?PR?SOSFSM?MODECONTROL
002556H   00260DH   0000B8H   BYTE   UNIT     CODE           ?PR?_GPIO_WRITEBIT?GPIO
00260EH   0026C3H   0000B6H   BYTE   UNIT     CODE           ?PR?_DELAY_MS?DELAY
0026C4H   002777H   0000B4H   BYTE   UNIT     CODE           ?PR?PWM_OUTPUTCTRLHANDLER?PWM
002778H   002820H   0000A9H   BYTE   UNIT     CODE           ?PR?_ADC_READBACKRESULT?ADCCFG
002821H   0028C8H   0000A8H   BYTE   UNIT     CODE           ?PR?_DUTY_CALC?OUTPUTCHANNEL
0028C9H   00296DH   0000A5H   BYTE   UNIT     CODE           ?PR?GPIO
00296EH   002A11H   0000A4H   BYTE   UNIT     CODE           ?PR?SIDEKEY_LOGICHANDLER?SIDEKEY
002A12H   002AAFH   00009EH   BYTE   UNIT     CODE           ?PR?ADC_INIT?ADCCFG
LX51 LINKER/LOCATER V4.66.97.0                                                        11/15/2024  17:07:44  PAGE 4


002AB0H   002B4AH   00009BH   BYTE   UNIT     CODE           ?PR?_TAILMEMORY_SAVE?TAILMEMORY
002B4BH   002BE4H   00009AH   BYTE   UNIT     CODE           ?C_C51STARTUP
002BE5H   002C7BH   000097H   BYTE   UNIT     CODE           ?PR?_GPIO_GETEXTINTMODE?GPIO
002C7CH   002D0EH   000093H   BYTE   UNIT     CODE           ?PR?ADC_DEINIT?ADCCFG
002D0FH   002D9FH   000091H   BYTE   UNIT     CODE           ?PR?SLEEPMGMT?SLEEP
002DA0H   002E26H   000087H   BYTE   UNIT     CODE           ?PR?PWM_INIT?PWM
002E27H   002EABH   000085H   BYTE   UNIT     CODE           ?PR?MAIN?MAIN
002EACH   002F2FH   000084H   BYTE   UNIT     CODE           ?PR?OUTPUTCHANNEL
002F30H   002FB0H   000081H   BYTE   UNIT     CODE           ?PR?MODEFSMTIMHANDLER?MODECONTROL
002FB1H   00302FH   00007FH   BYTE   UNIT     CODE           ?PR?SAVERAMPCONFIG?RAMPCONFIG
003030H   0030A8H   000079H   BYTE   UNIT     CODE           ?PR?DISPLAYERRORIDHANDLER?SELFTEST
0030A9H   00311CH   000074H   BYTE   UNIT     CODE           ?PR?HOLDSWITCHGEARCMDHANDLER?MODECONTROL
00311DH   00318EH   000072H   BYTE   UNIT     CODE           ?PR?_GPIO_SETMUXMODE?GPIO
00318FH   0031F9H   00006BH   BYTE   UNIT     CODE           ?PR?_SWITCHTOGEAR?MODECONTROL
0031FAH   003260H   000067H   BYTE   UNIT     CODE           ?PR?SIDEKEY_INT_CALLBACK?SIDEKEY
003261H   0032C6H   000066H   BYTE   UNIT     CODE           ?C_INITSEG
0032C7H   00332CH   000066H   BYTE   UNIT     CODE           ?PR?READRAMPCONFIG?RAMPCONFIG
00332DH   003391H   000065H   BYTE   UNIT     CODE           ?PR?_BATTERYLOWALERTPROCESS?MODECONTROL
003392H   0033F0H   00005FH   BYTE   UNIT     CODE           ?PR?TAILMEMORY_RECALL?TAILMEMORY
0033F1H   00344EH   00005EH   BYTE   UNIT     CODE           ?PR?ADCCFG
00344FH   0034ACH   00005EH   BYTE   UNIT     CODE           ?PR?MODEFSMINIT?MODECONTROL
0034ADH   003507H   00005BH   BYTE   UNIT     CODE           ?PR?_GPIO_SETEXTINTMODE?GPIO
003508H   003556H   00004FH   BYTE   UNIT     CODE           ?PR?_ADC_SUBMITMISSON?ADCCFG
003557H   0035A1H   00004BH   BYTE   UNIT     CODE           ?PR?TIMER2_IRQHANDLER?DELAY
0035A2H   0035EBH   00004AH   BYTE   UNIT     CODE           ?PR?SIDEKEYINIT?SIDEKEY
0035ECH   00362FH   000044H   BYTE   UNIT     CODE           ?C?LDIV
003630H   003671H   000042H   BYTE   UNIT     CODE           ?PR?DISPLAYERRORTIMHANDLER?SELFTEST
003672H   0036B2H   000041H   BYTE   UNIT     CODE           ?PR?MOONCONFIGHANDLER?MODECONTROL
0036B3H   0036F3H   000041H   BYTE   UNIT     CODE           ?PR?RAMPCONFIG
0036F4H   003732H   00003FH   BYTE   UNIT     CODE           ?PR?_DELAY_US?DELAY
003733H   003770H   00003EH   BYTE   UNIT     CODE           ?PR?KEY_IRQHANDLER?MAIN
003771H   0037ACH   00003CH   BYTE   UNIT     CODE           ?PR?BATTDISPLAYTIM?BATTVOLTDISPLAY
0037ADH   0037E7H   00003BH   BYTE   UNIT     CODE           ?PR?TAILKEYCOUNTER?TAILKEY
0037E8H   003821H   00003AH   BYTE   UNIT     CODE           ?PR?OUTPUTCHANNEL_INIT?OUTPUTCHANNEL
003822H   003857H   000036H   BYTE   UNIT     CODE           ?PR?_ENTERTURBOSTROBE?MODECONTROL
003858H   00388BH   000034H   BYTE   UNIT     CODE           ?PR?OBTAINMOONCURRENT?MODECONTROL
00388CH   0038BDH   000032H   BYTE   UNIT     CODE           ?PR?SIDEKEY_TIM_CALLBACK?SIDEKEY
0038BEH   0038ECH   00002FH   BYTE   UNIT     CODE           ?PR?_FLASH_OPERATION?FLASH
0038EDH   003919H   00002DH   BYTE   UNIT     CODE           ?PR?TAILKEY_INIT?TAILKEY
00391AH   003945H   00002CH   BYTE   UNIT     CODE           ?PR?_GPIO_CHECKIFINTENABLED?GPIO
003946H   003971H   00002CH   BYTE   UNIT     CODE           ?PR?TAILKEY_HANDLER?TAILKEY
003972H   00399DH   00002CH   BYTE   UNIT     CODE           ?PR?SYSTEMPERIPHERALCTRL?SLEEP
00399EH   0039C9H   00002CH   BYTE   UNIT     CODE           ?PR?RESTORETOMINIMUMRAMPCURRENT?RAMPCONFIG
0039CAH   0039F4H   00002BH   BYTE   UNIT     CODE           ?PR?TEMPCONTROL
0039F5H   003A1EH   00002AH   BYTE   UNIT     CODE           ?PR?PWM_FORCESETDUTY?PWM
003A1FH   003A47H   000029H   BYTE   UNIT     CODE           ?PR?_MAKEFASTSTROBE?LEDMGMT
003A48H   003A6FH   000028H   BYTE   UNIT     CODE           ?PR?LED_INIT?LEDMGMT
003A70H   003A97H   000028H   BYTE   UNIT     CODE           ?PR?_SIDEKEYSWITCHGEARHANDLER?MODECONTROL
003A98H   003ABEH   000027H   BYTE   UNIT     CODE           ?PR?SETSYSTEMHBTIMER?DELAY
003ABFH   003AE5H   000027H   BYTE   UNIT     CODE           ?PR?ACMP_IRQHANDLER?TAILKEY
003AE6H   003B0CH   000027H   BYTE   UNIT     CODE           ?PR?SELFTEST
003B0DH   003B2EH   000022H   BYTE   UNIT     CODE           ?PR?_GPIO_DISABLEINT?GPIO
003B2FH   003B50H   000022H   BYTE   UNIT     CODE           ?PR?NTC
003B51H   003B71H   000021H   BYTE   UNIT     CODE           ?PR?CHECKNTCSTATUS?TEMPCONTROL
003B72H   003B91H   000020H   BYTE   UNIT     CODE           ?PR?MARKASKEYPRESSED?SIDEKEY
003B92H   003BB0H   00001FH   BYTE   UNIT     CODE           ?PR?GETSIDEKEYSHORTPRESSCOUNT?SIDEKEY
003BB1H   003BCFH   00001FH   BYTE   UNIT     CODE           ?PR?PWM_DEINIT?PWM
003BD0H   003BEDH   00001EH   BYTE   UNIT     CODE           ?PR?_GPIO_ENABLEINT?GPIO
003BEEH   003C0BH   00001EH   BYTE   UNIT     CODE           ?PR?RETURNTOOFFSTATE?MODECONTROL
003C0CH   003C24H   000019H   BYTE   UNIT     CODE           ?PR?TAILMEMORY
003C25H   003C3CH   000018H   BYTE   UNIT     CODE           ?PR?_CLICKANDHOLDEVENTHANDLER?SIDEKEY
003C3DH   003C52H   000016H   BYTE   UNIT     CODE           ?PR?_SIDEKEY1HREVGEARHANDLER?MODECONTROL
003C53H   003C67H   000015H   BYTE   UNIT     CODE           ?PR?ADC_SETVREF?ADCCFG
003C68H   003C7CH   000015H   BYTE   UNIT     CODE           ?PR?DELAY_INIT?DELAY
003C7DH   003C8FH   000013H   BYTE   UNIT     CODE           ?PR?ISKEYEVENTOCCURRED?SIDEKEY
LX51 LINKER/LOCATER V4.66.97.0                                                        11/15/2024  17:07:44  PAGE 5


003C90H   003CA1H   000012H   BYTE   UNIT     CODE           ?PR?GETTAILKEYCOUNT?TAILKEY
003CA2H   003CB3H   000012H   BYTE   UNIT     CODE           ?PR?_DETECTIFNEEDSOFF?MODECONTROL
003CB4H   003CC5H   000012H   BYTE   UNIT     CODE           ?PR?_REPORTERROR?SELFTEST
003CC6H   003CD6H   000011H   BYTE   UNIT     CODE           ?PR?SETFLASHSTATE?FLASH
003CD7H   003CE6H   000010H   BYTE   UNIT     CODE           ?PR?WDOG_DEINIT?WATCHDOG
003CE7H   003CF6H   000010H   BYTE   UNIT     CODE           ?PR?WDOG_FEED?WATCHDOG
003CF7H   003D05H   00000FH   BYTE   UNIT     CODE           ?PR?PWM
003D06H   003D10H   00000BH   BYTE   UNIT     CODE           ?PR?GETSIDEKEYLONGPRESSEVENT?SIDEKEY
003D11H   003D1AH   00000AH   BYTE   UNIT     CODE           ?PR?LEDMGMT
003D1BH   003D23H   000009H   BYTE   UNIT     CODE           ?PR?TRIGGERVSHOWDISPLAY?BATTVOLTDISPLAY
003D24H   003D2AH   000007H   BYTE   UNIT     CODE           ?PR?GETSIDEKEYHOLDEVENT?SIDEKEY
003D2BH   003D31H   000007H   BYTE   UNIT     CODE           ?PR?GETSIDEKEYCLICKANDHOLDEVENT?SIDEKEY
003D32H   003D38H   000007H   BYTE   UNIT     CODE           ?PR?OUTPUTCHANNEL_DEINIT?OUTPUTCHANNEL
003D39H   003D3EH   000006H   BYTE   UNIT     CODE           ?PR?TIMER0_IRQHANDLER?DELAY
003D3FH   003F20H   0001E2H   BYTE   UNIT     CONST          ?CO?NTC
003F21H   003F83H   000063H   BYTE   UNIT     CONST          ?CO?MODECONTROL
003F84H   003F97H   000014H   BYTE   UNIT     CONST          ?CO?OUTPUTCHANNEL
003F98H   003FA6H   00000FH   BYTE   UNIT     CONST          ?CO?RAMPCONFIG
003FA7H   003FAAH   000004H   BYTE   UNIT     CONST          ?CO?ADCCFG

* * * * * * * * * * *  X D A T A   M E M O R Y  * * * * * * * * * * * * *
000000H   00001BH   00001CH   BYTE   UNIT     XDATA          _XDATA_GROUP_
00001CH   000033H   000018H   BYTE   UNIT     XDATA          ?XD?BATTVOLTDISPLAY
000034H   000040H   00000DH   BYTE   UNIT     XDATA          ?XD?ADCCFG
000041H   00004CH   00000CH   BYTE   UNIT     XDATA          ?XD?MODECONTROL
00004DH   000054H   000008H   BYTE   UNIT     XDATA          ?XD?SELFTEST
000055H   000059H   000005H   BYTE   UNIT     XDATA          ?XD?OUTPUTCHANNEL
00005AH   00005DH   000004H   BYTE   UNIT     XDATA          ?XD?PWM
00005EH   000060H   000003H   BYTE   UNIT     XDATA          ?XD?TAILKEY
000061H   000061H   000001H   BYTE   UNIT     XDATA          ?XD?SIDEKEY
000062H   000062H   000001H   BYTE   UNIT     XDATA          ?XD?LEDMGMT



OVERLAY MAP OF MODULE:   .\Objects\XRLite (?C_STARTUP)


FUNCTION/MODULE                              BIT_GROUP   DATA_GROUP   XDATA_GROUP
--> CALLED FUNCTION/MODULE                  START  STOP  START  STOP  START  STOP
=================================================================================
?C_C51STARTUP                               ----- -----  ----- -----  ----- -----
  +--> MAIN/MAIN
  +--> ?C_INITSEG

MAIN/MAIN                                   ----- -----  ----- -----  ----- -----
  +--> DELAY_INIT/DELAY
  +--> SETSYSTEMHBTIMER/DELAY
  +--> CHECKIFHBTIMISREADY/DELAY
  +--> LED_INIT/LEDMGMT
  +--> ADC_INIT/ADCCFG
  +--> CHECKNTCSTATUS/TEMPCONTROL
  +--> MODEFSMINIT/MODECONTROL
  +--> SIDEKEYINIT/SIDEKEY
  +--> TAILKEY_INIT/TAILKEY
  +--> PWM_INIT/PWM
  +--> OUTPUTCHANNEL_INIT/OUTPUTCHANNEL
  +--> TAILMEMORY_RECALL/TAILMEMORY
  +--> OUTPUTCHANNEL_TESTRUN/OUTPUTCHANNEL
  +--> DISPLAYVBATTATSTART/BATTVOLTDISPLAY
  +--> WDOG_INIT/WATCHDOG
  +--> SYSTEMTELEMHANDLER/ADCCFG
  +--> SIDEKEY_LOGICHANDLER/SIDEKEY
  +--> TAILKEY_HANDLER/TAILKEY
  +--> BATTERYTELEMHANDLER/BATTVOLTDISPLAY
  +--> MODESWITCHFSM/MODECONTROL
LX51 LINKER/LOCATER V4.66.97.0                                                        11/15/2024  17:07:44  PAGE 6


  +--> THERMALCALCPROCESS/TEMPCONTROL
  +--> OUTPUTCHANNEL_CALC/OUTPUTCHANNEL
  +--> PWM_OUTPUTCTRLHANDLER/PWM
  +--> WDOG_FEED/WATCHDOG
  +--> TAILKEYCOUNTER/TAILKEY
  +--> BATTDISPLAYTIM/BATTVOLTDISPLAY
  +--> MODEFSMTIMHANDLER/MODECONTROL
  +--> HOLDSWITCHGEARCMDHANDLER/MODECONTROL
  +--> DISPLAYERRORTIMHANDLER/SELFTEST
  +--> MOONCONFIGHANDLER/MODECONTROL
  +--> SLEEPMGMT/SLEEP
  +--> LEDCONTROLHANDLER/LEDMGMT
  +--> OUTPUTFAULTDETECT/SELFTEST

DELAY_INIT/DELAY                            ----- -----  ----- -----  ----- -----

SETSYSTEMHBTIMER/DELAY                      21H.0 21H.0  ----- -----  ----- -----

CHECKIFHBTIMISREADY/DELAY                   ----- -----  0023H 0024H  ----- -----
  +--> _DELAY_MS/DELAY

_DELAY_MS/DELAY                             ----- -----  002FH 0036H  ----- -----

LED_INIT/LEDMGMT                            ----- -----  0025H 0027H  ----- -----
  +--> _GPIO_CONFIGGPIOMODE/GPIO

_GPIO_CONFIGGPIOMODE/GPIO                   ----- -----  0028H 0032H  ----- -----
  +--> GPIO

GPIO                                        ----- -----  ----- -----  ----- -----

ADC_INIT/ADCCFG                             ----- -----  0025H 0027H  ----- -----
  +--> _GPIO_CONFIGGPIOMODE/GPIO
  +--> _GPIO_SETMUXMODE/GPIO
  +--> _GPIO_WRITEBIT/GPIO
  +--> ADCCFG
  +--> SYSTEMTELEMHANDLER/ADCCFG

_GPIO_SETMUXMODE/GPIO                       ----- -----  0028H 0029H  ----- -----
  +--> GPIO

_GPIO_WRITEBIT/GPIO                         21H.0 21H.0  ----- -----  ----- -----
  +--> GPIO

ADCCFG                                      ----- -----  ----- -----  ----- -----

SYSTEMTELEMHANDLER/ADCCFG                   ----- -----  ----- -----  ----- -----
  +--> ADCENGINEHANDLER/ADCCFG

ADCENGINEHANDLER/ADCCFG                     ----- -----  0028H 002CH  ----- -----
  +--> ADC_SETVREF/ADCCFG
  +--> ADCCFG
  +--> _ADC_SUBMITMISSON/ADCCFG
  +--> _ADC_READBACKRESULT/ADCCFG
  +--> _ADC_WRITEOUTPUTBUF/ADCCFG

ADC_SETVREF/ADCCFG                          21H.0 21H.0  ----- -----  ----- -----

_ADC_SUBMITMISSON/ADCCFG                    ----- -----  ----- -----  ----- -----
  +--> ADCCFG
  +--> _DELAY_US/DELAY

_DELAY_US/DELAY                             21H.0 21H.0  ----- -----  ----- -----

_ADC_READBACKRESULT/ADCCFG                  ----- -----  002DH 0032H  ----- -----
LX51 LINKER/LOCATER V4.66.97.0                                                        11/15/2024  17:07:44  PAGE 7



_ADC_WRITEOUTPUTBUF/ADCCFG                  ----- -----  002DH 003BH  ----- -----
  +--> ADCCFG
  +--> _CALCNTCTEMP/NTC

_CALCNTCTEMP/NTC                            ----- -----  003CH 0048H  ----- -----
  +--> NTC

NTC                                         ----- -----  ----- -----  ----- -----

CHECKNTCSTATUS/TEMPCONTROL                  ----- -----  0023H 0023H  ----- -----
  +--> _DELAY_MS/DELAY
  +--> SYSTEMTELEMHANDLER/ADCCFG
  +--> LEDCONTROLHANDLER/LEDMGMT

LEDCONTROLHANDLER/LEDMGMT                   20H.7 20H.7  ----- -----  ----- -----
  +--> LEDMGMT

LEDMGMT                                     ----- -----  ----- -----  ----- -----

MODEFSMINIT/MODECONTROL                     ----- -----  ----- -----  ----- -----
  +--> MODECONTROL
  +--> READRAMPCONFIG/RAMPCONFIG

MODECONTROL                                 ----- -----  ----- -----  ----- -----

READRAMPCONFIG/RAMPCONFIG                   ----- -----  0023H 0029H  ----- -----
  +--> SETFLASHSTATE/FLASH
  +--> _FLASH_OPERATION/FLASH
  +--> RAMPCONFIG
  +--> _PEC8CHECK/RAMPCONFIG
  +--> RESTORETOMINIMUMRAMPCURRENT/RAMPCONFIG
  +--> SAVERAMPCONFIG/RAMPCONFIG

SETFLASHSTATE/FLASH                         21H.2 21H.2  ----- -----  ----- -----

_FLASH_OPERATION/FLASH                      ----- -----  0036H 0036H  ----- -----

RAMPCONFIG                                  ----- -----  ----- -----  ----- -----

_PEC8CHECK/RAMPCONFIG                       ----- -----  0036H 0045H  ----- -----
  +--> RAMPCONFIG

RESTORETOMINIMUMRAMPCURRENT/RAMPCONFIG      ----- -----  ----- -----  ----- -----
  +--> RAMPCONFIG

SAVERAMPCONFIG/RAMPCONFIG                   21H.1 21H.1  002AH 0035H  ----- -----
  +--> SETFLASHSTATE/FLASH
  +--> RAMPCONFIG
  +--> _FLASH_OPERATION/FLASH
  +--> _PEC8CHECK/RAMPCONFIG

SIDEKEYINIT/SIDEKEY                         ----- -----  0023H 0025H  ----- -----
  +--> _GPIO_SETMUXMODE/GPIO
  +--> _GPIO_CONFIGGPIOMODE/GPIO
  +--> _GPIO_ENABLEINT/GPIO
  +--> _GPIO_SETEXTINTMODE/GPIO

_GPIO_ENABLEINT/GPIO                        ----- -----  ----- -----  ----- -----

_GPIO_SETEXTINTMODE/GPIO                    ----- -----  0026H 0027H  ----- -----
  +--> GPIO

TAILKEY_INIT/TAILKEY                        ----- -----  ----- -----  ----- -----

LX51 LINKER/LOCATER V4.66.97.0                                                        11/15/2024  17:07:44  PAGE 8


PWM_INIT/PWM                                ----- -----  0025H 0027H  ----- -----
  +--> _GPIO_WRITEBIT/GPIO
  +--> _GPIO_CONFIGGPIOMODE/GPIO
  +--> _GPIO_SETMUXMODE/GPIO

OUTPUTCHANNEL_INIT/OUTPUTCHANNEL            ----- -----  0025H 0027H  ----- -----
  +--> OUTPUTCHANNEL
  +--> _GPIO_CONFIGGPIOMODE/GPIO

OUTPUTCHANNEL                               ----- -----  ----- -----  ----- -----

TAILMEMORY_RECALL/TAILMEMORY                ----- -----  0023H 0026H  ----- -----
  +--> SETFLASHSTATE/FLASH
  +--> _FLASH_OPERATION/FLASH
  +--> TAILMEMORY
  +--> _SWITCHTOGEAR/MODECONTROL

TAILMEMORY                                  ----- -----  ----- -----  ----- -----

_SWITCHTOGEAR/MODECONTROL                   ----- -----  002AH 002DH  ----- -----
  +--> MODECONTROL
  +--> _TAILMEMORY_SAVE/TAILMEMORY

_TAILMEMORY_SAVE/TAILMEMORY                 ----- -----  002EH 0032H  ----- -----
  +--> SETFLASHSTATE/FLASH
  +--> TAILMEMORY
  +--> _FLASH_OPERATION/FLASH

OUTPUTCHANNEL_TESTRUN/OUTPUTCHANNEL         ----- -----  0023H 0026H  0000H 001BH
  +--> GETIFWDOGCAUSERST/WATCHDOG
  +--> OUTPUTCHANNEL
  +--> PWM_FORCESETDUTY/PWM
  +--> _DELAY_MS/DELAY
  +--> SYSTEMTELEMHANDLER/ADCCFG
  +--> _REPORTERROR/SELFTEST

GETIFWDOGCAUSERST/WATCHDOG                  ----- -----  ----- -----  ----- -----

PWM_FORCESETDUTY/PWM                        20H.7 20H.7  ----- -----  ----- -----

_REPORTERROR/SELFTEST                       ----- -----  ----- -----  ----- -----
  +--> SELFTEST
  +--> _SWITCHTOGEAR/MODECONTROL

SELFTEST                                    ----- -----  ----- -----  ----- -----

DISPLAYVBATTATSTART/BATTVOLTDISPLAY         ----- -----  0023H 0027H  ----- -----
  +--> _GPIO_SETMUXMODE/GPIO
  +--> _DELAY_MS/DELAY
  +--> SYSTEMTELEMHANDLER/ADCCFG
  +--> BATTVOLTDISPLAY
  +--> _MAKEFASTSTROBE/LEDMGMT
  +--> _GPIO_CONFIGGPIOMODE/GPIO

BATTVOLTDISPLAY                             ----- -----  ----- -----  ----- -----

_MAKEFASTSTROBE/LEDMGMT                     ----- -----  ----- -----  ----- -----
  +--> _DELAY_MS/DELAY

WDOG_INIT/WATCHDOG                          ----- -----  ----- -----  ----- -----

SIDEKEY_LOGICHANDLER/SIDEKEY                ----- -----  ----- -----  ----- -----
  +--> _GPIO_CHECKIFINTENABLED/GPIO
  +--> _GPIO_SETEXTINTMODE/GPIO
  +--> _GPIO_ENABLEINT/GPIO
LX51 LINKER/LOCATER V4.66.97.0                                                        11/15/2024  17:07:44  PAGE 9


  +--> SIDEKEY
  +--> _CLICKANDHOLDEVENTHANDLER/SIDEKEY

_GPIO_CHECKIFINTENABLED/GPIO                ----- -----  ----- -----  ----- -----

SIDEKEY                                     ----- -----  ----- -----  ----- -----

_CLICKANDHOLDEVENTHANDLER/SIDEKEY           ----- -----  ----- -----  ----- -----

TAILKEY_HANDLER/TAILKEY                     ----- -----  ----- -----  ----- -----
  +--> _DELAY_MS/DELAY

BATTERYTELEMHANDLER/BATTVOLTDISPLAY         ----- -----  0025H 002CH  ----- -----
  +--> BATTVOLTDISPLAY
  +--> DISPLAYERRORIDHANDLER/SELFTEST
  +--> BATVSHOWFSM/BATTVOLTDISPLAY

DISPLAYERRORIDHANDLER/SELFTEST              ----- -----  ----- -----  ----- -----

BATVSHOWFSM/BATTVOLTDISPLAY                 ----- -----  002DH 002EH  ----- -----
  +--> BATTVOLTDISPLAY
  +--> _MAKEFASTSTROBE/LEDMGMT
  +--> GETSIDEKEYCLICKANDHOLDEVENT/SIDEKEY

GETSIDEKEYCLICKANDHOLDEVENT/SIDEKEY         ----- -----  ----- -----  ----- -----

MODESWITCHFSM/MODECONTROL                   20H.7 20H.7  0023H 0025H  0000H 0003H
  +--> GETTAILKEYCOUNT/TAILKEY
  +--> GETSIDEKEYLONGPRESSEVENT/SIDEKEY
  +--> GETSIDEKEYSHORTPRESSCOUNT/SIDEKEY
  +--> MODECONTROL
  +--> _TAILMEMORY_SAVE/TAILMEMORY
  +--> ISKEYEVENTOCCURRED/SIDEKEY
  +--> GETSIDEKEYHOLDEVENT/SIDEKEY
  +--> SAVERAMPCONFIG/RAMPCONFIG
  +--> GETSIDEKEYCLICKANDHOLDEVENT/SIDEKEY
  +--> TRIGGERVSHOWDISPLAY/BATTVOLTDISPLAY
  +--> _BATTERYLOWALERTPROCESS/MODECONTROL
  +--> RETURNTOOFFSTATE/MODECONTROL
  +--> _SWITCHTOGEAR/MODECONTROL
  +--> RESTORETOMINIMUMRAMPCURRENT/RAMPCONFIG
  +--> RAMPLOWVOLTHANDLER/MODECONTROL
  +--> _RAMPADJHANDLER/MODECONTROL
  +--> _SIDEKEYSWITCHGEARHANDLER/MODECONTROL
  +--> _ENTERTURBOSTROBE/MODECONTROL
  +--> _SIDEKEY1HREVGEARHANDLER/MODECONTROL
  +--> SOSFSM/MODECONTROL
  +--> OBTAINMOONCURRENT/MODECONTROL
  +--> _THERMALILIMCALC/TEMPCONTROL
  +--> _DETECTIFNEEDSOFF/MODECONTROL

GETTAILKEYCOUNT/TAILKEY                     ----- -----  ----- -----  ----- -----

GETSIDEKEYLONGPRESSEVENT/SIDEKEY            ----- -----  ----- -----  ----- -----

GETSIDEKEYSHORTPRESSCOUNT/SIDEKEY           21H.0 21H.0  ----- -----  ----- -----
  +--> SIDEKEY

ISKEYEVENTOCCURRED/SIDEKEY                  ----- -----  ----- -----  ----- -----

GETSIDEKEYHOLDEVENT/SIDEKEY                 ----- -----  ----- -----  ----- -----

TRIGGERVSHOWDISPLAY/BATTVOLTDISPLAY         ----- -----  ----- -----  ----- -----

_BATTERYLOWALERTPROCESS/MODECONTROL         ----- -----  0026H 0028H  ----- -----
LX51 LINKER/LOCATER V4.66.97.0                                                        11/15/2024  17:07:44  PAGE 10


  +--> RETURNTOOFFSTATE/MODECONTROL
  +--> _SWITCHTOGEAR/MODECONTROL

RETURNTOOFFSTATE/MODECONTROL                ----- -----  ----- -----  ----- -----
  +--> MODECONTROL
  +--> _SWITCHTOGEAR/MODECONTROL
  +--> _TAILMEMORY_SAVE/TAILMEMORY

RAMPLOWVOLTHANDLER/MODECONTROL              ----- -----  0026H 0026H  ----- -----
  +--> MODECONTROL
  +--> RETURNTOOFFSTATE/MODECONTROL

_RAMPADJHANDLER/MODECONTROL                 21H.0 21H.0  0026H 0028H  ----- -----
  +--> GETSIDEKEYCLICKANDHOLDEVENT/SIDEKEY
  +--> GETSIDEKEYHOLDEVENT/SIDEKEY
  +--> MODECONTROL
  +--> ISKEYEVENTOCCURRED/SIDEKEY
  +--> SAVERAMPCONFIG/RAMPCONFIG

_SIDEKEYSWITCHGEARHANDLER/MODECONTROL       ----- -----  ----- -----  ----- -----
  +--> _SWITCHTOGEAR/MODECONTROL

_ENTERTURBOSTROBE/MODECONTROL               ----- -----  0026H 0029H  ----- -----
  +--> _SWITCHTOGEAR/MODECONTROL

_SIDEKEY1HREVGEARHANDLER/MODECONTROL        ----- -----  ----- -----  ----- -----
  +--> _SWITCHTOGEAR/MODECONTROL

SOSFSM/MODECONTROL                          ----- -----  0026H 0027H  ----- -----
  +--> MODECONTROL

OBTAINMOONCURRENT/MODECONTROL               ----- -----  ----- -----  ----- -----
  +--> MODECONTROL

_THERMALILIMCALC/TEMPCONTROL                ----- -----  0026H 0033H  ----- -----
  +--> TEMPCONTROL

TEMPCONTROL                                 ----- -----  ----- -----  ----- -----

_DETECTIFNEEDSOFF/MODECONTROL               ----- -----  ----- -----  ----- -----
  +--> GETSIDEKEYHOLDEVENT/SIDEKEY
  +--> RETURNTOOFFSTATE/MODECONTROL

THERMALCALCPROCESS/TEMPCONTROL              ----- -----  ----- -----  ----- -----
  +--> TEMPCONTROL
  +--> _REPORTERROR/SELFTEST
  +--> _SWITCHTOGEAR/MODECONTROL

OUTPUTCHANNEL_CALC/OUTPUTCHANNEL            ----- -----  ----- -----  ----- -----
  +--> OUTPUTCHANNEL
  +--> _DUTY_CALC/OUTPUTCHANNEL

_DUTY_CALC/OUTPUTCHANNEL                    ----- -----  0023H 0030H  ----- -----
  +--> OUTPUTCHANNEL

PWM_OUTPUTCTRLHANDLER/PWM                   ----- -----  0023H 0026H  ----- -----
  +--> PWM

PWM                                         ----- -----  ----- -----  ----- -----

WDOG_FEED/WATCHDOG                          ----- -----  ----- -----  ----- -----

TAILKEYCOUNTER/TAILKEY                      ----- -----  ----- -----  ----- -----

BATTDISPLAYTIM/BATTVOLTDISPLAY              ----- -----  ----- -----  ----- -----
LX51 LINKER/LOCATER V4.66.97.0                                                        11/15/2024  17:07:44  PAGE 11


  +--> BATTVOLTDISPLAY

MODEFSMTIMHANDLER/MODECONTROL               ----- -----  ----- -----  ----- -----
  +--> MODECONTROL

HOLDSWITCHGEARCMDHANDLER/MODECONTROL        ----- -----  0023H 0023H  ----- -----
  +--> GETSIDEKEYHOLDEVENT/SIDEKEY
  +--> MODECONTROL
  +--> GETSIDEKEYCLICKANDHOLDEVENT/SIDEKEY

DISPLAYERRORTIMHANDLER/SELFTEST             ----- -----  ----- -----  ----- -----

MOONCONFIGHANDLER/MODECONTROL               ----- -----  ----- -----  ----- -----
  +--> MODECONTROL

SLEEPMGMT/SLEEP                             ----- -----  0023H 0024H  ----- -----
  +--> SYSTEMPERIPHERALCTRL/SLEEP
  +--> DELAY_INIT/DELAY
  +--> SETSYSTEMHBTIMER/DELAY
  +--> MARKASKEYPRESSED/SIDEKEY
  +--> _DELAY_MS/DELAY
  +--> SIDEKEY_LOGICHANDLER/SIDEKEY
  +--> ISKEYEVENTOCCURRED/SIDEKEY
  +--> SYSTEMTELEMHANDLER/ADCCFG
  +--> BATTERYTELEMHANDLER/BATTVOLTDISPLAY

SYSTEMPERIPHERALCTRL/SLEEP                  20H.7 20H.7  ----- -----  ----- -----
  +--> LED_INIT/LEDMGMT
  +--> ADC_INIT/ADCCFG
  +--> PWM_INIT/PWM
  +--> OUTPUTCHANNEL_INIT/OUTPUTCHANNEL
  +--> WDOG_INIT/WATCHDOG
  +--> TAILKEY_INIT/TAILKEY
  +--> WDOG_DEINIT/WATCHDOG
  +--> SETSYSTEMHBTIMER/DELAY
  +--> PWM_DEINIT/PWM
  +--> ADC_DEINIT/ADCCFG
  +--> OUTPUTCHANNEL_DEINIT/OUTPUTCHANNEL

WDOG_DEINIT/WATCHDOG                        ----- -----  ----- -----  ----- -----

PWM_DEINIT/PWM                              ----- -----  ----- -----  ----- -----
  +--> _GPIO_SETMUXMODE/GPIO
  +--> _GPIO_WRITEBIT/GPIO

ADC_DEINIT/ADCCFG                           ----- -----  0025H 0027H  ----- -----
  +--> ADCCFG
  +--> _GPIO_SETMUXMODE/GPIO
  +--> _GPIO_CONFIGGPIOMODE/GPIO
  +--> _GPIO_WRITEBIT/GPIO

OUTPUTCHANNEL_DEINIT/OUTPUTCHANNEL          ----- -----  ----- -----  ----- -----
  +--> OUTPUTCHANNEL

MARKASKEYPRESSED/SIDEKEY                    ----- -----  ----- -----  ----- -----
  +--> _GPIO_DISABLEINT/GPIO

_GPIO_DISABLEINT/GPIO                       ----- -----  ----- -----  ----- -----

OUTPUTFAULTDETECT/SELFTEST                  ----- -----  0023H 0023H  ----- -----
  +--> SELFTEST
  +--> _REPORTERROR/SELFTEST

?C_INITSEG                                  ----- -----  ----- -----  ----- -----

LX51 LINKER/LOCATER V4.66.97.0                                                        11/15/2024  17:07:44  PAGE 12


*** NEW ROOT ******************************

KEY_IRQHANDLER/MAIN                         ----- -----  ----- -----  ----- -----
  +--> SIDEKEY_INT_CALLBACK/SIDEKEY

SIDEKEY_INT_CALLBACK/SIDEKEY                ----- -----  ----- -----  ----- -----
  +--> _GPIO_GETEXTINTMODE/GPIO
  +--> SIDEKEY
  +--> _GPIO_DISABLEINT/GPIO

_GPIO_GETEXTINTMODE/GPIO                    ----- -----  ----- -----  ----- -----
  +--> GPIO

*** NEW ROOT ******************************

TIMER2_IRQHANDLER/DELAY                     ----- -----  ----- -----  ----- -----
  +--> SIDEKEY_TIM_CALLBACK/SIDEKEY

SIDEKEY_TIM_CALLBACK/SIDEKEY                ----- -----  ----- -----  ----- -----

*** NEW ROOT ******************************

TIMER0_IRQHANDLER/DELAY                     ----- -----  ----- -----  ----- -----

*** NEW ROOT ******************************

ACMP_IRQHANDLER/TAILKEY                     ----- -----  ----- -----  ----- -----



PUBLIC SYMBOLS OF MODULE:  .\Objects\XRLite (?C_STARTUP)


      VALUE       CLASS    TYPE      PUBLIC SYMBOL NAME
      =================================================
      00000021H.0 BIT      BIT       ?_GPIO_WriteBit?BIT
      010003CBH   CODE     ---       ?C?CASTF
      0100057DH   CODE     ---       ?C?CLDOPTR
      01000564H   CODE     ---       ?C?CLDPTR
      00000000H   NUMBER   ---       ?C?CODESEG
      0100051CH   CODE     ---       ?C?COPY
      010005AAH   CODE     ---       ?C?CSTPTR
      01000397H   CODE     ---       ?C?FCASTC
      01000392H   CODE     ---       ?C?FCASTI
      0100038DH   CODE     ---       ?C?FCASTL
      0100007DH   CODE     ---       ?C?FPADD
      01000316H   CODE     ---       ?C?FPCMP
      01000314H   CODE     ---       ?C?FPCMP3
      01000277H   CODE     ---       ?C?FPDIV
      01000402H   CODE     ---       ?C?FPGETOPN2
      0100016EH   CODE     ---       ?C?FPMUL
      01000437H   CODE     ---       ?C?FPNANRESULT
      01000441H   CODE     ---       ?C?FPOVERFLOW
      01000419H   CODE     ---       ?C?FPRESULT
      0100042DH   CODE     ---       ?C?FPRESULT2
      01000079H   CODE     ---       ?C?FPSUB
      0100043EH   CODE     ---       ?C?FPUNDERFLOW
      01000604H   CODE     ---       ?C?ILDOPTR
      010005BCH   CODE     ---       ?C?IMUL
      0100063CH   CODE     ---       ?C?ISTPTR
      010007C0H   CODE     ---       ?C?LLDCODE
      0100065BH   CODE     ---       ?C?LMUL
      01000778H   CODE     ---       ?C?LNEG
      010007DCH   CODE     ---       ?C?LSTKXDATA
      010007D0H   CODE     ---       ?C?LSTXDATA
LX51 LINKER/LOCATER V4.66.97.0                                                        11/15/2024  17:07:44  PAGE 13


      0100080DH   CODE     ---       ?C?OFFXADD
      01000542H   CODE     ---       ?C?SCDIV
      010005CEH   CODE     ---       ?C?SIDIV
      01000786H   CODE     ---       ?C?SLCMP
      010035ECH   CODE     ---       ?C?SLDIV
      01000819H   CODE     ---       ?C?UIDIV
      0100079CH   CODE     ---       ?C?ULCMP
      010006E6H   CODE     ---       ?C?ULDIV
      010007ADH   CODE     ---       ?C?ULSHR
      00000000H   NUMBER   ---       ?C?XDATASEG
      01002BA0H   CODE     ---       ?C_START
      01000000H   CODE     NEAR LAB  ?C_STARTUP
      00000021H.0 BIT      BIT       ?getSideKeyShortPressCount?BIT
      00000020H.7 BIT      BIT       ?PWM_ForceSetDuty?BIT
      00000021H.1 BIT      BIT       ?SaveRampConfig?BIT
      00000021H.2 BIT      BIT       ?SetFlashState?BIT
      00000021H.0 BIT      BIT       ?SetSystemHBTimer?BIT
      00000020H.7 BIT      BIT       ?SystemPeripheralCTRL?BIT
      010022FEH   CODE     ---       _CalcNTCTemp
      0100260EH   CODE     ---       _delay_ms
      010036F4H   CODE     ---       _delay_us
      010038BEH   CODE     ---       _Flash_Operation
      0100391AH   CODE     ---       _GPIO_CheckIfIntEnabled
      01000C7CH   CODE     ---       _GPIO_ConfigGPIOMode
      01003B0DH   CODE     ---       _GPIO_DisableInt
      01003BD0H   CODE     ---       _GPIO_EnableInt
      01002BE5H   CODE     ---       _GPIO_GetExtIntMode
      010034ADH   CODE     ---       _GPIO_SetExtIntMode
      0100311DH   CODE     ---       _GPIO_SetMUXMode
      01002556H   CODE     ---       _GPIO_WriteBit
      01003A1FH   CODE     ---       _MakeFastStrobe
      01003CB4H   CODE     ---       _ReportError
      0100318FH   CODE     ---       _SwitchToGear
      01002AB0H   CODE     ---       _TailMemory_Save
      01001B37H   CODE     ---       _ThermalILIMCalc
*SFR* 000000D0H.6 DATA     BIT       AC
*SFR* 000000E0H   DATA     BYTE      ACC
      01003ABFH   CODE     ---       ACMP_IRQHandler
      01002C7CH   CODE     ---       ADC_DeInit
      01002A12H   CODE     ---       ADC_Init
      01003FA7H   CONST    ---       ADCChQueue
*SFR* 000000D1H   DATA     BYTE      ADCMPC
*SFR* 000000D5H   DATA     BYTE      ADCMPH
*SFR* 000000D4H   DATA     BYTE      ADCMPL
*SFR* 000000DFH   DATA     BYTE      ADCON0
*SFR* 000000DEH   DATA     BYTE      ADCON1
*SFR* 000000E9H   DATA     BYTE      ADCON2
*SFR* 000000D3H   DATA     BYTE      ADDLYL
*SFR* 000000DDH   DATA     BYTE      ADRESH
*SFR* 000000DCH   DATA     BYTE      ADRESL
*SFR* 000000F0H   DATA     BYTE      B
      02000042H   XDATA    CHAR      BattAlertTimer
      01003771H   CODE     ---       BattDisplayTIM
      0200002CH   XDATA    FLOAT     Battery
      01000F49H   CODE     ---       BatteryTelemHandler
      0200001FH   XDATA    BYTE      BattState
*SFR* 000000BFH   DATA     BYTE      BUZCON
*SFR* 000000BEH   DATA     BYTE      BUZDIV
*SFR* 000000C8H.5 DATA     BIT       CAPES
*SFR* 000000CEH   DATA     BYTE      CCEN
*SFR* 000000C3H   DATA     BYTE      CCH1
*SFR* 000000C5H   DATA     BYTE      CCH2
*SFR* 000000C7H   DATA     BYTE      CCH3
*SFR* 000000C2H   DATA     BYTE      CCL1
*SFR* 000000C4H   DATA     BYTE      CCL2
LX51 LINKER/LOCATER V4.66.97.0                                                        11/15/2024  17:07:44  PAGE 14


*SFR* 000000C6H   DATA     BYTE      CCL3
      0100004EH   CODE     ---       CheckIfHBTIMIsReady
      01003B51H   CODE     ---       CheckNTCStatus
*SFR* 0000008EH   DATA     BYTE      CKCON
      02000049H   XDATA    CHAR      ClickHoldReverseGearTIM
*SFR* 0000008FH   DATA     BYTE      CLKDIV
*SFR* 000000A0H.2 DATA     BIT       CSPin
      02000057H   XDATA    INT       Current
      00000051H   DATA     ---       CurrentMode
*SFR* 000000D0H.7 DATA     BIT       CY
      00000009H   DATA     ---       Data
*SFR* 00000080H.4 DATA     BIT       DCDCEN
      01003C68H   CODE     ---       delay_init
      01003030H   CODE     ---       DisplayErrorIDHandler
      01003630H   CODE     ---       DisplayErrorTIMHandler
      02000044H   XDATA    CHAR      DisplayLockedTIM
      01002136H   CODE     ---       DisplayVBattAtStart
*SFR* 00000083H   DATA     BYTE      DPH
*SFR* 00000083H   DATA     BYTE      DPH0
*SFR* 00000085H   DATA     BYTE      DPH1
*SFR* 00000082H   DATA     BYTE      DPL
*SFR* 00000082H   DATA     BYTE      DPL0
*SFR* 00000084H   DATA     BYTE      DPL1
*SFR* 00000086H   DATA     BYTE      DPS
*SFR* 00000093H   DATA     BYTE      DPX0
*SFR* 00000095H   DATA     BYTE      DPX1
*SFR* 000000A8H.7 DATA     BIT       EA
*SFR* 000000AAH   DATA     BYTE      EIE2
*SFR* 000000B2H   DATA     BYTE      EIF2
*SFR* 000000B9H   DATA     BYTE      EIP1
*SFR* 000000BAH   DATA     BYTE      EIP2
      02000046H   XDATA    BYTE      ErrCode
*SFR* 000000A8H.4 DATA     BIT       ES0
*SFR* 000000A8H.6 DATA     BIT       ES1
*SFR* 000000A8H.1 DATA     BIT       ET0
*SFR* 000000A8H.3 DATA     BIT       ET1
*SFR* 000000A8H.5 DATA     BIT       ET2
*SFR* 000000A8H.0 DATA     BIT       EX0
*SFR* 000000A8H.2 DATA     BIT       EX1
*SFR* 000000D0H.5 DATA     BIT       F0
*SFR* 00000091H   DATA     BYTE      FUNCCR
      0100002EH   CODE     ---       GetIfWDogCauseRST
      01003D2BH   CODE     ---       getSideKeyClickAndHoldEvent
      01003D24H   CODE     ---       getSideKeyHoldEvent
      01003D06H   CODE     ---       getSideKeyLongPressEvent
      01003B92H   CODE     ---       getSideKeyShortPressCount
      01003C90H   CODE     ---       GetTailKeyCount
*SFR* 000000A0H.5 DATA     BIT       GLED
      0000001FH   DATA     CHAR      HBcounter
      02000048H   XDATA    CHAR      HoldChangeGearTIM
      010030A9H   CODE     ---       HoldSwitchGearCmdHandler
*SFR* 00000080H.5 DATA     BIT       HShuntSEL
*SFR* 000000F6H   DATA     BYTE      I2CMBUF
*SFR* 000000F5H   DATA     BYTE      I2CMCR
*SFR* 000000F4H   DATA     BYTE      I2CMSA
*SFR* 000000F5H   DATA     BYTE      I2CMSR
*SFR* 000000F7H   DATA     BYTE      I2CMTP
*SFR* 000000F1H   DATA     BYTE      I2CSADR
*SFR* 000000F3H   DATA     BYTE      I2CSBUF
*SFR* 000000F2H   DATA     BYTE      I2CSCR
*SFR* 000000F2H   DATA     BYTE      I2CSSR
*SFR* 000000C8H.6 DATA     BIT       I3FR
*SFR* 000000A8H   DATA     BYTE      IE
*SFR* 00000088H.1 DATA     BIT       IE0
*SFR* 00000088H.3 DATA     BIT       IE1
LX51 LINKER/LOCATER V4.66.97.0                                                        11/15/2024  17:07:44  PAGE 15


      02000053H   XDATA    CHAR      InputDetectTIM
*SFR* 000000B8H   DATA     BYTE      IP
      00000022H.4 BIT      BIT       IsBatteryAlert
      00000022H.5 BIT      BIT       IsBatteryFault
      00000022H.1 BIT      BIT       IsDisableTurbo
      00000020H.3 BIT      BIT       IsEnableMoonConfigMode
      00000022H.3 BIT      BIT       IsForceLeaveTurbo
      01003C7DH   CODE     ---       IsKeyEventOccurred
      00000020H.4 BIT      BIT       IsLocked
      00000021H.6 BIT      BIT       IsNeedToUploadPWM
      02000040H   XDATA    BYTE      IsNotAllowAsync
      00000020H.2 BIT      BIT       IsRampEnabled
      00000020H.6 BIT      BIT       IsRampStart
      00000021H.3 BIT      BIT       IsT0OVF
      00000020H.5 BIT      BIT       IsTacMode
      00000022H.2 BIT      BIT       IsTempLIMActive
      00000022H.7 BIT      BIT       IsWakupFromSleep
*SFR* 00000088H.0 DATA     BIT       IT0
*SFR* 00000088H.2 DATA     BIT       IT1
      01003733H   CODE     ---       Key_IRQHandler
*SFR* 000000A0H.3 DATA     BIT       KeyPress
      02000061H   XDATA    BYTE      KeyState
      02000045H   XDATA    BYTE      LastMode
      01003A48H   CODE     ---       LED_Init
      01001E5AH   CODE     ---       LEDControlHandler
      0000005EH   DATA     BYTE      LEDMode
*SFR* 00000080H.3 DATA     BIT       LShuntSEL
*SFR* 000000FDH   DATA     BYTE      MADRH
*SFR* 000000FCH   DATA     BYTE      MADRL
      01002E27H   CODE     ---       main
      01003B72H   CODE     ---       MarkAsKeyPressed
*SFR* 000000FFH   DATA     BYTE      MCTRL
*SFR* 000000FEH   DATA     BYTE      MDATA
*SFR* 000000FBH   DATA     BYTE      MLOCK
      0100344FH   CODE     ---       ModeFSMInit
      01002F30H   CODE     ---       ModeFSMTIMHandler
      01003F21H   CONST    ---       ModeSettings
      0100086EH   CODE     ---       ModeSwitchFSM
      02000047H   XDATA    BYTE      MoonCfg
      02000043H   XDATA    CHAR      MoonCfgTIM
      01003672H   CODE     ---       MoonConfigHandler
      01003E6BH   CONST    ---       NTCTableBottom
      01003D3FH   CONST    ---       NTCTableTop
      01001F5CH   CODE     ---       OutputChannel_Calc
      01003D32H   CODE     ---       OutputChannel_DeInit
      010037E8H   CODE     ---       OutputChannel_Init
      010011CAH   CODE     ---       OutputChannel_TestRun
      010023DDH   CODE     ---       OutputFaultDetect
*SFR* 000000D0H.2 DATA     BIT       OV
*SFR* 000000D0H.0 DATA     BIT       P
*SFR* 00000080H   DATA     BYTE      P0
*SFR* 00000080H.0 DATA     BIT       P00
*SFR* 00000080H.1 DATA     BIT       P01
*SFR* 00000080H.2 DATA     BIT       P02
*SFR* 00000080H.3 DATA     BIT       P03
*SFR* 00000080H.4 DATA     BIT       P04
*SFR* 00000080H.5 DATA     BIT       P05
*SFR* 00000080H.6 DATA     BIT       P06
*SFR* 00000080H.7 DATA     BIT       P07
*SFR* 000000ACH   DATA     BYTE      P0EXTIE
*SFR* 000000B4H   DATA     BYTE      P0EXTIF
*SFR* 0000009AH   DATA     BYTE      P0TRIS
*SFR* 00000090H   DATA     BYTE      P1
*SFR* 00000090H.0 DATA     BIT       P10
*SFR* 00000090H.1 DATA     BIT       P11
LX51 LINKER/LOCATER V4.66.97.0                                                        11/15/2024  17:07:44  PAGE 16


*SFR* 00000090H.2 DATA     BIT       P12
*SFR* 00000090H.3 DATA     BIT       P13
*SFR* 00000090H.4 DATA     BIT       P14
*SFR* 00000090H.5 DATA     BIT       P15
*SFR* 00000090H.6 DATA     BIT       P16
*SFR* 00000090H.7 DATA     BIT       P17
*SFR* 000000ADH   DATA     BYTE      P1EXTIE
*SFR* 000000B5H   DATA     BYTE      P1EXTIF
*SFR* 000000A1H   DATA     BYTE      P1TRIS
*SFR* 000000A0H   DATA     BYTE      P2
*SFR* 000000A0H.0 DATA     BIT       P20
*SFR* 000000A0H.1 DATA     BIT       P21
*SFR* 000000A0H.2 DATA     BIT       P22
*SFR* 000000A0H.3 DATA     BIT       P23
*SFR* 000000A0H.4 DATA     BIT       P24
*SFR* 000000A0H.5 DATA     BIT       P25
*SFR* 000000A0H.6 DATA     BIT       P26
*SFR* 000000A0H.7 DATA     BIT       P27
*SFR* 000000AEH   DATA     BYTE      P2EXTIE
*SFR* 000000B6H   DATA     BYTE      P2EXTIF
*SFR* 000000A2H   DATA     BYTE      P2TRIS
*SFR* 000000B0H   DATA     BYTE      P3
*SFR* 000000B0H.0 DATA     BIT       P30
*SFR* 000000B0H.1 DATA     BIT       P31
*SFR* 000000B0H.2 DATA     BIT       P32
*SFR* 000000B0H.3 DATA     BIT       P33
*SFR* 000000B0H.4 DATA     BIT       P34
*SFR* 000000B0H.5 DATA     BIT       P35
*SFR* 000000B0H.6 DATA     BIT       P36
*SFR* 000000B0H.7 DATA     BIT       P37
*SFR* 000000AFH   DATA     BYTE      P3EXTIE
*SFR* 000000B7H   DATA     BYTE      P3EXTIF
*SFR* 000000A3H   DATA     BYTE      P3TRIS
*SFR* 00000087H   DATA     BYTE      PCON
*SFR* 000000A0H   DATA     BYTE      PPAGE_SFR
*SFR* 000000B8H.4 DATA     BIT       PS0
*SFR* 000000B8H.6 DATA     BIT       PS1
*SFR* 000000D0H   DATA     BYTE      PSW
*SFR* 000000B8H.1 DATA     BIT       PT0
*SFR* 000000B8H.3 DATA     BIT       PT1
*SFR* 000000B8H.5 DATA     BIT       PT2
      01003BB1H   CODE     ---       PWM_DeInit
      010039F5H   CODE     ---       PWM_ForceSetDuty
      01002DA0H   CODE     ---       PWM_Init
      010026C4H   CODE     ---       PWM_OutputCtrlHandler
      0200005AH   XDATA    FLOAT     PWMDuty
*SFR* 000000B8H.0 DATA     BIT       PX0
*SFR* 000000B8H.2 DATA     BIT       PX1
      00000049H   DATA     ---       RampCfg
      01001C4BH   CODE     ---       RampLowVoltHandler
      0200004CH   XDATA    CHAR      RampRiseCurrentTIM
      010032C7H   CODE     ---       ReadRampConfig
      0100399EH   CODE     ---       RestoreToMinimumRampCurrent
      01003BEEH   CODE     ---       ReturnToOFFState
*SFR* 00000080H.1 DATA     BIT       RevPGate
*SFR* 00000098H.0 DATA     BIT       RI0
*SFR* 000000CBH   DATA     BYTE      RLDH
*SFR* 000000CAH   DATA     BYTE      RLDL
*SFR* 000000A0H.4 DATA     BIT       RLED
*SFR* 000000D0H.3 DATA     BIT       RS0
*SFR* 000000D0H.4 DATA     BIT       RS1
      01002FB1H   CODE     ---       SaveRampConfig
*SFR* 00000099H   DATA     BYTE      SBUF
*SFR* 00000099H   DATA     BYTE      SBUF0
*SFR* 000000EBH   DATA     BYTE      SBUF1
LX51 LINKER/LOCATER V4.66.97.0                                                        11/15/2024  17:07:44  PAGE 17


*SFR* 00000098H   DATA     BYTE      SCON0
*SFR* 000000EAH   DATA     BYTE      SCON1
      01003CC6H   CODE     ---       SetFlashState
      01003A98H   CODE     ---       SetSystemHBTimer
      010031FAH   CODE     ---       SideKey_Int_Callback
      0100296EH   CODE     ---       SideKey_LogicHandler
      0100388CH   CODE     ---       SideKey_TIM_Callback
      010035A2H   CODE     ---       SideKeyInit
      01002D0FH   CODE     ---       SleepMgmt
      00000054H   DATA     INT       SleepTimer
      0200004AH   XDATA    CHAR      SOSTIM
*SFR* 00000081H   DATA     BYTE      SP
*SFR* 000000ECH   DATA     BYTE      SPCR
*SFR* 000000EEH   DATA     BYTE      SPDR
*SFR* 000000EDH   DATA     BYTE      SPSR
*SFR* 000000EFH   DATA     BYTE      SSCR
      00000021H.5 BIT      BIT       StrobeFlag
      00000021H.4 BIT      BIT       SysHBFlag
      01003972H   CODE     ---       SystemPeripheralCTRL
      01000047H   CODE     ---       SystemTelemHandler
*SFR* 000000C8H.2 DATA     BIT       T2CM
*SFR* 000000C8H   DATA     BYTE      T2CON
*SFR* 000000C8H.0 DATA     BIT       T2I0
*SFR* 000000C8H.1 DATA     BIT       T2I1
*SFR* 000000CFH   DATA     BYTE      T2IE
*SFR* 000000C9H   DATA     BYTE      T2IF
*SFR* 000000C8H.7 DATA     BIT       T2PS
*SFR* 000000C8H.3 DATA     BIT       T2R0
*SFR* 000000C8H.4 DATA     BIT       T2R1
*SFR* 000000D2H   DATA     BYTE      T34MOD
*SFR* 00000096H   DATA     BYTE      TA
      01003946H   CODE     ---       TailKey_Handler
      010038EDH   CODE     ---       TailKey_Init
      010037ADH   CODE     ---       TailKeyCounter
      0200005EH   XDATA    CHAR      TailKeyTIM
      01003392H   CODE     ---       TailMemory_Recall
      02000041H   XDATA    CHAR      TailSaveTIM
*SFR* 00000088H   DATA     BYTE      TCON
*SFR* 00000088H.5 DATA     BIT       TF0
*SFR* 00000088H.7 DATA     BIT       TF1
*SFR* 0000008CH   DATA     BYTE      TH0
*SFR* 0000008DH   DATA     BYTE      TH1
*SFR* 000000CDH   DATA     BYTE      TH2
*SFR* 000000DBH   DATA     BYTE      TH3
*SFR* 000000E3H   DATA     BYTE      TH4
      010015E0H   CODE     ---       ThermalCalcProcess
*SFR* 00000098H.1 DATA     BIT       TI0
      01003D39H   CODE     ---       Timer0_IRQHandler
      01003557H   CODE     ---       Timer2_IRQHandler
*SFR* 0000008AH   DATA     BYTE      TL0
*SFR* 0000008BH   DATA     BYTE      TL1
*SFR* 000000CCH   DATA     BYTE      TL2
*SFR* 000000DAH   DATA     BYTE      TL3
*SFR* 000000E2H   DATA     BYTE      TL4
*SFR* 00000089H   DATA     BYTE      TMOD
*SFR* 00000088H.4 DATA     BIT       TR0
*SFR* 00000088H.6 DATA     BIT       TR1
      01003D1BH   CODE     ---       TriggerVshowDisplay
*SFR* 00000098H.2 DATA     BIT       U0RB8
*SFR* 00000098H.4 DATA     BIT       U0REN
*SFR* 00000098H.7 DATA     BIT       U0SM0
*SFR* 00000098H.6 DATA     BIT       U0SM1
*SFR* 00000098H.5 DATA     BIT       U0SM2
*SFR* 00000098H.3 DATA     BIT       U0TB8
      0200004FH   XDATA    FLOAT     VBattBeforeTurbo
LX51 LINKER/LOCATER V4.66.97.0                                                        11/15/2024  17:07:44  PAGE 18


      02000020H   XDATA    CHAR      VbattCellCount
      01003F98H   CONST    ---       VendorString
      0200001EH   XDATA    BYTE      VshowFSMState
*SFR* 00000097H   DATA     BYTE      WDCON
      01003CD7H   CODE     ---       WDog_DeInit
      01003CE7H   CODE     ---       WDog_Feed
      0100000EH   CODE     ---       WDog_Init
*SFR* 000000BDH   DATA     BYTE      WUTCRH
*SFR* 000000BCH   DATA     BYTE      WUTCRL



SYMBOL TABLE OF MODULE:  .\Objects\XRLite (?C_STARTUP)

      VALUE       REP       CLASS    TYPE      SYMBOL NAME
      ====================================================
      ---         MODULE    ---      ---       ?C_STARTUP
      01000000H   PUBLIC    CODE     NEAR LAB  ?C_STARTUP
      000000E0H   SFRSYM    DATA     BYTE      ACC
      000000F0H   SFRSYM    DATA     BYTE      B
      00000083H   SFRSYM    DATA     BYTE      DPH
      00000082H   SFRSYM    DATA     BYTE      DPL
      000000A0H   SFRSYM    DATA     BYTE      PPAGE_SFR
      00000081H   SFRSYM    DATA     BYTE      SP
      00000000H   SYMBOL    NUMBER   ---       IBPSTACK
      00000100H   SYMBOL    NUMBER   ---       IBPSTACKTOP
      00000100H   SYMBOL    NUMBER   ---       IDATALEN
      01002B4EH   SYMBOL    CODE     NEAR LAB  IDATALOOP
      00000000H   SYMBOL    NUMBER   ---       PBPSTACK
      00000100H   SYMBOL    NUMBER   ---       PBPSTACKTOP
      00000000H   SYMBOL    NUMBER   ---       PDATALEN
      00000000H   SYMBOL    NUMBER   ---       PDATASTART
      00000000H   SYMBOL    NUMBER   ---       PPAGE
      00000000H   SYMBOL    NUMBER   ---       PPAGEENABLE
      01002B4BH   SYMBOL    CODE     NEAR LAB  STARTUP1
      00000000H   SYMBOL    NUMBER   ---       XBPSTACK
      00010000H   SYMBOL    NUMBER   ---       XBPSTACKTOP
      00000400H   SYMBOL    NUMBER   ---       XDATALEN
      01002B59H   SYMBOL    CODE     NEAR LAB  XDATALOOP
      00000000H   SYMBOL    NUMBER   ---       XDATASTART

      01000000H   BLOCK     CODE     NEAR LAB  LVL=0
      01000000H   LINE      CODE     ---       #126
      ---         BLOCKEND  ---      ---       LVL=0

      01002B4BH   BLOCK     CODE     NEAR LAB  LVL=0
      01002B4BH   LINE      CODE     ---       #133
      01002B4DH   LINE      CODE     ---       #134
      01002B4EH   LINE      CODE     ---       #135
      01002B4FH   LINE      CODE     ---       #136
      01002B51H   LINE      CODE     ---       #140
      01002B54H   LINE      CODE     ---       #141
      01002B56H   LINE      CODE     ---       #145
      01002B58H   LINE      CODE     ---       #147
      01002B59H   LINE      CODE     ---       #148
      01002B5AH   LINE      CODE     ---       #149
      01002B5BH   LINE      CODE     ---       #150
      01002B5DH   LINE      CODE     ---       #151
      01002B5FH   LINE      CODE     ---       #185
      01002B62H   LINE      CODE     ---       #196
      ---         BLOCKEND  ---      ---       LVL=0

      ---         MODULE    ---      ---       MAIN
      01003733H   PUBLIC    CODE     ---       Key_IRQHandler
      01002E27H   PUBLIC    CODE     ---       main
LX51 LINKER/LOCATER V4.66.97.0                                                        11/15/2024  17:07:44  PAGE 19


      000000C8H.0 SFRSYM    DATA     BIT       T2I0
      000000C3H   SFRSYM    DATA     BYTE      CCH1
      00000080H   SFRSYM    DATA     BYTE      P0
      000000C8H.1 SFRSYM    DATA     BIT       T2I1
      000000C5H   SFRSYM    DATA     BYTE      CCH2
      00000090H   SFRSYM    DATA     BYTE      P1
      000000C7H   SFRSYM    DATA     BYTE      CCH3
      000000ACH   SFRSYM    DATA     BYTE      P0EXTIE
      000000A0H   SFRSYM    DATA     BYTE      P2
      000000B4H   SFRSYM    DATA     BYTE      P0EXTIF
      000000B0H   SFRSYM    DATA     BYTE      P3
      000000ADH   SFRSYM    DATA     BYTE      P1EXTIE
      000000D0H.6 SFRSYM    DATA     BIT       AC
      000000FFH   SFRSYM    DATA     BYTE      MCTRL
      000000C2H   SFRSYM    DATA     BYTE      CCL1
      000000B5H   SFRSYM    DATA     BYTE      P1EXTIF
      000000AEH   SFRSYM    DATA     BYTE      P2EXTIE
      000000C4H   SFRSYM    DATA     BYTE      CCL2
      000000B6H   SFRSYM    DATA     BYTE      P2EXTIF
      000000AFH   SFRSYM    DATA     BYTE      P3EXTIE
      000000A8H.7 SFRSYM    DATA     BIT       EA
      000000C6H   SFRSYM    DATA     BYTE      CCL3
      000000B7H   SFRSYM    DATA     BYTE      P3EXTIF
      000000AAH   SFRSYM    DATA     BYTE      EIE2
      000000B2H   SFRSYM    DATA     BYTE      EIF2
      000000C8H.3 SFRSYM    DATA     BIT       T2R0
      000000C8H.4 SFRSYM    DATA     BIT       T2R1
      00000083H   SFRSYM    DATA     BYTE      DPH0
      000000A8H   SFRSYM    DATA     BYTE      IE
      00000085H   SFRSYM    DATA     BYTE      DPH1
      000000B9H   SFRSYM    DATA     BYTE      EIP1
      000000BAH   SFRSYM    DATA     BYTE      EIP2
      00000082H   SFRSYM    DATA     BYTE      DPL0
      00000084H   SFRSYM    DATA     BYTE      DPL1
      000000C8H.6 SFRSYM    DATA     BIT       I3FR
      000000CFH   SFRSYM    DATA     BYTE      T2IE
      00000096H   SFRSYM    DATA     BYTE      TA
      000000C9H   SFRSYM    DATA     BYTE      T2IF
      000000C8H.2 SFRSYM    DATA     BIT       T2CM
      000000DFH   SFRSYM    DATA     BYTE      ADCON0
      000000DEH   SFRSYM    DATA     BYTE      ADCON1
      000000E9H   SFRSYM    DATA     BYTE      ADCON2
      000000B8H   SFRSYM    DATA     BYTE      IP
      000000CEH   SFRSYM    DATA     BYTE      CCEN
      000000D0H.7 SFRSYM    DATA     BIT       CY
      000000D2H   SFRSYM    DATA     BYTE      T34MOD
      00000093H   SFRSYM    DATA     BYTE      DPX0
      00000095H   SFRSYM    DATA     BYTE      DPX1
      000000F4H   SFRSYM    DATA     BYTE      I2CMSA
      000000F5H   SFRSYM    DATA     BYTE      I2CMCR
      00000081H   SFRSYM    DATA     BYTE      SP
      000000D0H.2 SFRSYM    DATA     BIT       OV
      000000F2H   SFRSYM    DATA     BYTE      I2CSCR
      000000C8H.7 SFRSYM    DATA     BIT       T2PS
      000000D1H   SFRSYM    DATA     BYTE      ADCMPC
      000000CBH   SFRSYM    DATA     BYTE      RLDH
      000000D5H   SFRSYM    DATA     BYTE      ADCMPH
      000000CAH   SFRSYM    DATA     BYTE      RLDL
      00000080H.0 SFRSYM    DATA     BIT       P00
      00000090H.0 SFRSYM    DATA     BIT       P10
      00000080H.1 SFRSYM    DATA     BIT       P01
      000000F7H   SFRSYM    DATA     BYTE      I2CMTP
      00000099H   SFRSYM    DATA     BYTE      SBUF
      00000087H   SFRSYM    DATA     BYTE      PCON
      000000A0H.0 SFRSYM    DATA     BIT       P20
LX51 LINKER/LOCATER V4.66.97.0                                                        11/15/2024  17:07:44  PAGE 20


      00000090H.1 SFRSYM    DATA     BIT       P11
      00000080H.2 SFRSYM    DATA     BIT       P02
      000000F5H   SFRSYM    DATA     BYTE      I2CMSR
      000000B0H.0 SFRSYM    DATA     BIT       P30
      000000A0H.1 SFRSYM    DATA     BIT       P21
      00000090H.2 SFRSYM    DATA     BIT       P12
      00000080H.3 SFRSYM    DATA     BIT       P03
      000000D4H   SFRSYM    DATA     BYTE      ADCMPL
      000000B0H.1 SFRSYM    DATA     BIT       P31
      000000A0H.2 SFRSYM    DATA     BIT       P22
      00000090H.3 SFRSYM    DATA     BIT       P13
      00000080H.4 SFRSYM    DATA     BIT       P04
      000000B0H.2 SFRSYM    DATA     BIT       P32
      000000A0H.3 SFRSYM    DATA     BIT       P23
      00000090H.4 SFRSYM    DATA     BIT       P14
      00000080H.5 SFRSYM    DATA     BIT       P05
      00000089H   SFRSYM    DATA     BYTE      TMOD
      00000088H   SFRSYM    DATA     BYTE      TCON
      000000B0H.3 SFRSYM    DATA     BIT       P33
      000000A0H.4 SFRSYM    DATA     BIT       P24
      00000090H.5 SFRSYM    DATA     BIT       P15
      00000080H.6 SFRSYM    DATA     BIT       P06
      000000B0H.4 SFRSYM    DATA     BIT       P34
      000000A0H.5 SFRSYM    DATA     BIT       P25
      00000090H.6 SFRSYM    DATA     BIT       P16
      00000080H.7 SFRSYM    DATA     BIT       P07
      000000B0H.5 SFRSYM    DATA     BIT       P35
      000000A0H.6 SFRSYM    DATA     BIT       P26
      00000090H.7 SFRSYM    DATA     BIT       P17
      000000F2H   SFRSYM    DATA     BYTE      I2CSSR
      000000B0H.6 SFRSYM    DATA     BIT       P36
      000000A0H.7 SFRSYM    DATA     BIT       P27
      000000ECH   SFRSYM    DATA     BYTE      SPCR
      000000DDH   SFRSYM    DATA     BYTE      ADRESH
      000000B0H.7 SFRSYM    DATA     BIT       P37
      000000EEH   SFRSYM    DATA     BYTE      SPDR
      000000EFH   SFRSYM    DATA     BYTE      SSCR
      000000D3H   SFRSYM    DATA     BYTE      ADDLYL
      000000DCH   SFRSYM    DATA     BYTE      ADRESL
      00000088H.1 SFRSYM    DATA     BIT       IE0
      00000088H.3 SFRSYM    DATA     BIT       IE1
      0000008FH   SFRSYM    DATA     BYTE      CLKDIV
      000000F0H   SFRSYM    DATA     BYTE      B
      00000091H   SFRSYM    DATA     BYTE      FUNCCR
      0000009AH   SFRSYM    DATA     BYTE      P0TRIS
      000000A1H   SFRSYM    DATA     BYTE      P1TRIS
      000000A2H   SFRSYM    DATA     BYTE      P2TRIS
      000000E0H   SFRSYM    DATA     BYTE      ACC
      000000A3H   SFRSYM    DATA     BYTE      P3TRIS
      000000A8H.4 SFRSYM    DATA     BIT       ES0
      000000A8H.6 SFRSYM    DATA     BIT       ES1
      000000A8H.1 SFRSYM    DATA     BIT       ET0
      000000EDH   SFRSYM    DATA     BYTE      SPSR
      000000A8H.3 SFRSYM    DATA     BIT       ET1
      00000088H.5 SFRSYM    DATA     BIT       TF0
      000000A8H.5 SFRSYM    DATA     BIT       ET2
      00000098H.0 SFRSYM    DATA     BIT       RI0
      00000088H.7 SFRSYM    DATA     BIT       TF1
      0000008CH   SFRSYM    DATA     BYTE      TH0
      000000A8H.0 SFRSYM    DATA     BIT       EX0
      00000098H.1 SFRSYM    DATA     BIT       TI0
      00000088H.0 SFRSYM    DATA     BIT       IT0
      0000008DH   SFRSYM    DATA     BYTE      TH1
      000000A8H.2 SFRSYM    DATA     BIT       EX1
      00000088H.2 SFRSYM    DATA     BIT       IT1
LX51 LINKER/LOCATER V4.66.97.0                                                        11/15/2024  17:07:44  PAGE 21


      000000CDH   SFRSYM    DATA     BYTE      TH2
      000000D0H.0 SFRSYM    DATA     BIT       P
      000000DBH   SFRSYM    DATA     BYTE      TH3
      000000E3H   SFRSYM    DATA     BYTE      TH4
      0000008AH   SFRSYM    DATA     BYTE      TL0
      0000008BH   SFRSYM    DATA     BYTE      TL1
      00000098H.2 SFRSYM    DATA     BIT       U0RB8
      000000CCH   SFRSYM    DATA     BYTE      TL2
      000000B8H.4 SFRSYM    DATA     BIT       PS0
      000000DAH   SFRSYM    DATA     BYTE      TL3
      000000BFH   SFRSYM    DATA     BYTE      BUZCON
      000000B8H.6 SFRSYM    DATA     BIT       PS1
      000000B8H.1 SFRSYM    DATA     BIT       PT0
      00000098H.3 SFRSYM    DATA     BIT       U0TB8
      000000E2H   SFRSYM    DATA     BYTE      TL4
      000000D0H.3 SFRSYM    DATA     BIT       RS0
      000000B8H.3 SFRSYM    DATA     BIT       PT1
      000000D0H.4 SFRSYM    DATA     BIT       RS1
      000000B8H.5 SFRSYM    DATA     BIT       PT2
      00000098H.7 SFRSYM    DATA     BIT       U0SM0
      00000088H.4 SFRSYM    DATA     BIT       TR0
      000000BEH   SFRSYM    DATA     BYTE      BUZDIV
      00000098H.6 SFRSYM    DATA     BIT       U0SM1
      00000088H.6 SFRSYM    DATA     BIT       TR1
      000000B8H.0 SFRSYM    DATA     BIT       PX0
      00000098H.5 SFRSYM    DATA     BIT       U0SM2
      000000B8H.2 SFRSYM    DATA     BIT       PX1
      000000BDH   SFRSYM    DATA     BYTE      WUTCRH
      00000099H   SFRSYM    DATA     BYTE      SBUF0
      000000EBH   SFRSYM    DATA     BYTE      SBUF1
      000000BCH   SFRSYM    DATA     BYTE      WUTCRL
      00000098H   SFRSYM    DATA     BYTE      SCON0
      000000EAH   SFRSYM    DATA     BYTE      SCON1
      000000C8H   SFRSYM    DATA     BYTE      T2CON
      00000086H   SFRSYM    DATA     BYTE      DPS
      000000FEH   SFRSYM    DATA     BYTE      MDATA
      000000F6H   SFRSYM    DATA     BYTE      I2CMBUF
      000000F1H   SFRSYM    DATA     BYTE      I2CSADR
      00000098H.4 SFRSYM    DATA     BIT       U0REN
      000000C8H.5 SFRSYM    DATA     BIT       CAPES
      000000FDH   SFRSYM    DATA     BYTE      MADRH
      0000008EH   SFRSYM    DATA     BYTE      CKCON
      000000F3H   SFRSYM    DATA     BYTE      I2CSBUF
      000000FCH   SFRSYM    DATA     BYTE      MADRL
      000000D0H.5 SFRSYM    DATA     BIT       F0
      000000FBH   SFRSYM    DATA     BYTE      MLOCK
      000000D0H   SFRSYM    DATA     BYTE      PSW
      00000097H   SFRSYM    DATA     BYTE      WDCON

      01002E27H   BLOCK     CODE     ---       LVL=0
      01002E27H   LINE      CODE     ---       #23
      01002E27H   LINE      CODE     ---       #24
      01002E27H   LINE      CODE     ---       #26
      01002E2AH   LINE      CODE     ---       #27
      01002E2FH   LINE      CODE     ---       #29
      01002E32H   LINE      CODE     ---       #30
      01002E35H   LINE      CODE     ---       #31
      01002E38H   LINE      CODE     ---       #32
      01002E3BH   LINE      CODE     ---       #33
      01002E3EH   LINE      CODE     ---       #34
      01002E41H   LINE      CODE     ---       #35
      01002E44H   LINE      CODE     ---       #36
      01002E47H   LINE      CODE     ---       #37
      01002E4AH   LINE      CODE     ---       #38
      01002E4DH   LINE      CODE     ---       #39
LX51 LINKER/LOCATER V4.66.97.0                                                        11/15/2024  17:07:44  PAGE 22


      01002E50H   LINE      CODE     ---       #40
      01002E53H   LINE      CODE     ---       #41
      01002E56H   LINE      CODE     ---       #42
      01002E5BH   LINE      CODE     ---       #44
      01002E5BH   LINE      CODE     ---       #45
      01002E5BH   LINE      CODE     ---       #47
      01002E5EH   LINE      CODE     ---       #48
      01002E61H   LINE      CODE     ---       #49
      01002E64H   LINE      CODE     ---       #50
      01002E67H   LINE      CODE     ---       #51
      01002E6AH   LINE      CODE     ---       #52
      01002E6DH   LINE      CODE     ---       #53
      01002E70H   LINE      CODE     ---       #54
      01002E73H   LINE      CODE     ---       #56
      01002E76H   LINE      CODE     ---       #57
      01002E78H   LINE      CODE     ---       #58
      01002E7BH   LINE      CODE     ---       #59
      01002E7EH   LINE      CODE     ---       #60
      01002E81H   LINE      CODE     ---       #61
      01002E84H   LINE      CODE     ---       #62
      01002E87H   LINE      CODE     ---       #63
      01002E8AH   LINE      CODE     ---       #64
      01002E8DH   LINE      CODE     ---       #65
      01002E90H   LINE      CODE     ---       #66
      01002EA7H   LINE      CODE     ---       #67
      01002EAAH   LINE      CODE     ---       #69
      ---         BLOCKEND  ---      ---       LVL=0

      01003733H   BLOCK     CODE     ---       LVL=0
      01003733H   LINE      CODE     ---       #73
      01003750H   LINE      CODE     ---       #76
      01003753H   LINE      CODE     ---       #77
      01003756H   LINE      CODE     ---       #78
      ---         BLOCKEND  ---      ---       LVL=0

      ---         MODULE    ---      ---       GPIO
      0100311DH   PUBLIC    CODE     ---       _GPIO_SetMUXMode
      01002BE5H   PUBLIC    CODE     ---       _GPIO_GetExtIntMode
      010034ADH   PUBLIC    CODE     ---       _GPIO_SetExtIntMode
      00000021H.0 PUBLIC    BIT      BIT       ?_GPIO_WriteBit?BIT
      01002556H   PUBLIC    CODE     ---       _GPIO_WriteBit
      01003B0DH   PUBLIC    CODE     ---       _GPIO_DisableInt
      0100391AH   PUBLIC    CODE     ---       _GPIO_CheckIfIntEnabled
      01003BD0H   PUBLIC    CODE     ---       _GPIO_EnableInt
      01000C7CH   PUBLIC    CODE     ---       _GPIO_ConfigGPIOMode
      000000C8H.0 SFRSYM    DATA     BIT       T2I0
      000000C3H   SFRSYM    DATA     BYTE      CCH1
      00000080H   SFRSYM    DATA     BYTE      P0
      000000C8H.1 SFRSYM    DATA     BIT       T2I1
      000000C5H   SFRSYM    DATA     BYTE      CCH2
      00000090H   SFRSYM    DATA     BYTE      P1
      000000C7H   SFRSYM    DATA     BYTE      CCH3
      000000ACH   SFRSYM    DATA     BYTE      P0EXTIE
      000000A0H   SFRSYM    DATA     BYTE      P2
      000000B4H   SFRSYM    DATA     BYTE      P0EXTIF
      000000B0H   SFRSYM    DATA     BYTE      P3
      000000ADH   SFRSYM    DATA     BYTE      P1EXTIE
      000000D0H.6 SFRSYM    DATA     BIT       AC
      000000FFH   SFRSYM    DATA     BYTE      MCTRL
      000000C2H   SFRSYM    DATA     BYTE      CCL1
      000000B5H   SFRSYM    DATA     BYTE      P1EXTIF
      000000AEH   SFRSYM    DATA     BYTE      P2EXTIE
      000000C4H   SFRSYM    DATA     BYTE      CCL2
      000000B6H   SFRSYM    DATA     BYTE      P2EXTIF
      000000AFH   SFRSYM    DATA     BYTE      P3EXTIE
LX51 LINKER/LOCATER V4.66.97.0                                                        11/15/2024  17:07:44  PAGE 23


      000000A8H.7 SFRSYM    DATA     BIT       EA
      000000C6H   SFRSYM    DATA     BYTE      CCL3
      000000B7H   SFRSYM    DATA     BYTE      P3EXTIF
      000000AAH   SFRSYM    DATA     BYTE      EIE2
      000000B2H   SFRSYM    DATA     BYTE      EIF2
      000000C8H.3 SFRSYM    DATA     BIT       T2R0
      000000C8H.4 SFRSYM    DATA     BIT       T2R1
      00000083H   SFRSYM    DATA     BYTE      DPH0
      000000A8H   SFRSYM    DATA     BYTE      IE
      00000085H   SFRSYM    DATA     BYTE      DPH1
      000000B9H   SFRSYM    DATA     BYTE      EIP1
      000000BAH   SFRSYM    DATA     BYTE      EIP2
      00000082H   SFRSYM    DATA     BYTE      DPL0
      00000084H   SFRSYM    DATA     BYTE      DPL1
      000000C8H.6 SFRSYM    DATA     BIT       I3FR
      000000CFH   SFRSYM    DATA     BYTE      T2IE
      00000096H   SFRSYM    DATA     BYTE      TA
      000000C9H   SFRSYM    DATA     BYTE      T2IF
      000000C8H.2 SFRSYM    DATA     BIT       T2CM
      000000DFH   SFRSYM    DATA     BYTE      ADCON0
      000000DEH   SFRSYM    DATA     BYTE      ADCON1
      000000E9H   SFRSYM    DATA     BYTE      ADCON2
      000000B8H   SFRSYM    DATA     BYTE      IP
      000000CEH   SFRSYM    DATA     BYTE      CCEN
      000000D0H.7 SFRSYM    DATA     BIT       CY
      000000D2H   SFRSYM    DATA     BYTE      T34MOD
      00000093H   SFRSYM    DATA     BYTE      DPX0
      00000095H   SFRSYM    DATA     BYTE      DPX1
      000000F4H   SFRSYM    DATA     BYTE      I2CMSA
      000000F5H   SFRSYM    DATA     BYTE      I2CMCR
      00000081H   SFRSYM    DATA     BYTE      SP
      000000D0H.2 SFRSYM    DATA     BIT       OV
      000000F2H   SFRSYM    DATA     BYTE      I2CSCR
      000000C8H.7 SFRSYM    DATA     BIT       T2PS
      000000D1H   SFRSYM    DATA     BYTE      ADCMPC
      000000CBH   SFRSYM    DATA     BYTE      RLDH
      000000D5H   SFRSYM    DATA     BYTE      ADCMPH
      000000CAH   SFRSYM    DATA     BYTE      RLDL
      00000080H.0 SFRSYM    DATA     BIT       P00
      00000090H.0 SFRSYM    DATA     BIT       P10
      00000080H.1 SFRSYM    DATA     BIT       P01
      000000F7H   SFRSYM    DATA     BYTE      I2CMTP
      00000099H   SFRSYM    DATA     BYTE      SBUF
      00000087H   SFRSYM    DATA     BYTE      PCON
      000000A0H.0 SFRSYM    DATA     BIT       P20
      00000090H.1 SFRSYM    DATA     BIT       P11
      00000080H.2 SFRSYM    DATA     BIT       P02
      000000F5H   SFRSYM    DATA     BYTE      I2CMSR
      000000B0H.0 SFRSYM    DATA     BIT       P30
      000000A0H.1 SFRSYM    DATA     BIT       P21
      00000090H.2 SFRSYM    DATA     BIT       P12
      00000080H.3 SFRSYM    DATA     BIT       P03
      000000D4H   SFRSYM    DATA     BYTE      ADCMPL
      000000B0H.1 SFRSYM    DATA     BIT       P31
      000000A0H.2 SFRSYM    DATA     BIT       P22
      00000090H.3 SFRSYM    DATA     BIT       P13
      00000080H.4 SFRSYM    DATA     BIT       P04
      000000B0H.2 SFRSYM    DATA     BIT       P32
      000000A0H.3 SFRSYM    DATA     BIT       P23
      00000090H.4 SFRSYM    DATA     BIT       P14
      00000080H.5 SFRSYM    DATA     BIT       P05
      00000089H   SFRSYM    DATA     BYTE      TMOD
      00000088H   SFRSYM    DATA     BYTE      TCON
      000000B0H.3 SFRSYM    DATA     BIT       P33
      000000A0H.4 SFRSYM    DATA     BIT       P24
LX51 LINKER/LOCATER V4.66.97.0                                                        11/15/2024  17:07:44  PAGE 24


      00000090H.5 SFRSYM    DATA     BIT       P15
      00000080H.6 SFRSYM    DATA     BIT       P06
      000000B0H.4 SFRSYM    DATA     BIT       P34
      000000A0H.5 SFRSYM    DATA     BIT       P25
      00000090H.6 SFRSYM    DATA     BIT       P16
      00000080H.7 SFRSYM    DATA     BIT       P07
      000000B0H.5 SFRSYM    DATA     BIT       P35
      000000A0H.6 SFRSYM    DATA     BIT       P26
      00000090H.7 SFRSYM    DATA     BIT       P17
      000000F2H   SFRSYM    DATA     BYTE      I2CSSR
      000000B0H.6 SFRSYM    DATA     BIT       P36
      000000A0H.7 SFRSYM    DATA     BIT       P27
      000000ECH   SFRSYM    DATA     BYTE      SPCR
      000000DDH   SFRSYM    DATA     BYTE      ADRESH
      000000B0H.7 SFRSYM    DATA     BIT       P37
      000000EEH   SFRSYM    DATA     BYTE      SPDR
      000000EFH   SFRSYM    DATA     BYTE      SSCR
      000000D3H   SFRSYM    DATA     BYTE      ADDLYL
      000000DCH   SFRSYM    DATA     BYTE      ADRESL
      00000088H.1 SFRSYM    DATA     BIT       IE0
      00000088H.3 SFRSYM    DATA     BIT       IE1
      0000008FH   SFRSYM    DATA     BYTE      CLKDIV
      000000F0H   SFRSYM    DATA     BYTE      B
      00000091H   SFRSYM    DATA     BYTE      FUNCCR
      0000009AH   SFRSYM    DATA     BYTE      P0TRIS
      000000A1H   SFRSYM    DATA     BYTE      P1TRIS
      000000A2H   SFRSYM    DATA     BYTE      P2TRIS
      000000E0H   SFRSYM    DATA     BYTE      ACC
      000000A3H   SFRSYM    DATA     BYTE      P3TRIS
      000000A8H.4 SFRSYM    DATA     BIT       ES0
      000000A8H.6 SFRSYM    DATA     BIT       ES1
      000000A8H.1 SFRSYM    DATA     BIT       ET0
      000000EDH   SFRSYM    DATA     BYTE      SPSR
      000000A8H.3 SFRSYM    DATA     BIT       ET1
      00000088H.5 SFRSYM    DATA     BIT       TF0
      000000A8H.5 SFRSYM    DATA     BIT       ET2
      00000098H.0 SFRSYM    DATA     BIT       RI0
      00000088H.7 SFRSYM    DATA     BIT       TF1
      0000008CH   SFRSYM    DATA     BYTE      TH0
      000000A8H.0 SFRSYM    DATA     BIT       EX0
      00000098H.1 SFRSYM    DATA     BIT       TI0
      00000088H.0 SFRSYM    DATA     BIT       IT0
      0000008DH   SFRSYM    DATA     BYTE      TH1
      000000A8H.2 SFRSYM    DATA     BIT       EX1
      00000088H.2 SFRSYM    DATA     BIT       IT1
      000000CDH   SFRSYM    DATA     BYTE      TH2
      000000D0H.0 SFRSYM    DATA     BIT       P
      000000DBH   SFRSYM    DATA     BYTE      TH3
      000000E3H   SFRSYM    DATA     BYTE      TH4
      0000008AH   SFRSYM    DATA     BYTE      TL0
      0000008BH   SFRSYM    DATA     BYTE      TL1
      00000098H.2 SFRSYM    DATA     BIT       U0RB8
      000000CCH   SFRSYM    DATA     BYTE      TL2
      000000B8H.4 SFRSYM    DATA     BIT       PS0
      000000DAH   SFRSYM    DATA     BYTE      TL3
      000000BFH   SFRSYM    DATA     BYTE      BUZCON
      000000B8H.6 SFRSYM    DATA     BIT       PS1
      000000B8H.1 SFRSYM    DATA     BIT       PT0
      00000098H.3 SFRSYM    DATA     BIT       U0TB8
      000000E2H   SFRSYM    DATA     BYTE      TL4
      000000D0H.3 SFRSYM    DATA     BIT       RS0
      000000B8H.3 SFRSYM    DATA     BIT       PT1
      000000D0H.4 SFRSYM    DATA     BIT       RS1
      000000B8H.5 SFRSYM    DATA     BIT       PT2
      00000098H.7 SFRSYM    DATA     BIT       U0SM0
LX51 LINKER/LOCATER V4.66.97.0                                                        11/15/2024  17:07:44  PAGE 25


      00000088H.4 SFRSYM    DATA     BIT       TR0
      000000BEH   SFRSYM    DATA     BYTE      BUZDIV
      00000098H.6 SFRSYM    DATA     BIT       U0SM1
      00000088H.6 SFRSYM    DATA     BIT       TR1
      000000B8H.0 SFRSYM    DATA     BIT       PX0
      00000098H.5 SFRSYM    DATA     BIT       U0SM2
      000000B8H.2 SFRSYM    DATA     BIT       PX1
      000000BDH   SFRSYM    DATA     BYTE      WUTCRH
      00000099H   SFRSYM    DATA     BYTE      SBUF0
      000000EBH   SFRSYM    DATA     BYTE      SBUF1
      000000BCH   SFRSYM    DATA     BYTE      WUTCRL
      00000098H   SFRSYM    DATA     BYTE      SCON0
      000000EAH   SFRSYM    DATA     BYTE      SCON1
      000000C8H   SFRSYM    DATA     BYTE      T2CON
      00000086H   SFRSYM    DATA     BYTE      DPS
      000000FEH   SFRSYM    DATA     BYTE      MDATA
      000000F6H   SFRSYM    DATA     BYTE      I2CMBUF
      000000F1H   SFRSYM    DATA     BYTE      I2CSADR
      00000098H.4 SFRSYM    DATA     BIT       U0REN
      000000C8H.5 SFRSYM    DATA     BIT       CAPES
      000000FDH   SFRSYM    DATA     BYTE      MADRH
      0000008EH   SFRSYM    DATA     BYTE      CKCON
      000000F3H   SFRSYM    DATA     BYTE      I2CSBUF
      000000FCH   SFRSYM    DATA     BYTE      MADRL
      000000D0H.5 SFRSYM    DATA     BIT       F0
      000000FBH   SFRSYM    DATA     BYTE      MLOCK
      000000D0H   SFRSYM    DATA     BYTE      PSW
      00000097H   SFRSYM    DATA     BYTE      WDCON

      010028C9H   BLOCK     CODE     ---       LVL=0
      ---         BLOCKEND  ---      ---       LVL=0

      01000C7CH   BLOCK     CODE     ---       LVL=0
      00000028H   SYMBOL    DATA     BYTE      Port
      00000005H   SYMBOL    DATA     BYTE      PinMSK
      00000001H   SYMBOL    DATA     ---       Cfg
      01000C7EH   BLOCK     CODE     NEAR LAB  LVL=1
      00000029H   SYMBOL    DATA     INT       TRISMSK
      0000002BH   SYMBOL    DATA     INT       ODMSK
      0000002DH   SYMBOL    DATA     INT       UPMSK
      0000002FH   SYMBOL    DATA     INT       RDMSK
      00000006H   SYMBOL    DATA     INT       DRMSK
      00000031H   SYMBOL    DATA     INT       SRMSK
      ---         BLOCKEND  ---      ---       LVL=1
      01000C7CH   LINE      CODE     ---       #77
      01000C7EH   LINE      CODE     ---       #78
      01000C7EH   LINE      CODE     ---       #82
      01000C92H   LINE      CODE     ---       #83
      01000C92H   LINE      CODE     ---       #84
      01000C92H   LINE      CODE     ---       #85
      01000C92H   LINE      CODE     ---       #86
      01000C92H   LINE      CODE     ---       #87
      01000C95H   LINE      CODE     ---       #88
      01000C98H   LINE      CODE     ---       #89
      01000C9AH   LINE      CODE     ---       #90
      01000C9AH   LINE      CODE     ---       #91
      01000C9AH   LINE      CODE     ---       #92
      01000C9AH   LINE      CODE     ---       #93
      01000CA6H   LINE      CODE     ---       #94
      01000CAEH   LINE      CODE     ---       #95
      01000CB0H   LINE      CODE     ---       #96
      01000CB0H   LINE      CODE     ---       #97
      01000CB0H   LINE      CODE     ---       #98
      01000CB0H   LINE      CODE     ---       #99
      01000CBCH   LINE      CODE     ---       #100
LX51 LINKER/LOCATER V4.66.97.0                                                        11/15/2024  17:07:44  PAGE 26


      01000CC6H   LINE      CODE     ---       #101
      01000CC8H   LINE      CODE     ---       #102
      01000CC8H   LINE      CODE     ---       #103
      01000CC8H   LINE      CODE     ---       #104
      01000CC9H   LINE      CODE     ---       #105
      01000CCFH   LINE      CODE     ---       #106
      01000CD9H   LINE      CODE     ---       #107
      01000CEEH   LINE      CODE     ---       #108
      01000CEEH   LINE      CODE     ---       #109
      01000D06H   LINE      CODE     ---       #110
      01000D1AH   LINE      CODE     ---       #112
      01000D35H   LINE      CODE     ---       #113
      01000D35H   LINE      CODE     ---       #114
      01000D35H   LINE      CODE     ---       #115
      01000D48H   LINE      CODE     ---       #116
      01000D60H   LINE      CODE     ---       #117
      01000D75H   LINE      CODE     ---       #118
      01000D8AH   LINE      CODE     ---       #119
      01000DA0H   LINE      CODE     ---       #120
      01000DB7H   LINE      CODE     ---       #121
      01000DB8H   LINE      CODE     ---       #122
      01000DB8H   LINE      CODE     ---       #123
      01000DCBH   LINE      CODE     ---       #124
      01000DE3H   LINE      CODE     ---       #125
      01000DF8H   LINE      CODE     ---       #126
      01000E0DH   LINE      CODE     ---       #127
      01000E23H   LINE      CODE     ---       #128
      01000E3AH   LINE      CODE     ---       #129
      01000E3BH   LINE      CODE     ---       #130
      01000E3BH   LINE      CODE     ---       #131
      01000E4EH   LINE      CODE     ---       #132
      01000E66H   LINE      CODE     ---       #133
      01000E7BH   LINE      CODE     ---       #134
      01000E90H   LINE      CODE     ---       #135
      01000EA6H   LINE      CODE     ---       #136
      01000EBDH   LINE      CODE     ---       #137
      01000EBEH   LINE      CODE     ---       #138
      01000EBEH   LINE      CODE     ---       #139
      01000ED1H   LINE      CODE     ---       #140
      01000EE9H   LINE      CODE     ---       #141
      01000EFEH   LINE      CODE     ---       #142
      01000F13H   LINE      CODE     ---       #143
      01000F2CH   LINE      CODE     ---       #144
      01000F48H   LINE      CODE     ---       #145
      01000F48H   LINE      CODE     ---       #146
      01000F48H   LINE      CODE     ---       #147
      ---         BLOCKEND  ---      ---       LVL=0

      01003BD0H   BLOCK     CODE     ---       LVL=0
      00000007H   SYMBOL    DATA     BYTE      Port
      00000005H   SYMBOL    DATA     BYTE      PinMSK
      01003BD0H   LINE      CODE     ---       #161
      01003BD0H   LINE      CODE     ---       #162
      01003BD0H   LINE      CODE     ---       #163
      01003BDEH   LINE      CODE     ---       #164
      01003BDEH   LINE      CODE     ---       #165
      01003BDEH   LINE      CODE     ---       #166
      01003BE1H   LINE      CODE     ---       #167
      01003BE2H   LINE      CODE     ---       #168
      01003BE2H   LINE      CODE     ---       #169
      01003BE5H   LINE      CODE     ---       #170
      01003BE6H   LINE      CODE     ---       #171
      01003BE6H   LINE      CODE     ---       #172
      01003BE9H   LINE      CODE     ---       #173
      01003BEAH   LINE      CODE     ---       #174
LX51 LINKER/LOCATER V4.66.97.0                                                        11/15/2024  17:07:44  PAGE 27


      01003BEAH   LINE      CODE     ---       #175
      01003BEDH   LINE      CODE     ---       #176
      01003BEDH   LINE      CODE     ---       #177
      01003BEDH   LINE      CODE     ---       #178
      01003BEDH   LINE      CODE     ---       #179
      01003BEDH   LINE      CODE     ---       #180
      ---         BLOCKEND  ---      ---       LVL=0

      0100391AH   BLOCK     CODE     ---       LVL=0
      00000007H   SYMBOL    DATA     BYTE      Port
      00000005H   SYMBOL    DATA     BYTE      PinMSK
      0100391AH   LINE      CODE     ---       #193
      0100391AH   LINE      CODE     ---       #194
      0100391AH   LINE      CODE     ---       #195
      01003928H   LINE      CODE     ---       #196
      01003928H   LINE      CODE     ---       #197
      01003928H   LINE      CODE     ---       #198
      0100392FH   LINE      CODE     ---       #199
      0100392FH   LINE      CODE     ---       #200
      0100392FH   LINE      CODE     ---       #201
      01003936H   LINE      CODE     ---       #202
      01003936H   LINE      CODE     ---       #203
      01003936H   LINE      CODE     ---       #204
      0100393DH   LINE      CODE     ---       #205
      0100393DH   LINE      CODE     ---       #206
      0100393DH   LINE      CODE     ---       #207
      01003944H   LINE      CODE     ---       #208
      01003944H   LINE      CODE     ---       #209
      01003944H   LINE      CODE     ---       #211
      01003945H   LINE      CODE     ---       #212
      ---         BLOCKEND  ---      ---       LVL=0

      01003B0DH   BLOCK     CODE     ---       LVL=0
      00000007H   SYMBOL    DATA     BYTE      Port
      00000005H   SYMBOL    DATA     BYTE      PinMSK
      01003B0DH   LINE      CODE     ---       #225
      01003B0DH   LINE      CODE     ---       #226
      01003B0DH   LINE      CODE     ---       #227
      01003B1BH   LINE      CODE     ---       #228
      01003B1BH   LINE      CODE     ---       #229
      01003B1BH   LINE      CODE     ---       #230
      01003B1FH   LINE      CODE     ---       #231
      01003B20H   LINE      CODE     ---       #232
      01003B20H   LINE      CODE     ---       #233
      01003B24H   LINE      CODE     ---       #234
      01003B25H   LINE      CODE     ---       #235
      01003B25H   LINE      CODE     ---       #236
      01003B29H   LINE      CODE     ---       #237
      01003B2AH   LINE      CODE     ---       #238
      01003B2AH   LINE      CODE     ---       #239
      01003B2EH   LINE      CODE     ---       #240
      01003B2EH   LINE      CODE     ---       #241
      01003B2EH   LINE      CODE     ---       #242
      01003B2EH   LINE      CODE     ---       #243
      01003B2EH   LINE      CODE     ---       #244
      ---         BLOCKEND  ---      ---       LVL=0

      01002556H   BLOCK     CODE     ---       LVL=0
      00000007H   SYMBOL    DATA     BYTE      Port
      00000005H   SYMBOL    DATA     BYTE      PinNum
      00000021H.0 SYMBOL    BIT      BIT       Val
      01002556H   LINE      CODE     ---       #259
      01002556H   LINE      CODE     ---       #260
      01002556H   LINE      CODE     ---       #261
      0100256AH   LINE      CODE     ---       #262
LX51 LINKER/LOCATER V4.66.97.0                                                        11/15/2024  17:07:44  PAGE 28


      0100256AH   LINE      CODE     ---       #263
      0100256AH   LINE      CODE     ---       #264
      01002572H   LINE      CODE     ---       #265
      01002583H   LINE      CODE     ---       #266
      01002591H   LINE      CODE     ---       #267
      01002592H   LINE      CODE     ---       #268
      01002592H   LINE      CODE     ---       #269
      0100259CH   LINE      CODE     ---       #270
      010025ADH   LINE      CODE     ---       #271
      010025BBH   LINE      CODE     ---       #272
      010025BCH   LINE      CODE     ---       #273
      010025BCH   LINE      CODE     ---       #274
      010025C6H   LINE      CODE     ---       #275
      010025D7H   LINE      CODE     ---       #276
      010025E5H   LINE      CODE     ---       #277
      010025E6H   LINE      CODE     ---       #278
      010025E6H   LINE      CODE     ---       #279
      010025ECH   LINE      CODE     ---       #280
      010025FDH   LINE      CODE     ---       #281
      0100260DH   LINE      CODE     ---       #282
      0100260DH   LINE      CODE     ---       #283
      0100260DH   LINE      CODE     ---       #284
      0100260DH   LINE      CODE     ---       #285
      ---         BLOCKEND  ---      ---       LVL=0

      010034ADH   BLOCK     CODE     ---       LVL=0
      00000007H   SYMBOL    DATA     BYTE      Port
      00000005H   SYMBOL    DATA     BYTE      PinNum
      00000003H   SYMBOL    DATA     BYTE      Mode
      010034ADH   BLOCK     CODE     NEAR LAB  LVL=1
      00000026H   SYMBOL    DATA     ---       PCFG
      ---         BLOCKEND  ---      ---       LVL=1
      010034ADH   LINE      CODE     ---       #302
      010034ADH   LINE      CODE     ---       #303
      010034ADH   LINE      CODE     ---       #306
      010034B4H   LINE      CODE     ---       #308
      010034C2H   LINE      CODE     ---       #309
      010034C2H   LINE      CODE     ---       #310
      010034C2H   LINE      CODE     ---       #311
      010034C7H   LINE      CODE     ---       #312
      010034CAH   LINE      CODE     ---       #313
      010034CCH   LINE      CODE     ---       #314
      010034CCH   LINE      CODE     ---       #315
      010034D6H   LINE      CODE     ---       #316
      010034D9H   LINE      CODE     ---       #317
      010034DBH   LINE      CODE     ---       #318
      010034DBH   LINE      CODE     ---       #319
      010034E5H   LINE      CODE     ---       #320
      010034EBH   LINE      CODE     ---       #321
      010034EDH   LINE      CODE     ---       #322
      010034EDH   LINE      CODE     ---       #323
      010034F3H   LINE      CODE     ---       #324
      010034FDH   LINE      CODE     ---       #325
      010034FDH   LINE      CODE     ---       #326
      010034FDH   LINE      CODE     ---       #327
      010034FDH   LINE      CODE     ---       #328
      01003507H   LINE      CODE     ---       #329
      ---         BLOCKEND  ---      ---       LVL=0

      01002BE5H   BLOCK     CODE     ---       LVL=0
      00000007H   SYMBOL    DATA     BYTE      Port
      00000005H   SYMBOL    DATA     BYTE      PinNum
      01002BE5H   BLOCK     CODE     NEAR LAB  LVL=1
      00000004H   SYMBOL    DATA     BYTE      flag
      00000002H   SYMBOL    DATA     ---       PCFG
LX51 LINKER/LOCATER V4.66.97.0                                                        11/15/2024  17:07:44  PAGE 29


      ---         BLOCKEND  ---      ---       LVL=1
      01002BE5H   LINE      CODE     ---       #347
      01002BE5H   LINE      CODE     ---       #348
      01002BE5H   LINE      CODE     ---       #352
      01002BF3H   LINE      CODE     ---       #353
      01002BF3H   LINE      CODE     ---       #354
      01002BF3H   LINE      CODE     ---       #355
      01002BFAH   LINE      CODE     ---       #356
      01002BFDH   LINE      CODE     ---       #357
      01002C09H   LINE      CODE     ---       #358
      01002C0BH   LINE      CODE     ---       #359
      01002C0BH   LINE      CODE     ---       #360
      01002C17H   LINE      CODE     ---       #361
      01002C1AH   LINE      CODE     ---       #362
      01002C26H   LINE      CODE     ---       #363
      01002C28H   LINE      CODE     ---       #364
      01002C28H   LINE      CODE     ---       #365
      01002C34H   LINE      CODE     ---       #366
      01002C37H   LINE      CODE     ---       #367
      01002C43H   LINE      CODE     ---       #368
      01002C45H   LINE      CODE     ---       #369
      01002C45H   LINE      CODE     ---       #370
      01002C4DH   LINE      CODE     ---       #371
      01002C55H   LINE      CODE     ---       #372
      01002C65H   LINE      CODE     ---       #373
      01002C67H   LINE      CODE     ---       #374
      01002C6BH   LINE      CODE     ---       #375
      01002C6BH   LINE      CODE     ---       #377
      01002C71H   LINE      CODE     ---       #378
      01002C7BH   LINE      CODE     ---       #379
      ---         BLOCKEND  ---      ---       LVL=0

      0100311DH   BLOCK     CODE     ---       LVL=0
      00000007H   SYMBOL    DATA     BYTE      Port
      00000005H   SYMBOL    DATA     BYTE      PinNum
      00000003H   SYMBOL    DATA     BYTE      Mode
      0100311DH   BLOCK     CODE     NEAR LAB  LVL=1
      00000028H   SYMBOL    DATA     ---       PCFG
      ---         BLOCKEND  ---      ---       LVL=1
      0100311DH   LINE      CODE     ---       #418
      0100311DH   LINE      CODE     ---       #419
      0100311DH   LINE      CODE     ---       #422
      0100312AH   LINE      CODE     ---       #423
      0100313BH   LINE      CODE     ---       #425
      01003149H   LINE      CODE     ---       #426
      01003149H   LINE      CODE     ---       #427
      01003149H   LINE      CODE     ---       #428
      0100314EH   LINE      CODE     ---       #429
      01003151H   LINE      CODE     ---       #430
      01003153H   LINE      CODE     ---       #431
      01003153H   LINE      CODE     ---       #432
      0100315DH   LINE      CODE     ---       #433
      01003160H   LINE      CODE     ---       #434
      01003162H   LINE      CODE     ---       #435
      01003162H   LINE      CODE     ---       #436
      0100316CH   LINE      CODE     ---       #437
      01003172H   LINE      CODE     ---       #438
      01003174H   LINE      CODE     ---       #439
      01003174H   LINE      CODE     ---       #440
      0100317AH   LINE      CODE     ---       #441
      01003184H   LINE      CODE     ---       #442
      01003184H   LINE      CODE     ---       #443
      01003184H   LINE      CODE     ---       #444
      01003184H   LINE      CODE     ---       #445
      0100318EH   LINE      CODE     ---       #446
LX51 LINKER/LOCATER V4.66.97.0                                                        11/15/2024  17:07:44  PAGE 30


      ---         BLOCKEND  ---      ---       LVL=0

      ---         MODULE    ---      ---       ADCCFG
      00000009H   PUBLIC    DATA     ---       Data
      02000040H   PUBLIC    XDATA    BYTE      IsNotAllowAsync
      01003FA7H   PUBLIC    CONST    ---       ADCChQueue
      01002A12H   PUBLIC    CODE     ---       ADC_Init
      01002C7CH   PUBLIC    CODE     ---       ADC_DeInit
      01000047H   PUBLIC    CODE     ---       SystemTelemHandler
      000000C8H.0 SFRSYM    DATA     BIT       T2I0
      000000C3H   SFRSYM    DATA     BYTE      CCH1
      00000080H   SFRSYM    DATA     BYTE      P0
      000000C8H.1 SFRSYM    DATA     BIT       T2I1
      000000C5H   SFRSYM    DATA     BYTE      CCH2
      00000090H   SFRSYM    DATA     BYTE      P1
      000000C7H   SFRSYM    DATA     BYTE      CCH3
      000000ACH   SFRSYM    DATA     BYTE      P0EXTIE
      000000A0H   SFRSYM    DATA     BYTE      P2
      000000B4H   SFRSYM    DATA     BYTE      P0EXTIF
      000000B0H   SFRSYM    DATA     BYTE      P3
      000000ADH   SFRSYM    DATA     BYTE      P1EXTIE
      000000D0H.6 SFRSYM    DATA     BIT       AC
      000000FFH   SFRSYM    DATA     BYTE      MCTRL
      000000C2H   SFRSYM    DATA     BYTE      CCL1
      000000B5H   SFRSYM    DATA     BYTE      P1EXTIF
      000000AEH   SFRSYM    DATA     BYTE      P2EXTIE
      000000C4H   SFRSYM    DATA     BYTE      CCL2
      000000B6H   SFRSYM    DATA     BYTE      P2EXTIF
      000000AFH   SFRSYM    DATA     BYTE      P3EXTIE
      000000A8H.7 SFRSYM    DATA     BIT       EA
      000000C6H   SFRSYM    DATA     BYTE      CCL3
      000000B7H   SFRSYM    DATA     BYTE      P3EXTIF
      000000AAH   SFRSYM    DATA     BYTE      EIE2
      000000B2H   SFRSYM    DATA     BYTE      EIF2
      000000C8H.3 SFRSYM    DATA     BIT       T2R0
      000000C8H.4 SFRSYM    DATA     BIT       T2R1
      00000083H   SFRSYM    DATA     BYTE      DPH0
      000000A8H   SFRSYM    DATA     BYTE      IE
      00000085H   SFRSYM    DATA     BYTE      DPH1
      000000B9H   SFRSYM    DATA     BYTE      EIP1
      000000BAH   SFRSYM    DATA     BYTE      EIP2
      00000082H   SFRSYM    DATA     BYTE      DPL0
      00000084H   SFRSYM    DATA     BYTE      DPL1
      000000C8H.6 SFRSYM    DATA     BIT       I3FR
      000000CFH   SFRSYM    DATA     BYTE      T2IE
      00000096H   SFRSYM    DATA     BYTE      TA
      000000C9H   SFRSYM    DATA     BYTE      T2IF
      000000C8H.2 SFRSYM    DATA     BIT       T2CM
      000000DFH   SFRSYM    DATA     BYTE      ADCON0
      000000DEH   SFRSYM    DATA     BYTE      ADCON1
      000000E9H   SFRSYM    DATA     BYTE      ADCON2
      000000B8H   SFRSYM    DATA     BYTE      IP
      000000CEH   SFRSYM    DATA     BYTE      CCEN
      000000D0H.7 SFRSYM    DATA     BIT       CY
      000000D2H   SFRSYM    DATA     BYTE      T34MOD
      00000093H   SFRSYM    DATA     BYTE      DPX0
      00000095H   SFRSYM    DATA     BYTE      DPX1
      000000F4H   SFRSYM    DATA     BYTE      I2CMSA
      000000F5H   SFRSYM    DATA     BYTE      I2CMCR
      00000081H   SFRSYM    DATA     BYTE      SP
      000000D0H.2 SFRSYM    DATA     BIT       OV
      000000F2H   SFRSYM    DATA     BYTE      I2CSCR
      000000C8H.7 SFRSYM    DATA     BIT       T2PS
      000000D1H   SFRSYM    DATA     BYTE      ADCMPC
      000000CBH   SFRSYM    DATA     BYTE      RLDH
LX51 LINKER/LOCATER V4.66.97.0                                                        11/15/2024  17:07:44  PAGE 31


      000000D5H   SFRSYM    DATA     BYTE      ADCMPH
      000000CAH   SFRSYM    DATA     BYTE      RLDL
      00000080H.0 SFRSYM    DATA     BIT       P00
      00000090H.0 SFRSYM    DATA     BIT       P10
      00000080H.1 SFRSYM    DATA     BIT       P01
      000000F7H   SFRSYM    DATA     BYTE      I2CMTP
      00000099H   SFRSYM    DATA     BYTE      SBUF
      00000087H   SFRSYM    DATA     BYTE      PCON
      000000A0H.0 SFRSYM    DATA     BIT       P20
      00000090H.1 SFRSYM    DATA     BIT       P11
      00000080H.2 SFRSYM    DATA     BIT       P02
      000000F5H   SFRSYM    DATA     BYTE      I2CMSR
      000000B0H.0 SFRSYM    DATA     BIT       P30
      000000A0H.1 SFRSYM    DATA     BIT       P21
      00000090H.2 SFRSYM    DATA     BIT       P12
      00000080H.3 SFRSYM    DATA     BIT       P03
      000000D4H   SFRSYM    DATA     BYTE      ADCMPL
      000000B0H.1 SFRSYM    DATA     BIT       P31
      000000A0H.2 SFRSYM    DATA     BIT       P22
      00000090H.3 SFRSYM    DATA     BIT       P13
      00000080H.4 SFRSYM    DATA     BIT       P04
      000000B0H.2 SFRSYM    DATA     BIT       P32
      000000A0H.3 SFRSYM    DATA     BIT       P23
      00000090H.4 SFRSYM    DATA     BIT       P14
      00000080H.5 SFRSYM    DATA     BIT       P05
      00000089H   SFRSYM    DATA     BYTE      TMOD
      00000088H   SFRSYM    DATA     BYTE      TCON
      000000B0H.3 SFRSYM    DATA     BIT       P33
      000000A0H.4 SFRSYM    DATA     BIT       P24
      00000090H.5 SFRSYM    DATA     BIT       P15
      00000080H.6 SFRSYM    DATA     BIT       P06
      000000B0H.4 SFRSYM    DATA     BIT       P34
      000000A0H.5 SFRSYM    DATA     BIT       P25
      00000090H.6 SFRSYM    DATA     BIT       P16
      00000080H.7 SFRSYM    DATA     BIT       P07
      000000B0H.5 SFRSYM    DATA     BIT       P35
      000000A0H.6 SFRSYM    DATA     BIT       P26
      00000090H.7 SFRSYM    DATA     BIT       P17
      000000F2H   SFRSYM    DATA     BYTE      I2CSSR
      000000B0H.6 SFRSYM    DATA     BIT       P36
      000000A0H.7 SFRSYM    DATA     BIT       P27
      000000ECH   SFRSYM    DATA     BYTE      SPCR
      000000DDH   SFRSYM    DATA     BYTE      ADRESH
      000000B0H.7 SFRSYM    DATA     BIT       P37
      000000EEH   SFRSYM    DATA     BYTE      SPDR
      000000EFH   SFRSYM    DATA     BYTE      SSCR
      000000D3H   SFRSYM    DATA     BYTE      ADDLYL
      000000DCH   SFRSYM    DATA     BYTE      ADRESL
      00000088H.1 SFRSYM    DATA     BIT       IE0
      00000088H.3 SFRSYM    DATA     BIT       IE1
      0000008FH   SFRSYM    DATA     BYTE      CLKDIV
      000000F0H   SFRSYM    DATA     BYTE      B
      00000091H   SFRSYM    DATA     BYTE      FUNCCR
      0000009AH   SFRSYM    DATA     BYTE      P0TRIS
      000000A1H   SFRSYM    DATA     BYTE      P1TRIS
      000000A2H   SFRSYM    DATA     BYTE      P2TRIS
      000000E0H   SFRSYM    DATA     BYTE      ACC
      000000A3H   SFRSYM    DATA     BYTE      P3TRIS
      000000A8H.4 SFRSYM    DATA     BIT       ES0
      000000A8H.6 SFRSYM    DATA     BIT       ES1
      000000A8H.1 SFRSYM    DATA     BIT       ET0
      000000EDH   SFRSYM    DATA     BYTE      SPSR
      000000A8H.3 SFRSYM    DATA     BIT       ET1
      00000088H.5 SFRSYM    DATA     BIT       TF0
      000000A8H.5 SFRSYM    DATA     BIT       ET2
LX51 LINKER/LOCATER V4.66.97.0                                                        11/15/2024  17:07:44  PAGE 32


      00000098H.0 SFRSYM    DATA     BIT       RI0
      00000088H.7 SFRSYM    DATA     BIT       TF1
      0000008CH   SFRSYM    DATA     BYTE      TH0
      000000A8H.0 SFRSYM    DATA     BIT       EX0
      00000098H.1 SFRSYM    DATA     BIT       TI0
      00000088H.0 SFRSYM    DATA     BIT       IT0
      0000008DH   SFRSYM    DATA     BYTE      TH1
      000000A8H.2 SFRSYM    DATA     BIT       EX1
      00000088H.2 SFRSYM    DATA     BIT       IT1
      000000CDH   SFRSYM    DATA     BYTE      TH2
      000000D0H.0 SFRSYM    DATA     BIT       P
      000000DBH   SFRSYM    DATA     BYTE      TH3
      000000E3H   SFRSYM    DATA     BYTE      TH4
      0000008AH   SFRSYM    DATA     BYTE      TL0
      0000008BH   SFRSYM    DATA     BYTE      TL1
      00000098H.2 SFRSYM    DATA     BIT       U0RB8
      000000CCH   SFRSYM    DATA     BYTE      TL2
      000000B8H.4 SFRSYM    DATA     BIT       PS0
      000000DAH   SFRSYM    DATA     BYTE      TL3
      000000BFH   SFRSYM    DATA     BYTE      BUZCON
      000000B8H.6 SFRSYM    DATA     BIT       PS1
      000000B8H.1 SFRSYM    DATA     BIT       PT0
      00000098H.3 SFRSYM    DATA     BIT       U0TB8
      000000E2H   SFRSYM    DATA     BYTE      TL4
      000000D0H.3 SFRSYM    DATA     BIT       RS0
      000000B8H.3 SFRSYM    DATA     BIT       PT1
      000000D0H.4 SFRSYM    DATA     BIT       RS1
      000000B8H.5 SFRSYM    DATA     BIT       PT2
      00000098H.7 SFRSYM    DATA     BIT       U0SM0
      00000088H.4 SFRSYM    DATA     BIT       TR0
      000000BEH   SFRSYM    DATA     BYTE      BUZDIV
      00000098H.6 SFRSYM    DATA     BIT       U0SM1
      00000088H.6 SFRSYM    DATA     BIT       TR1
      000000B8H.0 SFRSYM    DATA     BIT       PX0
      00000098H.5 SFRSYM    DATA     BIT       U0SM2
      000000B8H.2 SFRSYM    DATA     BIT       PX1
      000000BDH   SFRSYM    DATA     BYTE      WUTCRH
      00000099H   SFRSYM    DATA     BYTE      SBUF0
      000000EBH   SFRSYM    DATA     BYTE      SBUF1
      000000BCH   SFRSYM    DATA     BYTE      WUTCRL
      00000098H   SFRSYM    DATA     BYTE      SCON0
      000000EAH   SFRSYM    DATA     BYTE      SCON1
      000000C8H   SFRSYM    DATA     BYTE      T2CON
      00000086H   SFRSYM    DATA     BYTE      DPS
      000000FEH   SFRSYM    DATA     BYTE      MDATA
      000000F6H   SFRSYM    DATA     BYTE      I2CMBUF
      000000F1H   SFRSYM    DATA     BYTE      I2CSADR
      00000098H.4 SFRSYM    DATA     BIT       U0REN
      000000C8H.5 SFRSYM    DATA     BIT       CAPES
      000000FDH   SFRSYM    DATA     BYTE      MADRH
      0000008EH   SFRSYM    DATA     BYTE      CKCON
      000000F3H   SFRSYM    DATA     BYTE      I2CSBUF
      000000FCH   SFRSYM    DATA     BYTE      MADRL
      000000D0H.5 SFRSYM    DATA     BIT       F0
      000000FBH   SFRSYM    DATA     BYTE      MLOCK
      000000D0H   SFRSYM    DATA     BYTE      PSW
      00000097H   SFRSYM    DATA     BYTE      WDCON
      01003C53H   SYMBOL    CODE     ---       ADC_SetVREF
      01002778H   SYMBOL    CODE     ---       _ADC_ReadBackResult
      01003508H   SYMBOL    CODE     ---       _ADC_SubmitMisson
      02000034H   SYMBOL    XDATA    ---       ADCConvertQueue
      00000008H   SYMBOL    DATA     BYTE      ADCState
      02000038H   SYMBOL    XDATA    ---       ADCTemp
      01001D53H   SYMBOL    CODE     ---       ADCEngineHandler
      01001775H   SYMBOL    CODE     ---       _ADC_WriteOutputBuf
LX51 LINKER/LOCATER V4.66.97.0                                                        11/15/2024  17:07:44  PAGE 33



      010033F1H   BLOCK     CODE     ---       LVL=0
      ---         BLOCKEND  ---      ---       LVL=0

      01003508H   BLOCK     CODE     ---       LVL=0
      00000003H   SYMBOL    DATA     CHAR      Ch
      01003508H   LINE      CODE     ---       #18
      0100350AH   LINE      CODE     ---       #19
      0100350AH   LINE      CODE     ---       #21
      01003510H   LINE      CODE     ---       #22
      01003525H   LINE      CODE     ---       #24
      0100352FH   LINE      CODE     ---       #25
      0100352FH   LINE      CODE     ---       #26
      01003534H   LINE      CODE     ---       #27
      01003538H   LINE      CODE     ---       #29
      01003541H   LINE      CODE     ---       #30
      01003544H   LINE      CODE     ---       #31
      01003547H   LINE      CODE     ---       #32
      0100354CH   LINE      CODE     ---       #34
      01003553H   LINE      CODE     ---       #35
      01003556H   LINE      CODE     ---       #36
      ---         BLOCKEND  ---      ---       LVL=0

      01002778H   BLOCK     CODE     ---       LVL=0
      0000002DH   SYMBOL    DATA     ---       Result
      00000030H   SYMBOL    DATA     ---       Queue
      01002778H   LINE      CODE     ---       #39
      0100277EH   LINE      CODE     ---       #40
      0100277EH   LINE      CODE     ---       #42
      01002785H   LINE      CODE     ---       #44
      01002793H   LINE      CODE     ---       #45
      010027C1H   LINE      CODE     ---       #46
      010027D2H   LINE      CODE     ---       #47
      010027D2H   LINE      CODE     ---       #48
      010027D5H   LINE      CODE     ---       #49
      010027D9H   LINE      CODE     ---       #50
      010027D9H   LINE      CODE     ---       #52
      010027F6H   LINE      CODE     ---       #53
      0100280BH   LINE      CODE     ---       #54
      01002818H   LINE      CODE     ---       #55
      0100281DH   LINE      CODE     ---       #56
      01002820H   LINE      CODE     ---       #57
      ---         BLOCKEND  ---      ---       LVL=0

      01003C53H   BLOCK     CODE     ---       LVL=0
      00000021H.0 SYMBOL    BIT      BIT       IsUsingVDD
      01003C53H   LINE      CODE     ---       #60
      01003C53H   LINE      CODE     ---       #61
      01003C53H   LINE      CODE     ---       #62
      01003C56H   LINE      CODE     ---       #63
      01003C57H   LINE      CODE     ---       #64
      01003C63H   LINE      CODE     ---       #65
      01003C64H   LINE      CODE     ---       #66
      01003C67H   LINE      CODE     ---       #67
      ---         BLOCKEND  ---      ---       LVL=0

      01001775H   BLOCK     CODE     ---       LVL=0
      0000002DH   SYMBOL    DATA     INT       ADCResult
      0000002FH   SYMBOL    DATA     CHAR      Ch
      0100177BH   BLOCK     CODE     NEAR LAB  LVL=1
      00000030H   SYMBOL    DATA     FLOAT     Buf
      00000034H   SYMBOL    DATA     FLOAT     Rt
      00000038H   SYMBOL    DATA     FLOAT     Vadc
      00000004H   SYMBOL    DATA     DWORD     NTCRES
      ---         BLOCKEND  ---      ---       LVL=1
LX51 LINKER/LOCATER V4.66.97.0                                                        11/15/2024  17:07:44  PAGE 34


      01001775H   LINE      CODE     ---       #71
      0100177BH   LINE      CODE     ---       #72
      0100177BH   LINE      CODE     ---       #77
      01001795H   LINE      CODE     ---       #78
      010017CAH   LINE      CODE     ---       #80
      010017E3H   LINE      CODE     ---       #81
      010017E3H   LINE      CODE     ---       #83
      010017E3H   LINE      CODE     ---       #84
      01001806H   LINE      CODE     ---       #85
      0100180EH   LINE      CODE     ---       #86
      0100180FH   LINE      CODE     ---       #88
      0100180FH   LINE      CODE     ---       #89
      01001818H   LINE      CODE     ---       #90
      01001823H   LINE      CODE     ---       #91
      01001843H   LINE      CODE     ---       #92
      01001866H   LINE      CODE     ---       #93
      01001867H   LINE      CODE     ---       #95
      01001867H   LINE      CODE     ---       #96
      01001870H   LINE      CODE     ---       #97
      0100187BH   LINE      CODE     ---       #98
      0100189BH   LINE      CODE     ---       #99
      0100189CH   LINE      CODE     ---       #101
      0100189CH   LINE      CODE     ---       #102
      010018D7H   LINE      CODE     ---       #103
      010018E4H   LINE      CODE     ---       #104
      010018E7H   LINE      CODE     ---       #105
      010018F2H   LINE      CODE     ---       #106
      010018F2H   LINE      CODE     ---       #107
      010018F2H   LINE      CODE     ---       #108
      ---         BLOCKEND  ---      ---       LVL=0

      01001D53H   BLOCK     CODE     ---       LVL=0
      01001D53H   BLOCK     CODE     NEAR LAB  LVL=1
      00000028H   SYMBOL    DATA     INT       i
      0000002AH   SYMBOL    DATA     INT       result
      0000002CH   SYMBOL    DATA     CHAR      Ch
      ---         BLOCKEND  ---      ---       LVL=1
      01001D53H   LINE      CODE     ---       #111
      01001D53H   LINE      CODE     ---       #112
      01001D53H   LINE      CODE     ---       #117
      01001D53H   LINE      CODE     ---       #118
      01001D5BH   LINE      CODE     ---       #119
      01001D73H   LINE      CODE     ---       #120
      01001D73H   LINE      CODE     ---       #122
      01001D73H   LINE      CODE     ---       #123
      01001D78H   LINE      CODE     ---       #124
      01001D9FH   LINE      CODE     ---       #125
      01001D9FH   LINE      CODE     ---       #126
      01001DA2H   LINE      CODE     ---       #128
      01001DA2H   LINE      CODE     ---       #129
      01001DA7H   LINE      CODE     ---       #130
      01001DA7H   LINE      CODE     ---       #131
      01001DA7H   LINE      CODE     ---       #132
      01001DC0H   LINE      CODE     ---       #133
      01001DC8H   LINE      CODE     ---       #134
      01001DCEH   LINE      CODE     ---       #136
      01001DDBH   LINE      CODE     ---       #137
      01001DDBH   LINE      CODE     ---       #138
      01001DE1H   LINE      CODE     ---       #139
      01001DF4H   LINE      CODE     ---       #140
      01001DF9H   LINE      CODE     ---       #141
      01001DFCH   LINE      CODE     ---       #142
      01001DFEH   LINE      CODE     ---       #144
      01001E01H   LINE      CODE     ---       #145
      01001E03H   LINE      CODE     ---       #147
LX51 LINKER/LOCATER V4.66.97.0                                                        11/15/2024  17:07:44  PAGE 35


      01001E03H   LINE      CODE     ---       #148
      01001E19H   LINE      CODE     ---       #149
      01001E22H   LINE      CODE     ---       #150
      01001E42H   LINE      CODE     ---       #151
      01001E45H   LINE      CODE     ---       #152
      01001E47H   LINE      CODE     ---       #154
      01001E47H   LINE      CODE     ---       #156
      01001E4AH   LINE      CODE     ---       #157
      01001E4AH   LINE      CODE     ---       #158
      01001E4AH   LINE      CODE     ---       #159
      01001E59H   LINE      CODE     ---       #160
      ---         BLOCKEND  ---      ---       LVL=0

      01000047H   BLOCK     CODE     ---       LVL=0
      01000047H   LINE      CODE     ---       #170
      01000047H   LINE      CODE     ---       #171
      01000047H   LINE      CODE     ---       #173
      ---         BLOCKEND  ---      ---       LVL=0

      01002C7CH   BLOCK     CODE     ---       LVL=0
      01002C7CH   BLOCK     CODE     NEAR LAB  LVL=1
      00000025H   SYMBOL    DATA     ---       ADCDeInitCfg
      00000007H   SYMBOL    DATA     CHAR      i
      ---         BLOCKEND  ---      ---       LVL=1
      01002C7CH   LINE      CODE     ---       #177
      01002C7CH   LINE      CODE     ---       #178
      01002C7CH   LINE      CODE     ---       #182
      01002C7FH   LINE      CODE     ---       #183
      01002C83H   LINE      CODE     ---       #185
      01002C88H   LINE      CODE     ---       #186
      01002C8BH   LINE      CODE     ---       #187
      01002CB2H   LINE      CODE     ---       #188
      01002CBCH   LINE      CODE     ---       #189
      01002CBCH   LINE      CODE     ---       #190
      01002CC0H   LINE      CODE     ---       #191
      01002CC2H   LINE      CODE     ---       #193
      01002CCAH   LINE      CODE     ---       #194
      01002CD3H   LINE      CODE     ---       #196
      01002CD6H   LINE      CODE     ---       #197
      01002CD9H   LINE      CODE     ---       #198
      01002CDBH   LINE      CODE     ---       #199
      01002CE7H   LINE      CODE     ---       #200
      01002CF4H   LINE      CODE     ---       #202
      01002CFDH   LINE      CODE     ---       #203
      01002D06H   LINE      CODE     ---       #204
      ---         BLOCKEND  ---      ---       LVL=0

      01002A12H   BLOCK     CODE     ---       LVL=0
      01002A12H   BLOCK     CODE     NEAR LAB  LVL=1
      00000025H   SYMBOL    DATA     ---       ADCInitCfg
      ---         BLOCKEND  ---      ---       LVL=1
      01002A12H   LINE      CODE     ---       #208
      01002A12H   LINE      CODE     ---       #209
      01002A12H   LINE      CODE     ---       #212
      01002A15H   LINE      CODE     ---       #213
      01002A17H   LINE      CODE     ---       #214
      01002A19H   LINE      CODE     ---       #216
      01002A25H   LINE      CODE     ---       #217
      01002A32H   LINE      CODE     ---       #218
      01002A37H   LINE      CODE     ---       #220
      01002A40H   LINE      CODE     ---       #221
      01002A49H   LINE      CODE     ---       #222
      01002A51H   LINE      CODE     ---       #224
      01002A54H   LINE      CODE     ---       #225
      01002A57H   LINE      CODE     ---       #226
LX51 LINKER/LOCATER V4.66.97.0                                                        11/15/2024  17:07:44  PAGE 36


      01002A5AH   LINE      CODE     ---       #228
      01002A61H   LINE      CODE     ---       #229
      01002A66H   LINE      CODE     ---       #230
      01002A6FH   LINE      CODE     ---       #232
      01002A72H   LINE      CODE     ---       #233
      01002A75H   LINE      CODE     ---       #234
      01002A78H   LINE      CODE     ---       #235
      01002A7AH   LINE      CODE     ---       #236
      01002A7CH   LINE      CODE     ---       #237
      01002A7FH   LINE      CODE     ---       #238
      01002A82H   LINE      CODE     ---       #239
      01002A88H   LINE      CODE     ---       #241
      01002A8BH   LINE      CODE     ---       #242
      01002A95H   LINE      CODE     ---       #243
      01002A95H   LINE      CODE     ---       #244
      01002A99H   LINE      CODE     ---       #245
      01002A9BH   LINE      CODE     ---       #246
      01002A9EH   LINE      CODE     ---       #248
      01002AA1H   LINE      CODE     ---       #249
      01002AA4H   LINE      CODE     ---       #250
      ---         BLOCKEND  ---      ---       LVL=0

      ---         MODULE    ---      ---       DELAY
      00000021H.5 PUBLIC    BIT      BIT       StrobeFlag
      00000021H.4 PUBLIC    BIT      BIT       SysHBFlag
      00000021H.3 PUBLIC    BIT      BIT       IsT0OVF
      0000001FH   PUBLIC    DATA     CHAR      HBcounter
      0100260EH   PUBLIC    CODE     ---       _delay_ms
      010036F4H   PUBLIC    CODE     ---       _delay_us
      01003C68H   PUBLIC    CODE     ---       delay_init
      01003D39H   PUBLIC    CODE     ---       Timer0_IRQHandler
      01003557H   PUBLIC    CODE     ---       Timer2_IRQHandler
      0100004EH   PUBLIC    CODE     ---       CheckIfHBTIMIsReady
      00000021H.0 PUBLIC    BIT      BIT       ?SetSystemHBTimer?BIT
      01003A98H   PUBLIC    CODE     ---       SetSystemHBTimer
      000000C8H.0 SFRSYM    DATA     BIT       T2I0
      000000C3H   SFRSYM    DATA     BYTE      CCH1
      00000080H   SFRSYM    DATA     BYTE      P0
      000000C8H.1 SFRSYM    DATA     BIT       T2I1
      000000C5H   SFRSYM    DATA     BYTE      CCH2
      00000090H   SFRSYM    DATA     BYTE      P1
      000000C7H   SFRSYM    DATA     BYTE      CCH3
      000000ACH   SFRSYM    DATA     BYTE      P0EXTIE
      000000A0H   SFRSYM    DATA     BYTE      P2
      000000B4H   SFRSYM    DATA     BYTE      P0EXTIF
      000000B0H   SFRSYM    DATA     BYTE      P3
      000000ADH   SFRSYM    DATA     BYTE      P1EXTIE
      000000D0H.6 SFRSYM    DATA     BIT       AC
      000000FFH   SFRSYM    DATA     BYTE      MCTRL
      000000C2H   SFRSYM    DATA     BYTE      CCL1
      000000B5H   SFRSYM    DATA     BYTE      P1EXTIF
      000000AEH   SFRSYM    DATA     BYTE      P2EXTIE
      000000C4H   SFRSYM    DATA     BYTE      CCL2
      000000B6H   SFRSYM    DATA     BYTE      P2EXTIF
      000000AFH   SFRSYM    DATA     BYTE      P3EXTIE
      000000A8H.7 SFRSYM    DATA     BIT       EA
      000000C6H   SFRSYM    DATA     BYTE      CCL3
      000000B7H   SFRSYM    DATA     BYTE      P3EXTIF
      000000AAH   SFRSYM    DATA     BYTE      EIE2
      000000B2H   SFRSYM    DATA     BYTE      EIF2
      000000C8H.3 SFRSYM    DATA     BIT       T2R0
      000000C8H.4 SFRSYM    DATA     BIT       T2R1
      00000083H   SFRSYM    DATA     BYTE      DPH0
      000000A8H   SFRSYM    DATA     BYTE      IE
      00000085H   SFRSYM    DATA     BYTE      DPH1
LX51 LINKER/LOCATER V4.66.97.0                                                        11/15/2024  17:07:44  PAGE 37


      000000B9H   SFRSYM    DATA     BYTE      EIP1
      000000BAH   SFRSYM    DATA     BYTE      EIP2
      00000082H   SFRSYM    DATA     BYTE      DPL0
      00000084H   SFRSYM    DATA     BYTE      DPL1
      000000C8H.6 SFRSYM    DATA     BIT       I3FR
      000000CFH   SFRSYM    DATA     BYTE      T2IE
      00000096H   SFRSYM    DATA     BYTE      TA
      000000C9H   SFRSYM    DATA     BYTE      T2IF
      000000C8H.2 SFRSYM    DATA     BIT       T2CM
      000000DFH   SFRSYM    DATA     BYTE      ADCON0
      000000DEH   SFRSYM    DATA     BYTE      ADCON1
      000000E9H   SFRSYM    DATA     BYTE      ADCON2
      000000B8H   SFRSYM    DATA     BYTE      IP
      000000CEH   SFRSYM    DATA     BYTE      CCEN
      000000D0H.7 SFRSYM    DATA     BIT       CY
      000000D2H   SFRSYM    DATA     BYTE      T34MOD
      00000093H   SFRSYM    DATA     BYTE      DPX0
      00000095H   SFRSYM    DATA     BYTE      DPX1
      000000F4H   SFRSYM    DATA     BYTE      I2CMSA
      000000F5H   SFRSYM    DATA     BYTE      I2CMCR
      00000081H   SFRSYM    DATA     BYTE      SP
      000000D0H.2 SFRSYM    DATA     BIT       OV
      000000F2H   SFRSYM    DATA     BYTE      I2CSCR
      000000C8H.7 SFRSYM    DATA     BIT       T2PS
      000000D1H   SFRSYM    DATA     BYTE      ADCMPC
      000000CBH   SFRSYM    DATA     BYTE      RLDH
      000000D5H   SFRSYM    DATA     BYTE      ADCMPH
      000000CAH   SFRSYM    DATA     BYTE      RLDL
      00000080H.0 SFRSYM    DATA     BIT       P00
      00000090H.0 SFRSYM    DATA     BIT       P10
      00000080H.1 SFRSYM    DATA     BIT       P01
      000000F7H   SFRSYM    DATA     BYTE      I2CMTP
      00000099H   SFRSYM    DATA     BYTE      SBUF
      00000087H   SFRSYM    DATA     BYTE      PCON
      000000A0H.0 SFRSYM    DATA     BIT       P20
      00000090H.1 SFRSYM    DATA     BIT       P11
      00000080H.2 SFRSYM    DATA     BIT       P02
      000000F5H   SFRSYM    DATA     BYTE      I2CMSR
      000000B0H.0 SFRSYM    DATA     BIT       P30
      000000A0H.1 SFRSYM    DATA     BIT       P21
      00000090H.2 SFRSYM    DATA     BIT       P12
      00000080H.3 SFRSYM    DATA     BIT       P03
      000000D4H   SFRSYM    DATA     BYTE      ADCMPL
      000000B0H.1 SFRSYM    DATA     BIT       P31
      000000A0H.2 SFRSYM    DATA     BIT       P22
      00000090H.3 SFRSYM    DATA     BIT       P13
      00000080H.4 SFRSYM    DATA     BIT       P04
      000000B0H.2 SFRSYM    DATA     BIT       P32
      000000A0H.3 SFRSYM    DATA     BIT       P23
      00000090H.4 SFRSYM    DATA     BIT       P14
      00000080H.5 SFRSYM    DATA     BIT       P05
      00000089H   SFRSYM    DATA     BYTE      TMOD
      00000088H   SFRSYM    DATA     BYTE      TCON
      000000B0H.3 SFRSYM    DATA     BIT       P33
      000000A0H.4 SFRSYM    DATA     BIT       P24
      00000090H.5 SFRSYM    DATA     BIT       P15
      00000080H.6 SFRSYM    DATA     BIT       P06
      000000B0H.4 SFRSYM    DATA     BIT       P34
      000000A0H.5 SFRSYM    DATA     BIT       P25
      00000090H.6 SFRSYM    DATA     BIT       P16
      00000080H.7 SFRSYM    DATA     BIT       P07
      000000B0H.5 SFRSYM    DATA     BIT       P35
      000000A0H.6 SFRSYM    DATA     BIT       P26
      00000090H.7 SFRSYM    DATA     BIT       P17
      000000F2H   SFRSYM    DATA     BYTE      I2CSSR
LX51 LINKER/LOCATER V4.66.97.0                                                        11/15/2024  17:07:44  PAGE 38


      000000B0H.6 SFRSYM    DATA     BIT       P36
      000000A0H.7 SFRSYM    DATA     BIT       P27
      000000ECH   SFRSYM    DATA     BYTE      SPCR
      000000DDH   SFRSYM    DATA     BYTE      ADRESH
      000000B0H.7 SFRSYM    DATA     BIT       P37
      000000EEH   SFRSYM    DATA     BYTE      SPDR
      000000EFH   SFRSYM    DATA     BYTE      SSCR
      000000D3H   SFRSYM    DATA     BYTE      ADDLYL
      000000DCH   SFRSYM    DATA     BYTE      ADRESL
      00000088H.1 SFRSYM    DATA     BIT       IE0
      00000088H.3 SFRSYM    DATA     BIT       IE1
      0000008FH   SFRSYM    DATA     BYTE      CLKDIV
      000000F0H   SFRSYM    DATA     BYTE      B
      00000091H   SFRSYM    DATA     BYTE      FUNCCR
      0000009AH   SFRSYM    DATA     BYTE      P0TRIS
      000000A1H   SFRSYM    DATA     BYTE      P1TRIS
      000000A2H   SFRSYM    DATA     BYTE      P2TRIS
      000000E0H   SFRSYM    DATA     BYTE      ACC
      000000A3H   SFRSYM    DATA     BYTE      P3TRIS
      000000A8H.4 SFRSYM    DATA     BIT       ES0
      000000A8H.6 SFRSYM    DATA     BIT       ES1
      000000A8H.1 SFRSYM    DATA     BIT       ET0
      000000EDH   SFRSYM    DATA     BYTE      SPSR
      000000A8H.3 SFRSYM    DATA     BIT       ET1
      00000088H.5 SFRSYM    DATA     BIT       TF0
      000000A8H.5 SFRSYM    DATA     BIT       ET2
      00000098H.0 SFRSYM    DATA     BIT       RI0
      00000088H.7 SFRSYM    DATA     BIT       TF1
      0000008CH   SFRSYM    DATA     BYTE      TH0
      000000A8H.0 SFRSYM    DATA     BIT       EX0
      00000098H.1 SFRSYM    DATA     BIT       TI0
      00000088H.0 SFRSYM    DATA     BIT       IT0
      0000008DH   SFRSYM    DATA     BYTE      TH1
      000000A8H.2 SFRSYM    DATA     BIT       EX1
      00000088H.2 SFRSYM    DATA     BIT       IT1
      000000CDH   SFRSYM    DATA     BYTE      TH2
      000000D0H.0 SFRSYM    DATA     BIT       P
      000000DBH   SFRSYM    DATA     BYTE      TH3
      000000E3H   SFRSYM    DATA     BYTE      TH4
      0000008AH   SFRSYM    DATA     BYTE      TL0
      0000008BH   SFRSYM    DATA     BYTE      TL1
      00000098H.2 SFRSYM    DATA     BIT       U0RB8
      000000CCH   SFRSYM    DATA     BYTE      TL2
      000000B8H.4 SFRSYM    DATA     BIT       PS0
      000000DAH   SFRSYM    DATA     BYTE      TL3
      000000BFH   SFRSYM    DATA     BYTE      BUZCON
      000000B8H.6 SFRSYM    DATA     BIT       PS1
      000000B8H.1 SFRSYM    DATA     BIT       PT0
      00000098H.3 SFRSYM    DATA     BIT       U0TB8
      000000E2H   SFRSYM    DATA     BYTE      TL4
      000000D0H.3 SFRSYM    DATA     BIT       RS0
      000000B8H.3 SFRSYM    DATA     BIT       PT1
      000000D0H.4 SFRSYM    DATA     BIT       RS1
      000000B8H.5 SFRSYM    DATA     BIT       PT2
      00000098H.7 SFRSYM    DATA     BIT       U0SM0
      00000088H.4 SFRSYM    DATA     BIT       TR0
      000000BEH   SFRSYM    DATA     BYTE      BUZDIV
      00000098H.6 SFRSYM    DATA     BIT       U0SM1
      00000088H.6 SFRSYM    DATA     BIT       TR1
      000000B8H.0 SFRSYM    DATA     BIT       PX0
      00000098H.5 SFRSYM    DATA     BIT       U0SM2
      000000B8H.2 SFRSYM    DATA     BIT       PX1
      000000BDH   SFRSYM    DATA     BYTE      WUTCRH
      00000099H   SFRSYM    DATA     BYTE      SBUF0
      000000EBH   SFRSYM    DATA     BYTE      SBUF1
LX51 LINKER/LOCATER V4.66.97.0                                                        11/15/2024  17:07:44  PAGE 39


      000000BCH   SFRSYM    DATA     BYTE      WUTCRL
      00000098H   SFRSYM    DATA     BYTE      SCON0
      000000EAH   SFRSYM    DATA     BYTE      SCON1
      000000C8H   SFRSYM    DATA     BYTE      T2CON
      00000086H   SFRSYM    DATA     BYTE      DPS
      000000FEH   SFRSYM    DATA     BYTE      MDATA
      000000F6H   SFRSYM    DATA     BYTE      I2CMBUF
      000000F1H   SFRSYM    DATA     BYTE      I2CSADR
      00000098H.4 SFRSYM    DATA     BIT       U0REN
      000000C8H.5 SFRSYM    DATA     BIT       CAPES
      000000FDH   SFRSYM    DATA     BYTE      MADRH
      0000008EH   SFRSYM    DATA     BYTE      CKCON
      000000F3H   SFRSYM    DATA     BYTE      I2CSBUF
      000000FCH   SFRSYM    DATA     BYTE      MADRL
      000000D0H.5 SFRSYM    DATA     BIT       F0
      000000FBH   SFRSYM    DATA     BYTE      MLOCK
      000000D0H   SFRSYM    DATA     BYTE      PSW
      00000097H   SFRSYM    DATA     BYTE      WDCON

      01003A98H   BLOCK     CODE     ---       LVL=0
      00000021H.0 SYMBOL    BIT      BIT       IsEnable
      01003A98H   LINE      CODE     ---       #13
      01003A98H   LINE      CODE     ---       #14
      01003A98H   LINE      CODE     ---       #15
      01003A9CH   LINE      CODE     ---       #16
      01003A9CH   LINE      CODE     ---       #17
      01003A9EH   LINE      CODE     ---       #18
      01003AA2H   LINE      CODE     ---       #20
      01003AA2H   LINE      CODE     ---       #22
      01003AA4H   LINE      CODE     ---       #23
      01003AA7H   LINE      CODE     ---       #24
      01003AAAH   LINE      CODE     ---       #25
      01003AADH   LINE      CODE     ---       #26
      01003AB0H   LINE      CODE     ---       #28
      01003AB3H   LINE      CODE     ---       #29
      01003AB5H   LINE      CODE     ---       #30
      01003AB8H   LINE      CODE     ---       #32
      01003ABBH   LINE      CODE     ---       #33
      01003ABEH   LINE      CODE     ---       #34
      ---         BLOCKEND  ---      ---       LVL=0

      0100004EH   BLOCK     CODE     ---       LVL=0
      0100004EH   BLOCK     CODE     NEAR LAB  LVL=1
      00000023H   SYMBOL    DATA     INT       retry
      ---         BLOCKEND  ---      ---       LVL=1
      0100004EH   LINE      CODE     ---       #37
      0100004EH   LINE      CODE     ---       #38
      0100004EH   LINE      CODE     ---       #39
      01000054H   LINE      CODE     ---       #40
      01000056H   LINE      CODE     ---       #42
      01000056H   LINE      CODE     ---       #43
      0100005DH   LINE      CODE     ---       #44
      01000060H   LINE      CODE     ---       #45
      01000068H   LINE      CODE     ---       #46
      01000068H   LINE      CODE     ---       #47
      0100006EH   LINE      CODE     ---       #49
      01000070H   LINE      CODE     ---       #50
      ---         BLOCKEND  ---      ---       LVL=0

      01003557H   BLOCK     CODE     ---       LVL=0
      01003557H   LINE      CODE     ---       #53
      01003574H   LINE      CODE     ---       #55
      01003577H   LINE      CODE     ---       #57
      01003579H   LINE      CODE     ---       #58
      0100357BH   LINE      CODE     ---       #59
LX51 LINKER/LOCATER V4.66.97.0                                                        11/15/2024  17:07:44  PAGE 40


      0100357FH   LINE      CODE     ---       #60
      01003582H   LINE      CODE     ---       #62
      01003584H   LINE      CODE     ---       #63
      01003587H   LINE      CODE     ---       #64
      ---         BLOCKEND  ---      ---       LVL=0

      01003D39H   BLOCK     CODE     ---       LVL=0
      01003D39H   LINE      CODE     ---       #67
      01003D39H   LINE      CODE     ---       #69
      01003D3CH   LINE      CODE     ---       #70
      01003D3EH   LINE      CODE     ---       #71
      ---         BLOCKEND  ---      ---       LVL=0

      01003C68H   BLOCK     CODE     ---       LVL=0
      01003C68H   LINE      CODE     ---       #74
      01003C68H   LINE      CODE     ---       #75
      01003C68H   LINE      CODE     ---       #76
      01003C6BH   LINE      CODE     ---       #77
      01003C6EH   LINE      CODE     ---       #78
      01003C71H   LINE      CODE     ---       #79
      01003C74H   LINE      CODE     ---       #80
      01003C76H   LINE      CODE     ---       #81
      01003C79H   LINE      CODE     ---       #82
      01003C7CH   LINE      CODE     ---       #83
      ---         BLOCKEND  ---      ---       LVL=0

      010036F4H   BLOCK     CODE     ---       LVL=0
      00000004H   SYMBOL    DATA     INT       us
      010036F8H   BLOCK     CODE     NEAR LAB  LVL=1
      00000021H.0 SYMBOL    BIT      BIT       IsEA
      ---         BLOCKEND  ---      ---       LVL=1
      010036F4H   LINE      CODE     ---       #85
      010036F8H   LINE      CODE     ---       #86
      010036F8H   LINE      CODE     ---       #87
      010036FCH   LINE      CODE     ---       #88
      01003709H   LINE      CODE     ---       #89
      01003711H   LINE      CODE     ---       #91
      01003715H   LINE      CODE     ---       #92
      0100371AH   LINE      CODE     ---       #93
      0100371DH   LINE      CODE     ---       #95
      01003720H   LINE      CODE     ---       #96
      01003725H   LINE      CODE     ---       #98
      01003728H   LINE      CODE     ---       #99
      0100372FH   LINE      CODE     ---       #100
      01003732H   LINE      CODE     ---       #101
      ---         BLOCKEND  ---      ---       LVL=0

      0100260EH   BLOCK     CODE     ---       LVL=0
      0000002FH   SYMBOL    DATA     INT       ms
      01002612H   BLOCK     CODE     NEAR LAB  LVL=1
      00000031H   SYMBOL    DATA     DWORD     CNT
      00000035H   SYMBOL    DATA     INT       repcounter
      ---         BLOCKEND  ---      ---       LVL=1
      0100260EH   LINE      CODE     ---       #104
      01002612H   LINE      CODE     ---       #105
      01002612H   LINE      CODE     ---       #107
      01002617H   LINE      CODE     ---       #109
      01002620H   LINE      CODE     ---       #111
      01002620H   LINE      CODE     ---       #112
      01002628H   LINE      CODE     ---       #113
      01002644H   LINE      CODE     ---       #114
      01002665H   LINE      CODE     ---       #115
      01002665H   LINE      CODE     ---       #116
      0100267AH   LINE      CODE     ---       #117
      01002691H   LINE      CODE     ---       #120
LX51 LINKER/LOCATER V4.66.97.0                                                        11/15/2024  17:07:44  PAGE 41


      01002691H   LINE      CODE     ---       #122
      010026A0H   LINE      CODE     ---       #123
      010026A5H   LINE      CODE     ---       #124
      010026A7H   LINE      CODE     ---       #126
      010026AAH   LINE      CODE     ---       #127
      010026B2H   LINE      CODE     ---       #129
      010026B5H   LINE      CODE     ---       #130
      010026BDH   LINE      CODE     ---       #131
      010026BDH   LINE      CODE     ---       #132
      010026C3H   LINE      CODE     ---       #133
      ---         BLOCKEND  ---      ---       LVL=0

      ---         MODULE    ---      ---       NTC
      01003E6BH   PUBLIC    CONST    ---       NTCTableBottom
      01003D3FH   PUBLIC    CONST    ---       NTCTableTop
      010022FEH   PUBLIC    CODE     ---       _CalcNTCTemp

      01003B2FH   BLOCK     CODE     ---       LVL=0
      ---         BLOCKEND  ---      ---       LVL=0

      010022FEH   BLOCK     CODE     ---       LVL=0
      0000003CH   SYMBOL    DATA     ---       IsNTCOK
      0000003FH   SYMBOL    DATA     DWORD     NTCRes
      0100230CH   BLOCK     CODE     NEAR LAB  LVL=1
      00000043H   SYMBOL    DATA     INT       i
      00000045H   SYMBOL    DATA     DWORD     NTCTableValue
      ---         BLOCKEND  ---      ---       LVL=1
      010022FEH   LINE      CODE     ---       #64
      0100230CH   LINE      CODE     ---       #68
      0100231AH   LINE      CODE     ---       #69
      0100231AH   LINE      CODE     ---       #70
      0100231DH   LINE      CODE     ---       #71
      01002320H   LINE      CODE     ---       #72
      01002320H   LINE      CODE     ---       #74
      0100232BH   LINE      CODE     ---       #75
      0100232BH   LINE      CODE     ---       #76
      0100232EH   LINE      CODE     ---       #77
      01002331H   LINE      CODE     ---       #78
      01002331H   LINE      CODE     ---       #80
      01002336H   LINE      CODE     ---       #81
      01002379H   LINE      CODE     ---       #82
      0100237EH   LINE      CODE     ---       #83
      0100237EH   LINE      CODE     ---       #84
      010023A1H   LINE      CODE     ---       #85
      010023AEH   LINE      CODE     ---       #86
      010023CAH   LINE      CODE     ---       #87
      010023D8H   LINE      CODE     ---       #89
      010023DBH   LINE      CODE     ---       #90
      010023DCH   LINE      CODE     ---       #91
      ---         BLOCKEND  ---      ---       LVL=0

      ---         MODULE    ---      ---       SIDEKEY
      02000061H   PUBLIC    XDATA    BYTE      KeyState
      00000054H   PUBLIC    DATA     INT       SleepTimer
      01003D2BH   PUBLIC    CODE     ---       getSideKeyClickAndHoldEvent
      01003D24H   PUBLIC    CODE     ---       getSideKeyHoldEvent
      01003D06H   PUBLIC    CODE     ---       getSideKeyLongPressEvent
      00000021H.0 PUBLIC    BIT      BIT       ?getSideKeyShortPressCount?BIT
      01003B92H   PUBLIC    CODE     ---       getSideKeyShortPressCount
      0100296EH   PUBLIC    CODE     ---       SideKey_LogicHandler
      01003B72H   PUBLIC    CODE     ---       MarkAsKeyPressed
      010031FAH   PUBLIC    CODE     ---       SideKey_Int_Callback
      0100388CH   PUBLIC    CODE     ---       SideKey_TIM_Callback
      01003C7DH   PUBLIC    CODE     ---       IsKeyEventOccurred
      010035A2H   PUBLIC    CODE     ---       SideKeyInit
LX51 LINKER/LOCATER V4.66.97.0                                                        11/15/2024  17:07:44  PAGE 42


      000000C8H.0 SFRSYM    DATA     BIT       T2I0
      000000C3H   SFRSYM    DATA     BYTE      CCH1
      00000080H   SFRSYM    DATA     BYTE      P0
      000000C8H.1 SFRSYM    DATA     BIT       T2I1
      000000C5H   SFRSYM    DATA     BYTE      CCH2
      00000090H   SFRSYM    DATA     BYTE      P1
      000000C7H   SFRSYM    DATA     BYTE      CCH3
      000000ACH   SFRSYM    DATA     BYTE      P0EXTIE
      000000A0H   SFRSYM    DATA     BYTE      P2
      000000B4H   SFRSYM    DATA     BYTE      P0EXTIF
      000000B0H   SFRSYM    DATA     BYTE      P3
      000000ADH   SFRSYM    DATA     BYTE      P1EXTIE
      000000D0H.6 SFRSYM    DATA     BIT       AC
      000000FFH   SFRSYM    DATA     BYTE      MCTRL
      000000C2H   SFRSYM    DATA     BYTE      CCL1
      000000B5H   SFRSYM    DATA     BYTE      P1EXTIF
      000000AEH   SFRSYM    DATA     BYTE      P2EXTIE
      000000C4H   SFRSYM    DATA     BYTE      CCL2
      000000B6H   SFRSYM    DATA     BYTE      P2EXTIF
      000000AFH   SFRSYM    DATA     BYTE      P3EXTIE
      000000A8H.7 SFRSYM    DATA     BIT       EA
      000000C6H   SFRSYM    DATA     BYTE      CCL3
      000000B7H   SFRSYM    DATA     BYTE      P3EXTIF
      000000AAH   SFRSYM    DATA     BYTE      EIE2
      000000B2H   SFRSYM    DATA     BYTE      EIF2
      000000C8H.3 SFRSYM    DATA     BIT       T2R0
      000000C8H.4 SFRSYM    DATA     BIT       T2R1
      00000083H   SFRSYM    DATA     BYTE      DPH0
      000000A8H   SFRSYM    DATA     BYTE      IE
      00000085H   SFRSYM    DATA     BYTE      DPH1
      000000B9H   SFRSYM    DATA     BYTE      EIP1
      000000BAH   SFRSYM    DATA     BYTE      EIP2
      00000082H   SFRSYM    DATA     BYTE      DPL0
      00000084H   SFRSYM    DATA     BYTE      DPL1
      000000C8H.6 SFRSYM    DATA     BIT       I3FR
      000000CFH   SFRSYM    DATA     BYTE      T2IE
      00000096H   SFRSYM    DATA     BYTE      TA
      000000C9H   SFRSYM    DATA     BYTE      T2IF
      000000C8H.2 SFRSYM    DATA     BIT       T2CM
      000000DFH   SFRSYM    DATA     BYTE      ADCON0
      000000DEH   SFRSYM    DATA     BYTE      ADCON1
      000000E9H   SFRSYM    DATA     BYTE      ADCON2
      000000B8H   SFRSYM    DATA     BYTE      IP
      000000CEH   SFRSYM    DATA     BYTE      CCEN
      000000D0H.7 SFRSYM    DATA     BIT       CY
      000000D2H   SFRSYM    DATA     BYTE      T34MOD
      00000093H   SFRSYM    DATA     BYTE      DPX0
      00000095H   SFRSYM    DATA     BYTE      DPX1
      000000F4H   SFRSYM    DATA     BYTE      I2CMSA
      000000F5H   SFRSYM    DATA     BYTE      I2CMCR
      00000081H   SFRSYM    DATA     BYTE      SP
      000000D0H.2 SFRSYM    DATA     BIT       OV
      000000F2H   SFRSYM    DATA     BYTE      I2CSCR
      000000C8H.7 SFRSYM    DATA     BIT       T2PS
      000000D1H   SFRSYM    DATA     BYTE      ADCMPC
      000000CBH   SFRSYM    DATA     BYTE      RLDH
      000000D5H   SFRSYM    DATA     BYTE      ADCMPH
      000000CAH   SFRSYM    DATA     BYTE      RLDL
      00000080H.0 SFRSYM    DATA     BIT       P00
      00000090H.0 SFRSYM    DATA     BIT       P10
      00000080H.1 SFRSYM    DATA     BIT       P01
      000000F7H   SFRSYM    DATA     BYTE      I2CMTP
      00000099H   SFRSYM    DATA     BYTE      SBUF
      00000087H   SFRSYM    DATA     BYTE      PCON
      000000A0H.0 SFRSYM    DATA     BIT       P20
LX51 LINKER/LOCATER V4.66.97.0                                                        11/15/2024  17:07:44  PAGE 43


      00000090H.1 SFRSYM    DATA     BIT       P11
      00000080H.2 SFRSYM    DATA     BIT       P02
      000000F5H   SFRSYM    DATA     BYTE      I2CMSR
      000000B0H.0 SFRSYM    DATA     BIT       P30
      000000A0H.1 SFRSYM    DATA     BIT       P21
      00000090H.2 SFRSYM    DATA     BIT       P12
      00000080H.3 SFRSYM    DATA     BIT       P03
      000000D4H   SFRSYM    DATA     BYTE      ADCMPL
      000000B0H.1 SFRSYM    DATA     BIT       P31
      000000A0H.2 SFRSYM    DATA     BIT       P22
      00000090H.3 SFRSYM    DATA     BIT       P13
      00000080H.4 SFRSYM    DATA     BIT       P04
      000000B0H.2 SFRSYM    DATA     BIT       P32
      000000A0H.3 SFRSYM    DATA     BIT       P23
      00000090H.4 SFRSYM    DATA     BIT       P14
      00000080H.5 SFRSYM    DATA     BIT       P05
      00000089H   SFRSYM    DATA     BYTE      TMOD
      00000088H   SFRSYM    DATA     BYTE      TCON
      000000B0H.3 SFRSYM    DATA     BIT       P33
      000000A0H.4 SFRSYM    DATA     BIT       P24
      00000090H.5 SFRSYM    DATA     BIT       P15
      00000080H.6 SFRSYM    DATA     BIT       P06
      000000B0H.4 SFRSYM    DATA     BIT       P34
      000000A0H.5 SFRSYM    DATA     BIT       P25
      00000090H.6 SFRSYM    DATA     BIT       P16
      00000080H.7 SFRSYM    DATA     BIT       P07
      000000B0H.5 SFRSYM    DATA     BIT       P35
      000000A0H.6 SFRSYM    DATA     BIT       P26
      00000090H.7 SFRSYM    DATA     BIT       P17
      000000F2H   SFRSYM    DATA     BYTE      I2CSSR
      000000B0H.6 SFRSYM    DATA     BIT       P36
      000000A0H.7 SFRSYM    DATA     BIT       P27
      000000ECH   SFRSYM    DATA     BYTE      SPCR
      000000DDH   SFRSYM    DATA     BYTE      ADRESH
      000000B0H.7 SFRSYM    DATA     BIT       P37
      000000EEH   SFRSYM    DATA     BYTE      SPDR
      000000A0H.3 SFRSYM    DATA     BIT       KeyPress
      000000EFH   SFRSYM    DATA     BYTE      SSCR
      000000D3H   SFRSYM    DATA     BYTE      ADDLYL
      000000DCH   SFRSYM    DATA     BYTE      ADRESL
      00000088H.1 SFRSYM    DATA     BIT       IE0
      00000088H.3 SFRSYM    DATA     BIT       IE1
      0000008FH   SFRSYM    DATA     BYTE      CLKDIV
      000000F0H   SFRSYM    DATA     BYTE      B
      00000091H   SFRSYM    DATA     BYTE      FUNCCR
      0000009AH   SFRSYM    DATA     BYTE      P0TRIS
      000000A1H   SFRSYM    DATA     BYTE      P1TRIS
      000000A2H   SFRSYM    DATA     BYTE      P2TRIS
      000000E0H   SFRSYM    DATA     BYTE      ACC
      000000A3H   SFRSYM    DATA     BYTE      P3TRIS
      000000A8H.4 SFRSYM    DATA     BIT       ES0
      000000A8H.6 SFRSYM    DATA     BIT       ES1
      000000A8H.1 SFRSYM    DATA     BIT       ET0
      000000EDH   SFRSYM    DATA     BYTE      SPSR
      000000A8H.3 SFRSYM    DATA     BIT       ET1
      00000088H.5 SFRSYM    DATA     BIT       TF0
      000000A8H.5 SFRSYM    DATA     BIT       ET2
      00000098H.0 SFRSYM    DATA     BIT       RI0
      00000088H.7 SFRSYM    DATA     BIT       TF1
      0000008CH   SFRSYM    DATA     BYTE      TH0
      000000A8H.0 SFRSYM    DATA     BIT       EX0
      00000098H.1 SFRSYM    DATA     BIT       TI0
      00000088H.0 SFRSYM    DATA     BIT       IT0
      0000008DH   SFRSYM    DATA     BYTE      TH1
      000000A8H.2 SFRSYM    DATA     BIT       EX1
LX51 LINKER/LOCATER V4.66.97.0                                                        11/15/2024  17:07:44  PAGE 44


      00000088H.2 SFRSYM    DATA     BIT       IT1
      000000CDH   SFRSYM    DATA     BYTE      TH2
      000000D0H.0 SFRSYM    DATA     BIT       P
      000000DBH   SFRSYM    DATA     BYTE      TH3
      000000E3H   SFRSYM    DATA     BYTE      TH4
      0000008AH   SFRSYM    DATA     BYTE      TL0
      0000008BH   SFRSYM    DATA     BYTE      TL1
      00000098H.2 SFRSYM    DATA     BIT       U0RB8
      000000CCH   SFRSYM    DATA     BYTE      TL2
      000000B8H.4 SFRSYM    DATA     BIT       PS0
      000000DAH   SFRSYM    DATA     BYTE      TL3
      000000BFH   SFRSYM    DATA     BYTE      BUZCON
      000000B8H.6 SFRSYM    DATA     BIT       PS1
      000000B8H.1 SFRSYM    DATA     BIT       PT0
      00000098H.3 SFRSYM    DATA     BIT       U0TB8
      000000E2H   SFRSYM    DATA     BYTE      TL4
      000000D0H.3 SFRSYM    DATA     BIT       RS0
      000000B8H.3 SFRSYM    DATA     BIT       PT1
      000000D0H.4 SFRSYM    DATA     BIT       RS1
      000000B8H.5 SFRSYM    DATA     BIT       PT2
      00000098H.7 SFRSYM    DATA     BIT       U0SM0
      00000088H.4 SFRSYM    DATA     BIT       TR0
      000000BEH   SFRSYM    DATA     BYTE      BUZDIV
      00000098H.6 SFRSYM    DATA     BIT       U0SM1
      00000088H.6 SFRSYM    DATA     BIT       TR1
      000000B8H.0 SFRSYM    DATA     BIT       PX0
      00000098H.5 SFRSYM    DATA     BIT       U0SM2
      000000B8H.2 SFRSYM    DATA     BIT       PX1
      000000BDH   SFRSYM    DATA     BYTE      WUTCRH
      00000099H   SFRSYM    DATA     BYTE      SBUF0
      000000EBH   SFRSYM    DATA     BYTE      SBUF1
      000000BCH   SFRSYM    DATA     BYTE      WUTCRL
      00000098H   SFRSYM    DATA     BYTE      SCON0
      000000EAH   SFRSYM    DATA     BYTE      SCON1
      000000C8H   SFRSYM    DATA     BYTE      T2CON
      00000086H   SFRSYM    DATA     BYTE      DPS
      000000FEH   SFRSYM    DATA     BYTE      MDATA
      000000F6H   SFRSYM    DATA     BYTE      I2CMBUF
      000000F1H   SFRSYM    DATA     BYTE      I2CSADR
      00000098H.4 SFRSYM    DATA     BIT       U0REN
      000000C8H.5 SFRSYM    DATA     BIT       CAPES
      000000FDH   SFRSYM    DATA     BYTE      MADRH
      0000008EH   SFRSYM    DATA     BYTE      CKCON
      000000F3H   SFRSYM    DATA     BYTE      I2CSBUF
      000000FCH   SFRSYM    DATA     BYTE      MADRL
      000000D0H.5 SFRSYM    DATA     BIT       F0
      000000FBH   SFRSYM    DATA     BYTE      MLOCK
      000000D0H   SFRSYM    DATA     BYTE      PSW
      00000097H   SFRSYM    DATA     BYTE      WDCON
      00000056H   SYMBOL    DATA     ---       KeyTimer
      00000022H.6 SYMBOL    BIT      BIT       IsKeyPressed
      00000058H   SYMBOL    DATA     ---       Keyevent
      01003C25H   SYMBOL    CODE     ---       _ClickAndHoldEventHandler

      01000003H   BLOCK     CODE     ---       LVL=0
      ---         BLOCKEND  ---      ---       LVL=0

      010035A2H   BLOCK     CODE     ---       LVL=0
      010035A2H   BLOCK     CODE     NEAR LAB  LVL=1
      00000023H   SYMBOL    DATA     ---       KeyInitCfg
      ---         BLOCKEND  ---      ---       LVL=1
      010035A2H   LINE      CODE     ---       #19
      010035A2H   LINE      CODE     ---       #20
      010035A2H   LINE      CODE     ---       #23
      010035A5H   LINE      CODE     ---       #24
LX51 LINKER/LOCATER V4.66.97.0                                                        11/15/2024  17:07:44  PAGE 45


      010035A8H   LINE      CODE     ---       #25
      010035AAH   LINE      CODE     ---       #27
      010035B2H   LINE      CODE     ---       #28
      010035BFH   LINE      CODE     ---       #29
      010035C6H   LINE      CODE     ---       #30
      010035CFH   LINE      CODE     ---       #31
      010035D2H   LINE      CODE     ---       #33
      010035D8H   LINE      CODE     ---       #34
      010035DEH   LINE      CODE     ---       #35
      010035E1H   LINE      CODE     ---       #36
      010035E3H   LINE      CODE     ---       #37
      010035E5H   LINE      CODE     ---       #38
      010035E7H   LINE      CODE     ---       #39
      010035E9H   LINE      CODE     ---       #40
      010035EBH   LINE      CODE     ---       #41
      ---         BLOCKEND  ---      ---       LVL=0

      01003C7DH   BLOCK     CODE     ---       LVL=0
      01003C7DH   LINE      CODE     ---       #44
      01003C7DH   LINE      CODE     ---       #45
      01003C7DH   LINE      CODE     ---       #46
      01003C83H   LINE      CODE     ---       #47
      01003C89H   LINE      CODE     ---       #48
      01003C8FH   LINE      CODE     ---       #50
      01003C8FH   LINE      CODE     ---       #51
      ---         BLOCKEND  ---      ---       LVL=0

      0100388CH   BLOCK     CODE     ---       LVL=0
      0100388CH   BLOCK     CODE     NEAR LAB  LVL=1
      00000007H   SYMBOL    DATA     BYTE      buf
      ---         BLOCKEND  ---      ---       LVL=1
      0100388CH   LINE      CODE     ---       #54
      0100388CH   LINE      CODE     ---       #55
      0100388CH   LINE      CODE     ---       #58
      01003891H   LINE      CODE     ---       #59
      01003891H   LINE      CODE     ---       #60
      01003894H   LINE      CODE     ---       #61
      0100389AH   LINE      CODE     ---       #62
      0100389DH   LINE      CODE     ---       #63
      010038A0H   LINE      CODE     ---       #64
      010038A2H   LINE      CODE     ---       #65
      010038A5H   LINE      CODE     ---       #67
      010038AAH   LINE      CODE     ---       #68
      010038AAH   LINE      CODE     ---       #69
      010038ADH   LINE      CODE     ---       #70
      010038B3H   LINE      CODE     ---       #71
      010038B6H   LINE      CODE     ---       #72
      010038B9H   LINE      CODE     ---       #73
      010038BAH   LINE      CODE     ---       #74
      010038BDH   LINE      CODE     ---       #75
      ---         BLOCKEND  ---      ---       LVL=0

      010031FAH   BLOCK     CODE     ---       LVL=0
      010031FAH   BLOCK     CODE     NEAR LAB  LVL=1
      00000007H   SYMBOL    DATA     BYTE      time
      ---         BLOCKEND  ---      ---       LVL=1
      010031FAH   LINE      CODE     ---       #78
      010031FAH   LINE      CODE     ---       #79
      010031FAH   LINE      CODE     ---       #82
      01003207H   LINE      CODE     ---       #83
      01003207H   LINE      CODE     ---       #84
      01003209H   LINE      CODE     ---       #85
      0100320EH   LINE      CODE     ---       #86
      01003211H   LINE      CODE     ---       #87
      01003219H   LINE      CODE     ---       #88
LX51 LINKER/LOCATER V4.66.97.0                                                        11/15/2024  17:07:44  PAGE 46


      01003219H   LINE      CODE     ---       #89
      0100321CH   LINE      CODE     ---       #90
      0100321EH   LINE      CODE     ---       #91
      01003220H   LINE      CODE     ---       #92
      01003226H   LINE      CODE     ---       #93
      01003226H   LINE      CODE     ---       #94
      01003236H   LINE      CODE     ---       #95
      01003239H   LINE      CODE     ---       #96
      01003239H   LINE      CODE     ---       #97
      0100323BH   LINE      CODE     ---       #100
      0100323BH   LINE      CODE     ---       #101
      0100323DH   LINE      CODE     ---       #102
      01003243H   LINE      CODE     ---       #103
      0100324BH   LINE      CODE     ---       #104
      01003253H   LINE      CODE     ---       #105
      01003253H   LINE      CODE     ---       #107
      0100325AH   LINE      CODE     ---       #108
      01003260H   LINE      CODE     ---       #109
      ---         BLOCKEND  ---      ---       LVL=0

      01003B72H   BLOCK     CODE     ---       LVL=0
      01003B72H   LINE      CODE     ---       #112
      01003B72H   LINE      CODE     ---       #113
      01003B72H   LINE      CODE     ---       #115
      01003B79H   LINE      CODE     ---       #116
      01003B7FH   LINE      CODE     ---       #118
      01003B81H   LINE      CODE     ---       #119
      01003B89H   LINE      CODE     ---       #120
      01003B91H   LINE      CODE     ---       #121
      ---         BLOCKEND  ---      ---       LVL=0

      01003C25H   BLOCK     CODE     ---       LVL=0
      00000006H   SYMBOL    DATA     INT       PressCount
      01003C25H   LINE      CODE     ---       #124
      01003C25H   LINE      CODE     ---       #125
      01003C25H   LINE      CODE     ---       #126
      01003C28H   LINE      CODE     ---       #127
      01003C2AH   LINE      CODE     ---       #128
      01003C2CH   LINE      CODE     ---       #129
      01003C2EH   LINE      CODE     ---       #130
      01003C30H   LINE      CODE     ---       #132
      01003C3CH   LINE      CODE     ---       #133
      ---         BLOCKEND  ---      ---       LVL=0

      0100296EH   BLOCK     CODE     ---       LVL=0
      0100296EH   BLOCK     CODE     NEAR LAB  LVL=1
      00000006H   SYMBOL    DATA     BYTE      buf
      ---         BLOCKEND  ---      ---       LVL=1
      0100296EH   LINE      CODE     ---       #135
      0100296EH   LINE      CODE     ---       #136
      0100296EH   LINE      CODE     ---       #139
      01002977H   LINE      CODE     ---       #140
      01002977H   LINE      CODE     ---       #141
      0100297EH   LINE      CODE     ---       #142
      01002987H   LINE      CODE     ---       #143
      0100298EH   LINE      CODE     ---       #145
      01002996H   LINE      CODE     ---       #146
      010029A0H   LINE      CODE     ---       #147
      010029A0H   LINE      CODE     ---       #148
      010029A3H   LINE      CODE     ---       #149
      010029ADH   LINE      CODE     ---       #150
      010029BFH   LINE      CODE     ---       #151
      010029C6H   LINE      CODE     ---       #152
      010029C6H   LINE      CODE     ---       #153
      010029C6H   LINE      CODE     ---       #155
LX51 LINKER/LOCATER V4.66.97.0                                                        11/15/2024  17:07:44  PAGE 47


      010029D1H   LINE      CODE     ---       #157
      010029DAH   LINE      CODE     ---       #158
      010029DAH   LINE      CODE     ---       #160
      010029EDH   LINE      CODE     ---       #162
      010029EDH   LINE      CODE     ---       #163
      010029F0H   LINE      CODE     ---       #164
      010029F2H   LINE      CODE     ---       #165
      010029F5H   LINE      CODE     ---       #166
      010029F8H   LINE      CODE     ---       #167
      010029F8H   LINE      CODE     ---       #168
      010029FBH   LINE      CODE     ---       #169
      010029FBH   LINE      CODE     ---       #171
      01002A04H   LINE      CODE     ---       #172
      01002A04H   LINE      CODE     ---       #173
      01002A06H   LINE      CODE     ---       #174
      01002A0AH   LINE      CODE     ---       #175
      01002A0EH   LINE      CODE     ---       #177
      01002A11H   LINE      CODE     ---       #178
      01002A11H   LINE      CODE     ---       #179
      ---         BLOCKEND  ---      ---       LVL=0

      01003B92H   BLOCK     CODE     ---       LVL=0
      00000021H.0 SYMBOL    BIT      BIT       IsRemoveResult
      01003B92H   BLOCK     CODE     NEAR LAB  LVL=1
      00000006H   SYMBOL    DATA     INT       buf
      ---         BLOCKEND  ---      ---       LVL=1
      01003B92H   LINE      CODE     ---       #181
      01003B92H   LINE      CODE     ---       #182
      01003B92H   LINE      CODE     ---       #184
      01003B9EH   LINE      CODE     ---       #185
      01003BA5H   LINE      CODE     ---       #186
      01003BA8H   LINE      CODE     ---       #187
      01003BABH   LINE      CODE     ---       #188
      01003BABH   LINE      CODE     ---       #189
      01003BAEH   LINE      CODE     ---       #190
      01003BB0H   LINE      CODE     ---       #191
      01003BB0H   LINE      CODE     ---       #192
      01003BB0H   LINE      CODE     ---       #193
      ---         BLOCKEND  ---      ---       LVL=0

      01003D06H   BLOCK     CODE     ---       LVL=0
      01003D06H   LINE      CODE     ---       #195
      01003D06H   LINE      CODE     ---       #196
      01003D06H   LINE      CODE     ---       #197
      01003D0CH   LINE      CODE     ---       #198
      01003D0FH   LINE      CODE     ---       #199
      01003D10H   LINE      CODE     ---       #200
      ---         BLOCKEND  ---      ---       LVL=0

      01003D24H   BLOCK     CODE     ---       LVL=0
      01003D24H   LINE      CODE     ---       #202
      01003D24H   LINE      CODE     ---       #203
      01003D24H   LINE      CODE     ---       #204
      01003D2AH   LINE      CODE     ---       #205
      ---         BLOCKEND  ---      ---       LVL=0

      01003D2BH   BLOCK     CODE     ---       LVL=0
      01003D2BH   LINE      CODE     ---       #207
      01003D2BH   LINE      CODE     ---       #208
      01003D2BH   LINE      CODE     ---       #209
      01003D31H   LINE      CODE     ---       #210
      ---         BLOCKEND  ---      ---       LVL=0

      ---         MODULE    ---      ---       LEDMGMT
      0000005EH   PUBLIC    DATA     BYTE      LEDMode
LX51 LINKER/LOCATER V4.66.97.0                                                        11/15/2024  17:07:44  PAGE 48


      01003A1FH   PUBLIC    CODE     ---       _MakeFastStrobe
      01001E5AH   PUBLIC    CODE     ---       LEDControlHandler
      01003A48H   PUBLIC    CODE     ---       LED_Init
      000000C8H.0 SFRSYM    DATA     BIT       T2I0
      000000C3H   SFRSYM    DATA     BYTE      CCH1
      00000080H   SFRSYM    DATA     BYTE      P0
      000000C8H.1 SFRSYM    DATA     BIT       T2I1
      000000C5H   SFRSYM    DATA     BYTE      CCH2
      00000090H   SFRSYM    DATA     BYTE      P1
      000000C7H   SFRSYM    DATA     BYTE      CCH3
      000000ACH   SFRSYM    DATA     BYTE      P0EXTIE
      000000A0H   SFRSYM    DATA     BYTE      P2
      000000B4H   SFRSYM    DATA     BYTE      P0EXTIF
      000000B0H   SFRSYM    DATA     BYTE      P3
      000000ADH   SFRSYM    DATA     BYTE      P1EXTIE
      000000D0H.6 SFRSYM    DATA     BIT       AC
      000000FFH   SFRSYM    DATA     BYTE      MCTRL
      000000C2H   SFRSYM    DATA     BYTE      CCL1
      000000B5H   SFRSYM    DATA     BYTE      P1EXTIF
      000000AEH   SFRSYM    DATA     BYTE      P2EXTIE
      000000C4H   SFRSYM    DATA     BYTE      CCL2
      000000B6H   SFRSYM    DATA     BYTE      P2EXTIF
      000000AFH   SFRSYM    DATA     BYTE      P3EXTIE
      000000A8H.7 SFRSYM    DATA     BIT       EA
      000000C6H   SFRSYM    DATA     BYTE      CCL3
      000000B7H   SFRSYM    DATA     BYTE      P3EXTIF
      000000AAH   SFRSYM    DATA     BYTE      EIE2
      000000B2H   SFRSYM    DATA     BYTE      EIF2
      000000C8H.3 SFRSYM    DATA     BIT       T2R0
      000000C8H.4 SFRSYM    DATA     BIT       T2R1
      00000083H   SFRSYM    DATA     BYTE      DPH0
      000000A8H   SFRSYM    DATA     BYTE      IE
      00000085H   SFRSYM    DATA     BYTE      DPH1
      000000B9H   SFRSYM    DATA     BYTE      EIP1
      000000BAH   SFRSYM    DATA     BYTE      EIP2
      00000082H   SFRSYM    DATA     BYTE      DPL0
      00000084H   SFRSYM    DATA     BYTE      DPL1
      000000C8H.6 SFRSYM    DATA     BIT       I3FR
      000000CFH   SFRSYM    DATA     BYTE      T2IE
      00000096H   SFRSYM    DATA     BYTE      TA
      000000C9H   SFRSYM    DATA     BYTE      T2IF
      000000C8H.2 SFRSYM    DATA     BIT       T2CM
      000000DFH   SFRSYM    DATA     BYTE      ADCON0
      000000DEH   SFRSYM    DATA     BYTE      ADCON1
      000000E9H   SFRSYM    DATA     BYTE      ADCON2
      000000B8H   SFRSYM    DATA     BYTE      IP
      000000CEH   SFRSYM    DATA     BYTE      CCEN
      000000D0H.7 SFRSYM    DATA     BIT       CY
      000000A0H.5 SFRSYM    DATA     BIT       GLED
      000000D2H   SFRSYM    DATA     BYTE      T34MOD
      00000093H   SFRSYM    DATA     BYTE      DPX0
      00000095H   SFRSYM    DATA     BYTE      DPX1
      000000F4H   SFRSYM    DATA     BYTE      I2CMSA
      000000F5H   SFRSYM    DATA     BYTE      I2CMCR
      00000081H   SFRSYM    DATA     BYTE      SP
      000000D0H.2 SFRSYM    DATA     BIT       OV
      000000A0H.4 SFRSYM    DATA     BIT       RLED
      000000F2H   SFRSYM    DATA     BYTE      I2CSCR
      000000C8H.7 SFRSYM    DATA     BIT       T2PS
      000000D1H   SFRSYM    DATA     BYTE      ADCMPC
      000000CBH   SFRSYM    DATA     BYTE      RLDH
      000000D5H   SFRSYM    DATA     BYTE      ADCMPH
      000000CAH   SFRSYM    DATA     BYTE      RLDL
      00000080H.0 SFRSYM    DATA     BIT       P00
      00000090H.0 SFRSYM    DATA     BIT       P10
LX51 LINKER/LOCATER V4.66.97.0                                                        11/15/2024  17:07:44  PAGE 49


      00000080H.1 SFRSYM    DATA     BIT       P01
      000000F7H   SFRSYM    DATA     BYTE      I2CMTP
      00000099H   SFRSYM    DATA     BYTE      SBUF
      00000087H   SFRSYM    DATA     BYTE      PCON
      000000A0H.0 SFRSYM    DATA     BIT       P20
      00000090H.1 SFRSYM    DATA     BIT       P11
      00000080H.2 SFRSYM    DATA     BIT       P02
      000000F5H   SFRSYM    DATA     BYTE      I2CMSR
      000000B0H.0 SFRSYM    DATA     BIT       P30
      000000A0H.1 SFRSYM    DATA     BIT       P21
      00000090H.2 SFRSYM    DATA     BIT       P12
      00000080H.3 SFRSYM    DATA     BIT       P03
      000000D4H   SFRSYM    DATA     BYTE      ADCMPL
      000000B0H.1 SFRSYM    DATA     BIT       P31
      000000A0H.2 SFRSYM    DATA     BIT       P22
      00000090H.3 SFRSYM    DATA     BIT       P13
      00000080H.4 SFRSYM    DATA     BIT       P04
      000000B0H.2 SFRSYM    DATA     BIT       P32
      000000A0H.3 SFRSYM    DATA     BIT       P23
      00000090H.4 SFRSYM    DATA     BIT       P14
      00000080H.5 SFRSYM    DATA     BIT       P05
      00000089H   SFRSYM    DATA     BYTE      TMOD
      00000088H   SFRSYM    DATA     BYTE      TCON
      000000B0H.3 SFRSYM    DATA     BIT       P33
      000000A0H.4 SFRSYM    DATA     BIT       P24
      00000090H.5 SFRSYM    DATA     BIT       P15
      00000080H.6 SFRSYM    DATA     BIT       P06
      000000B0H.4 SFRSYM    DATA     BIT       P34
      000000A0H.5 SFRSYM    DATA     BIT       P25
      00000090H.6 SFRSYM    DATA     BIT       P16
      00000080H.7 SFRSYM    DATA     BIT       P07
      000000B0H.5 SFRSYM    DATA     BIT       P35
      000000A0H.6 SFRSYM    DATA     BIT       P26
      00000090H.7 SFRSYM    DATA     BIT       P17
      000000F2H   SFRSYM    DATA     BYTE      I2CSSR
      000000B0H.6 SFRSYM    DATA     BIT       P36
      000000A0H.7 SFRSYM    DATA     BIT       P27
      000000ECH   SFRSYM    DATA     BYTE      SPCR
      000000DDH   SFRSYM    DATA     BYTE      ADRESH
      000000B0H.7 SFRSYM    DATA     BIT       P37
      000000EEH   SFRSYM    DATA     BYTE      SPDR
      000000EFH   SFRSYM    DATA     BYTE      SSCR
      000000D3H   SFRSYM    DATA     BYTE      ADDLYL
      000000DCH   SFRSYM    DATA     BYTE      ADRESL
      00000088H.1 SFRSYM    DATA     BIT       IE0
      00000088H.3 SFRSYM    DATA     BIT       IE1
      0000008FH   SFRSYM    DATA     BYTE      CLKDIV
      000000F0H   SFRSYM    DATA     BYTE      B
      00000091H   SFRSYM    DATA     BYTE      FUNCCR
      0000009AH   SFRSYM    DATA     BYTE      P0TRIS
      000000A1H   SFRSYM    DATA     BYTE      P1TRIS
      000000A2H   SFRSYM    DATA     BYTE      P2TRIS
      000000E0H   SFRSYM    DATA     BYTE      ACC
      000000A3H   SFRSYM    DATA     BYTE      P3TRIS
      000000A8H.4 SFRSYM    DATA     BIT       ES0
      000000A8H.6 SFRSYM    DATA     BIT       ES1
      000000A8H.1 SFRSYM    DATA     BIT       ET0
      000000EDH   SFRSYM    DATA     BYTE      SPSR
      000000A8H.3 SFRSYM    DATA     BIT       ET1
      00000088H.5 SFRSYM    DATA     BIT       TF0
      000000A8H.5 SFRSYM    DATA     BIT       ET2
      00000098H.0 SFRSYM    DATA     BIT       RI0
      00000088H.7 SFRSYM    DATA     BIT       TF1
      0000008CH   SFRSYM    DATA     BYTE      TH0
      000000A8H.0 SFRSYM    DATA     BIT       EX0
LX51 LINKER/LOCATER V4.66.97.0                                                        11/15/2024  17:07:44  PAGE 50


      00000098H.1 SFRSYM    DATA     BIT       TI0
      00000088H.0 SFRSYM    DATA     BIT       IT0
      0000008DH   SFRSYM    DATA     BYTE      TH1
      000000A8H.2 SFRSYM    DATA     BIT       EX1
      00000088H.2 SFRSYM    DATA     BIT       IT1
      000000CDH   SFRSYM    DATA     BYTE      TH2
      000000D0H.0 SFRSYM    DATA     BIT       P
      000000DBH   SFRSYM    DATA     BYTE      TH3
      000000E3H   SFRSYM    DATA     BYTE      TH4
      0000008AH   SFRSYM    DATA     BYTE      TL0
      0000008BH   SFRSYM    DATA     BYTE      TL1
      00000098H.2 SFRSYM    DATA     BIT       U0RB8
      000000CCH   SFRSYM    DATA     BYTE      TL2
      000000B8H.4 SFRSYM    DATA     BIT       PS0
      000000DAH   SFRSYM    DATA     BYTE      TL3
      000000BFH   SFRSYM    DATA     BYTE      BUZCON
      000000B8H.6 SFRSYM    DATA     BIT       PS1
      000000B8H.1 SFRSYM    DATA     BIT       PT0
      00000098H.3 SFRSYM    DATA     BIT       U0TB8
      000000E2H   SFRSYM    DATA     BYTE      TL4
      000000D0H.3 SFRSYM    DATA     BIT       RS0
      000000B8H.3 SFRSYM    DATA     BIT       PT1
      000000D0H.4 SFRSYM    DATA     BIT       RS1
      000000B8H.5 SFRSYM    DATA     BIT       PT2
      00000098H.7 SFRSYM    DATA     BIT       U0SM0
      00000088H.4 SFRSYM    DATA     BIT       TR0
      000000BEH   SFRSYM    DATA     BYTE      BUZDIV
      00000098H.6 SFRSYM    DATA     BIT       U0SM1
      00000088H.6 SFRSYM    DATA     BIT       TR1
      000000B8H.0 SFRSYM    DATA     BIT       PX0
      00000098H.5 SFRSYM    DATA     BIT       U0SM2
      000000B8H.2 SFRSYM    DATA     BIT       PX1
      000000BDH   SFRSYM    DATA     BYTE      WUTCRH
      00000099H   SFRSYM    DATA     BYTE      SBUF0
      000000EBH   SFRSYM    DATA     BYTE      SBUF1
      000000BCH   SFRSYM    DATA     BYTE      WUTCRL
      00000098H   SFRSYM    DATA     BYTE      SCON0
      000000EAH   SFRSYM    DATA     BYTE      SCON1
      000000C8H   SFRSYM    DATA     BYTE      T2CON
      00000086H   SFRSYM    DATA     BYTE      DPS
      000000FEH   SFRSYM    DATA     BYTE      MDATA
      000000F6H   SFRSYM    DATA     BYTE      I2CMBUF
      000000F1H   SFRSYM    DATA     BYTE      I2CSADR
      00000098H.4 SFRSYM    DATA     BIT       U0REN
      000000C8H.5 SFRSYM    DATA     BIT       CAPES
      000000FDH   SFRSYM    DATA     BYTE      MADRH
      0000008EH   SFRSYM    DATA     BYTE      CKCON
      000000F3H   SFRSYM    DATA     BYTE      I2CSBUF
      000000FCH   SFRSYM    DATA     BYTE      MADRL
      000000D0H.5 SFRSYM    DATA     BIT       F0
      000000FBH   SFRSYM    DATA     BYTE      MLOCK
      000000D0H   SFRSYM    DATA     BYTE      PSW
      00000097H   SFRSYM    DATA     BYTE      WDCON
      0000005DH   SYMBOL    DATA     CHAR      timer
      02000062H   SYMBOL    XDATA    CHAR      StepDownTIM

      01003D11H   BLOCK     CODE     ---       LVL=0
      ---         BLOCKEND  ---      ---       LVL=0

      01003A48H   BLOCK     CODE     ---       LVL=0
      01003A48H   BLOCK     CODE     NEAR LAB  LVL=1
      00000025H   SYMBOL    DATA     ---       LEDInitCfg
      ---         BLOCKEND  ---      ---       LVL=1
      01003A48H   LINE      CODE     ---       #15
      01003A48H   LINE      CODE     ---       #16
LX51 LINKER/LOCATER V4.66.97.0                                                        11/15/2024  17:07:44  PAGE 51


      01003A48H   LINE      CODE     ---       #19
      01003A4BH   LINE      CODE     ---       #20
      01003A4EH   LINE      CODE     ---       #21
      01003A51H   LINE      CODE     ---       #23
      01003A53H   LINE      CODE     ---       #24
      01003A55H   LINE      CODE     ---       #26
      01003A5BH   LINE      CODE     ---       #27
      01003A62H   LINE      CODE     ---       #29
      01003A65H   LINE      CODE     ---       #30
      ---         BLOCKEND  ---      ---       LVL=0

      01001E5AH   BLOCK     CODE     ---       LVL=0
      01001E5AH   BLOCK     CODE     NEAR LAB  LVL=1
      00000007H   SYMBOL    DATA     CHAR      buf
      00000020H.7 SYMBOL    BIT      BIT       IsLEDON
      ---         BLOCKEND  ---      ---       LVL=1
      01001E5AH   LINE      CODE     ---       #32
      01001E5AH   LINE      CODE     ---       #33
      01001E5AH   LINE      CODE     ---       #38
      01001E5DH   LINE      CODE     ---       #39
      01001E5DH   LINE      CODE     ---       #40
      01001E76H   LINE      CODE     ---       #42
      01001E76H   LINE      CODE     ---       #43
      01001E7BH   LINE      CODE     ---       #44
      01001E7DH   LINE      CODE     ---       #45
      01001E80H   LINE      CODE     ---       #47
      01001E80H   LINE      CODE     ---       #48
      01001E80H   LINE      CODE     ---       #50
      01001EAFH   LINE      CODE     ---       #51
      01001EAFH   LINE      CODE     ---       #52
      01001EB7H   LINE      CODE     ---       #53
      01001EBCH   LINE      CODE     ---       #54
      01001EC1H   LINE      CODE     ---       #55
      01001EC6H   LINE      CODE     ---       #56
      01001EC6H   LINE      CODE     ---       #57
      01001EC6H   LINE      CODE     ---       #58
      01001EC8H   LINE      CODE     ---       #59
      01001ECDH   LINE      CODE     ---       #60
      01001EE3H   LINE      CODE     ---       #61
      01001EE3H   LINE      CODE     ---       #62
      01001EE4H   LINE      CODE     ---       #63
      01001EE7H   LINE      CODE     ---       #64
      01001EEAH   LINE      CODE     ---       #65
      01001EECH   LINE      CODE     ---       #66
      01001EF7H   LINE      CODE     ---       #67
      01001F00H   LINE      CODE     ---       #68
      01001F01H   LINE      CODE     ---       #69
      01001F01H   LINE      CODE     ---       #70
      01001F01H   LINE      CODE     ---       #71
      01001F01H   LINE      CODE     ---       #72
      01001F04H   LINE      CODE     ---       #73
      01001F24H   LINE      CODE     ---       #74
      01001F24H   LINE      CODE     ---       #75
      01001F26H   LINE      CODE     ---       #76
      01001F28H   LINE      CODE     ---       #77
      01001F2BH   LINE      CODE     ---       #78
      01001F2CH   LINE      CODE     ---       #80
      01001F2CH   LINE      CODE     ---       #81
      01001F3DH   LINE      CODE     ---       #82
      01001F4BH   LINE      CODE     ---       #83
      01001F59H   LINE      CODE     ---       #84
      01001F5BH   LINE      CODE     ---       #85
      01001F5BH   LINE      CODE     ---       #86
      01001F5BH   LINE      CODE     ---       #87
      01001F5BH   LINE      CODE     ---       #88
LX51 LINKER/LOCATER V4.66.97.0                                                        11/15/2024  17:07:44  PAGE 52


      ---         BLOCKEND  ---      ---       LVL=0

      01003A1FH   BLOCK     CODE     ---       LVL=0
      00000007H   SYMBOL    DATA     BYTE      LEDMode
      01003A1FH   LINE      CODE     ---       #91
      01003A1FH   LINE      CODE     ---       #92
      01003A1FH   LINE      CODE     ---       #94
      01003A2CH   LINE      CODE     ---       #95
      01003A2CH   LINE      CODE     ---       #96
      01003A32H   LINE      CODE     ---       #97
      01003A38H   LINE      CODE     ---       #98
      01003A3CH   LINE      CODE     ---       #99
      01003A3CH   LINE      CODE     ---       #100
      01003A43H   LINE      CODE     ---       #102
      01003A45H   LINE      CODE     ---       #103
      01003A47H   LINE      CODE     ---       #104
      ---         BLOCKEND  ---      ---       LVL=0

      ---         MODULE    ---      ---       PWM
      00000021H.6 PUBLIC    BIT      BIT       IsNeedToUploadPWM
      0200005AH   PUBLIC    XDATA    FLOAT     PWMDuty
      010026C4H   PUBLIC    CODE     ---       PWM_OutputCtrlHandler
      00000020H.7 PUBLIC    BIT      BIT       ?PWM_ForceSetDuty?BIT
      010039F5H   PUBLIC    CODE     ---       PWM_ForceSetDuty
      01002DA0H   PUBLIC    CODE     ---       PWM_Init
      01003BB1H   PUBLIC    CODE     ---       PWM_DeInit
      000000C8H.0 SFRSYM    DATA     BIT       T2I0
      000000C3H   SFRSYM    DATA     BYTE      CCH1
      00000080H   SFRSYM    DATA     BYTE      P0
      000000C8H.1 SFRSYM    DATA     BIT       T2I1
      000000C5H   SFRSYM    DATA     BYTE      CCH2
      00000090H   SFRSYM    DATA     BYTE      P1
      000000C7H   SFRSYM    DATA     BYTE      CCH3
      000000ACH   SFRSYM    DATA     BYTE      P0EXTIE
      000000A0H   SFRSYM    DATA     BYTE      P2
      000000B4H   SFRSYM    DATA     BYTE      P0EXTIF
      000000B0H   SFRSYM    DATA     BYTE      P3
      000000ADH   SFRSYM    DATA     BYTE      P1EXTIE
      000000D0H.6 SFRSYM    DATA     BIT       AC
      000000FFH   SFRSYM    DATA     BYTE      MCTRL
      000000C2H   SFRSYM    DATA     BYTE      CCL1
      000000B5H   SFRSYM    DATA     BYTE      P1EXTIF
      000000AEH   SFRSYM    DATA     BYTE      P2EXTIE
      000000C4H   SFRSYM    DATA     BYTE      CCL2
      000000B6H   SFRSYM    DATA     BYTE      P2EXTIF
      000000AFH   SFRSYM    DATA     BYTE      P3EXTIE
      000000A8H.7 SFRSYM    DATA     BIT       EA
      000000C6H   SFRSYM    DATA     BYTE      CCL3
      000000B7H   SFRSYM    DATA     BYTE      P3EXTIF
      000000AAH   SFRSYM    DATA     BYTE      EIE2
      000000B2H   SFRSYM    DATA     BYTE      EIF2
      000000C8H.3 SFRSYM    DATA     BIT       T2R0
      000000C8H.4 SFRSYM    DATA     BIT       T2R1
      00000083H   SFRSYM    DATA     BYTE      DPH0
      000000A8H   SFRSYM    DATA     BYTE      IE
      00000085H   SFRSYM    DATA     BYTE      DPH1
      000000B9H   SFRSYM    DATA     BYTE      EIP1
      000000BAH   SFRSYM    DATA     BYTE      EIP2
      00000082H   SFRSYM    DATA     BYTE      DPL0
      00000084H   SFRSYM    DATA     BYTE      DPL1
      000000C8H.6 SFRSYM    DATA     BIT       I3FR
      000000CFH   SFRSYM    DATA     BYTE      T2IE
      00000096H   SFRSYM    DATA     BYTE      TA
      000000C9H   SFRSYM    DATA     BYTE      T2IF
      000000C8H.2 SFRSYM    DATA     BIT       T2CM
LX51 LINKER/LOCATER V4.66.97.0                                                        11/15/2024  17:07:44  PAGE 53


      000000DFH   SFRSYM    DATA     BYTE      ADCON0
      000000DEH   SFRSYM    DATA     BYTE      ADCON1
      000000E9H   SFRSYM    DATA     BYTE      ADCON2
      000000B8H   SFRSYM    DATA     BYTE      IP
      000000CEH   SFRSYM    DATA     BYTE      CCEN
      000000D0H.7 SFRSYM    DATA     BIT       CY
      000000D2H   SFRSYM    DATA     BYTE      T34MOD
      00000093H   SFRSYM    DATA     BYTE      DPX0
      00000095H   SFRSYM    DATA     BYTE      DPX1
      000000F4H   SFRSYM    DATA     BYTE      I2CMSA
      000000F5H   SFRSYM    DATA     BYTE      I2CMCR
      00000081H   SFRSYM    DATA     BYTE      SP
      000000D0H.2 SFRSYM    DATA     BIT       OV
      000000F2H   SFRSYM    DATA     BYTE      I2CSCR
      000000C8H.7 SFRSYM    DATA     BIT       T2PS
      000000D1H   SFRSYM    DATA     BYTE      ADCMPC
      000000CBH   SFRSYM    DATA     BYTE      RLDH
      000000D5H   SFRSYM    DATA     BYTE      ADCMPH
      000000CAH   SFRSYM    DATA     BYTE      RLDL
      00000080H.0 SFRSYM    DATA     BIT       P00
      00000090H.0 SFRSYM    DATA     BIT       P10
      00000080H.1 SFRSYM    DATA     BIT       P01
      000000F7H   SFRSYM    DATA     BYTE      I2CMTP
      00000099H   SFRSYM    DATA     BYTE      SBUF
      00000087H   SFRSYM    DATA     BYTE      PCON
      000000A0H.0 SFRSYM    DATA     BIT       P20
      00000090H.1 SFRSYM    DATA     BIT       P11
      00000080H.2 SFRSYM    DATA     BIT       P02
      000000F5H   SFRSYM    DATA     BYTE      I2CMSR
      000000B0H.0 SFRSYM    DATA     BIT       P30
      000000A0H.1 SFRSYM    DATA     BIT       P21
      00000090H.2 SFRSYM    DATA     BIT       P12
      00000080H.3 SFRSYM    DATA     BIT       P03
      000000D4H   SFRSYM    DATA     BYTE      ADCMPL
      000000B0H.1 SFRSYM    DATA     BIT       P31
      000000A0H.2 SFRSYM    DATA     BIT       P22
      00000090H.3 SFRSYM    DATA     BIT       P13
      00000080H.4 SFRSYM    DATA     BIT       P04
      000000B0H.2 SFRSYM    DATA     BIT       P32
      000000A0H.3 SFRSYM    DATA     BIT       P23
      00000090H.4 SFRSYM    DATA     BIT       P14
      00000080H.5 SFRSYM    DATA     BIT       P05
      00000089H   SFRSYM    DATA     BYTE      TMOD
      00000088H   SFRSYM    DATA     BYTE      TCON
      000000B0H.3 SFRSYM    DATA     BIT       P33
      000000A0H.4 SFRSYM    DATA     BIT       P24
      00000090H.5 SFRSYM    DATA     BIT       P15
      00000080H.6 SFRSYM    DATA     BIT       P06
      000000B0H.4 SFRSYM    DATA     BIT       P34
      000000A0H.5 SFRSYM    DATA     BIT       P25
      00000090H.6 SFRSYM    DATA     BIT       P16
      00000080H.7 SFRSYM    DATA     BIT       P07
      000000B0H.5 SFRSYM    DATA     BIT       P35
      000000A0H.6 SFRSYM    DATA     BIT       P26
      00000090H.7 SFRSYM    DATA     BIT       P17
      000000F2H   SFRSYM    DATA     BYTE      I2CSSR
      000000B0H.6 SFRSYM    DATA     BIT       P36
      000000A0H.7 SFRSYM    DATA     BIT       P27
      000000ECH   SFRSYM    DATA     BYTE      SPCR
      000000DDH   SFRSYM    DATA     BYTE      ADRESH
      000000B0H.7 SFRSYM    DATA     BIT       P37
      000000EEH   SFRSYM    DATA     BYTE      SPDR
      000000EFH   SFRSYM    DATA     BYTE      SSCR
      000000D3H   SFRSYM    DATA     BYTE      ADDLYL
      000000DCH   SFRSYM    DATA     BYTE      ADRESL
LX51 LINKER/LOCATER V4.66.97.0                                                        11/15/2024  17:07:44  PAGE 54


      00000088H.1 SFRSYM    DATA     BIT       IE0
      00000088H.3 SFRSYM    DATA     BIT       IE1
      0000008FH   SFRSYM    DATA     BYTE      CLKDIV
      000000F0H   SFRSYM    DATA     BYTE      B
      00000091H   SFRSYM    DATA     BYTE      FUNCCR
      0000009AH   SFRSYM    DATA     BYTE      P0TRIS
      000000A1H   SFRSYM    DATA     BYTE      P1TRIS
      000000A2H   SFRSYM    DATA     BYTE      P2TRIS
      000000E0H   SFRSYM    DATA     BYTE      ACC
      000000A3H   SFRSYM    DATA     BYTE      P3TRIS
      000000A8H.4 SFRSYM    DATA     BIT       ES0
      000000A8H.6 SFRSYM    DATA     BIT       ES1
      000000A8H.1 SFRSYM    DATA     BIT       ET0
      000000EDH   SFRSYM    DATA     BYTE      SPSR
      000000A8H.3 SFRSYM    DATA     BIT       ET1
      00000088H.5 SFRSYM    DATA     BIT       TF0
      000000A8H.5 SFRSYM    DATA     BIT       ET2
      00000098H.0 SFRSYM    DATA     BIT       RI0
      00000088H.7 SFRSYM    DATA     BIT       TF1
      0000008CH   SFRSYM    DATA     BYTE      TH0
      000000A8H.0 SFRSYM    DATA     BIT       EX0
      00000098H.1 SFRSYM    DATA     BIT       TI0
      00000088H.0 SFRSYM    DATA     BIT       IT0
      0000008DH   SFRSYM    DATA     BYTE      TH1
      000000A8H.2 SFRSYM    DATA     BIT       EX1
      00000088H.2 SFRSYM    DATA     BIT       IT1
      000000CDH   SFRSYM    DATA     BYTE      TH2
      000000D0H.0 SFRSYM    DATA     BIT       P
      000000DBH   SFRSYM    DATA     BYTE      TH3
      000000E3H   SFRSYM    DATA     BYTE      TH4
      0000008AH   SFRSYM    DATA     BYTE      TL0
      0000008BH   SFRSYM    DATA     BYTE      TL1
      00000098H.2 SFRSYM    DATA     BIT       U0RB8
      000000CCH   SFRSYM    DATA     BYTE      TL2
      000000B8H.4 SFRSYM    DATA     BIT       PS0
      000000DAH   SFRSYM    DATA     BYTE      TL3
      000000BFH   SFRSYM    DATA     BYTE      BUZCON
      000000B8H.6 SFRSYM    DATA     BIT       PS1
      000000B8H.1 SFRSYM    DATA     BIT       PT0
      00000098H.3 SFRSYM    DATA     BIT       U0TB8
      000000E2H   SFRSYM    DATA     BYTE      TL4
      000000D0H.3 SFRSYM    DATA     BIT       RS0
      000000B8H.3 SFRSYM    DATA     BIT       PT1
      000000D0H.4 SFRSYM    DATA     BIT       RS1
      000000B8H.5 SFRSYM    DATA     BIT       PT2
      00000098H.7 SFRSYM    DATA     BIT       U0SM0
      00000088H.4 SFRSYM    DATA     BIT       TR0
      000000BEH   SFRSYM    DATA     BYTE      BUZDIV
      00000098H.6 SFRSYM    DATA     BIT       U0SM1
      00000088H.6 SFRSYM    DATA     BIT       TR1
      000000B8H.0 SFRSYM    DATA     BIT       PX0
      00000098H.5 SFRSYM    DATA     BIT       U0SM2
      000000B8H.2 SFRSYM    DATA     BIT       PX1
      000000BDH   SFRSYM    DATA     BYTE      WUTCRH
      00000099H   SFRSYM    DATA     BYTE      SBUF0
      000000EBH   SFRSYM    DATA     BYTE      SBUF1
      000000BCH   SFRSYM    DATA     BYTE      WUTCRL
      00000098H   SFRSYM    DATA     BYTE      SCON0
      000000EAH   SFRSYM    DATA     BYTE      SCON1
      000000C8H   SFRSYM    DATA     BYTE      T2CON
      00000086H   SFRSYM    DATA     BYTE      DPS
      000000FEH   SFRSYM    DATA     BYTE      MDATA
      000000F6H   SFRSYM    DATA     BYTE      I2CMBUF
      000000F1H   SFRSYM    DATA     BYTE      I2CSADR
      00000098H.4 SFRSYM    DATA     BIT       U0REN
LX51 LINKER/LOCATER V4.66.97.0                                                        11/15/2024  17:07:44  PAGE 55


      000000C8H.5 SFRSYM    DATA     BIT       CAPES
      000000FDH   SFRSYM    DATA     BYTE      MADRH
      0000008EH   SFRSYM    DATA     BYTE      CKCON
      000000F3H   SFRSYM    DATA     BYTE      I2CSBUF
      000000FCH   SFRSYM    DATA     BYTE      MADRL
      000000D0H.5 SFRSYM    DATA     BIT       F0
      000000FBH   SFRSYM    DATA     BYTE      MLOCK
      000000D0H   SFRSYM    DATA     BYTE      PSW
      00000097H   SFRSYM    DATA     BYTE      WDCON
      00000021H.7 SYMBOL    BIT      BIT       IsNeedToEnableOutput
      00000022H.0 SYMBOL    BIT      BIT       IsPWMLoading

      01003CF7H   BLOCK     CODE     ---       LVL=0
      ---         BLOCKEND  ---      ---       LVL=0

      01003BB1H   BLOCK     CODE     ---       LVL=0
      01003BB1H   LINE      CODE     ---       #13
      01003BB1H   LINE      CODE     ---       #14
      01003BB1H   LINE      CODE     ---       #16
      01003BB9H   LINE      CODE     ---       #18
      01003BC2H   LINE      CODE     ---       #20
      01003BC7H   LINE      CODE     ---       #21
      01003BCBH   LINE      CODE     ---       #22
      01003BCFH   LINE      CODE     ---       #23
      ---         BLOCKEND  ---      ---       LVL=0

      01002DA0H   BLOCK     CODE     ---       LVL=0
      01002DA0H   BLOCK     CODE     NEAR LAB  LVL=1
      00000025H   SYMBOL    DATA     ---       PWMInitCfg
      ---         BLOCKEND  ---      ---       LVL=1
      01002DA0H   LINE      CODE     ---       #26
      01002DA0H   LINE      CODE     ---       #27
      01002DA0H   LINE      CODE     ---       #30
      01002DA3H   LINE      CODE     ---       #31
      01002DA6H   LINE      CODE     ---       #32
      01002DA9H   LINE      CODE     ---       #34
      01002DB1H   LINE      CODE     ---       #35
      01002DBEH   LINE      CODE     ---       #37
      01002DC7H   LINE      CODE     ---       #39
      01002DCCH   LINE      CODE     ---       #40
      01002DCFH   LINE      CODE     ---       #41
      01002DD3H   LINE      CODE     ---       #42
      01002DD9H   LINE      CODE     ---       #43
      01002DDEH   LINE      CODE     ---       #44
      01002DE3H   LINE      CODE     ---       #45
      01002DE5H   LINE      CODE     ---       #46
      01002DEAH   LINE      CODE     ---       #47
      01002DEEH   LINE      CODE     ---       #48
      01002DF3H   LINE      CODE     ---       #50
      01002DF9H   LINE      CODE     ---       #51
      01002DFFH   LINE      CODE     ---       #53
      01002E04H   LINE      CODE     ---       #54
      01002E08H   LINE      CODE     ---       #56
      01002E12H   LINE      CODE     ---       #57
      01002E14H   LINE      CODE     ---       #58
      01002E16H   LINE      CODE     ---       #60
      01002E1CH   LINE      CODE     ---       #61
      01002E20H   LINE      CODE     ---       #62
      01002E26H   LINE      CODE     ---       #63
      ---         BLOCKEND  ---      ---       LVL=0

      010039F5H   BLOCK     CODE     ---       LVL=0
      00000020H.7 SYMBOL    BIT      BIT       IsEnable
      010039F5H   LINE      CODE     ---       #66
      010039F5H   LINE      CODE     ---       #67
LX51 LINKER/LOCATER V4.66.97.0                                                        11/15/2024  17:07:44  PAGE 56


      010039F5H   LINE      CODE     ---       #68
      010039FBH   LINE      CODE     ---       #69
      01003A07H   LINE      CODE     ---       #70
      01003A0DH   LINE      CODE     ---       #71
      01003A13H   LINE      CODE     ---       #72
      01003A1EH   LINE      CODE     ---       #73
      ---         BLOCKEND  ---      ---       LVL=0

      010026C4H   BLOCK     CODE     ---       LVL=0
      010026C4H   BLOCK     CODE     NEAR LAB  LVL=1
      00000004H   SYMBOL    DATA     INT       value
      00000023H   SYMBOL    DATA     FLOAT     buf
      ---         BLOCKEND  ---      ---       LVL=1
      010026C4H   LINE      CODE     ---       #76
      010026C4H   LINE      CODE     ---       #77
      010026C4H   LINE      CODE     ---       #81
      010026CAH   LINE      CODE     ---       #82
      010026CDH   LINE      CODE     ---       #83
      010026CDH   LINE      CODE     ---       #84
      010026D6H   LINE      CODE     ---       #85
      010026D6H   LINE      CODE     ---       #86
      010026E1H   LINE      CODE     ---       #87
      010026E3H   LINE      CODE     ---       #88
      010026E5H   LINE      CODE     ---       #89
      010026E6H   LINE      CODE     ---       #91
      010026E6H   LINE      CODE     ---       #93
      01002701H   LINE      CODE     ---       #94
      01002718H   LINE      CODE     ---       #96
      0100272AH   LINE      CODE     ---       #97
      0100274AH   LINE      CODE     ---       #98
      0100275CH   LINE      CODE     ---       #99
      01002763H   LINE      CODE     ---       #100
      0100276AH   LINE      CODE     ---       #101
      0100276FH   LINE      CODE     ---       #103
      01002771H   LINE      CODE     ---       #104
      01002777H   LINE      CODE     ---       #105
      ---         BLOCKEND  ---      ---       LVL=0

      ---         MODULE    ---      ---       OUTPUTCHANNEL
      02000057H   PUBLIC    XDATA    INT       Current
      01001F5CH   PUBLIC    CODE     ---       OutputChannel_Calc
      01003D32H   PUBLIC    CODE     ---       OutputChannel_DeInit
      010011CAH   PUBLIC    CODE     ---       OutputChannel_TestRun
      010037E8H   PUBLIC    CODE     ---       OutputChannel_Init
      000000C8H.0 SFRSYM    DATA     BIT       T2I0
      000000C3H   SFRSYM    DATA     BYTE      CCH1
      00000080H   SFRSYM    DATA     BYTE      P0
      000000C8H.1 SFRSYM    DATA     BIT       T2I1
      000000C5H   SFRSYM    DATA     BYTE      CCH2
      00000090H   SFRSYM    DATA     BYTE      P1
      000000C7H   SFRSYM    DATA     BYTE      CCH3
      000000ACH   SFRSYM    DATA     BYTE      P0EXTIE
      000000A0H   SFRSYM    DATA     BYTE      P2
      00000080H.1 SFRSYM    DATA     BIT       RevPGate
      000000B4H   SFRSYM    DATA     BYTE      P0EXTIF
      000000B0H   SFRSYM    DATA     BYTE      P3
      000000ADH   SFRSYM    DATA     BYTE      P1EXTIE
      000000D0H.6 SFRSYM    DATA     BIT       AC
      000000FFH   SFRSYM    DATA     BYTE      MCTRL
      000000C2H   SFRSYM    DATA     BYTE      CCL1
      000000B5H   SFRSYM    DATA     BYTE      P1EXTIF
      000000AEH   SFRSYM    DATA     BYTE      P2EXTIE
      000000C4H   SFRSYM    DATA     BYTE      CCL2
      000000B6H   SFRSYM    DATA     BYTE      P2EXTIF
      000000AFH   SFRSYM    DATA     BYTE      P3EXTIE
LX51 LINKER/LOCATER V4.66.97.0                                                        11/15/2024  17:07:44  PAGE 57


      000000A8H.7 SFRSYM    DATA     BIT       EA
      000000C6H   SFRSYM    DATA     BYTE      CCL3
      000000B7H   SFRSYM    DATA     BYTE      P3EXTIF
      000000AAH   SFRSYM    DATA     BYTE      EIE2
      000000B2H   SFRSYM    DATA     BYTE      EIF2
      000000C8H.3 SFRSYM    DATA     BIT       T2R0
      000000C8H.4 SFRSYM    DATA     BIT       T2R1
      00000083H   SFRSYM    DATA     BYTE      DPH0
      000000A8H   SFRSYM    DATA     BYTE      IE
      00000085H   SFRSYM    DATA     BYTE      DPH1
      000000B9H   SFRSYM    DATA     BYTE      EIP1
      000000BAH   SFRSYM    DATA     BYTE      EIP2
      00000082H   SFRSYM    DATA     BYTE      DPL0
      00000084H   SFRSYM    DATA     BYTE      DPL1
      000000C8H.6 SFRSYM    DATA     BIT       I3FR
      000000CFH   SFRSYM    DATA     BYTE      T2IE
      00000096H   SFRSYM    DATA     BYTE      TA
      000000C9H   SFRSYM    DATA     BYTE      T2IF
      000000C8H.2 SFRSYM    DATA     BIT       T2CM
      000000DFH   SFRSYM    DATA     BYTE      ADCON0
      000000DEH   SFRSYM    DATA     BYTE      ADCON1
      000000E9H   SFRSYM    DATA     BYTE      ADCON2
      000000B8H   SFRSYM    DATA     BYTE      IP
      000000CEH   SFRSYM    DATA     BYTE      CCEN
      000000D0H.7 SFRSYM    DATA     BIT       CY
      000000D2H   SFRSYM    DATA     BYTE      T34MOD
      00000093H   SFRSYM    DATA     BYTE      DPX0
      00000095H   SFRSYM    DATA     BYTE      DPX1
      000000F4H   SFRSYM    DATA     BYTE      I2CMSA
      000000F5H   SFRSYM    DATA     BYTE      I2CMCR
      00000080H.4 SFRSYM    DATA     BIT       DCDCEN
      00000081H   SFRSYM    DATA     BYTE      SP
      000000D0H.2 SFRSYM    DATA     BIT       OV
      000000F2H   SFRSYM    DATA     BYTE      I2CSCR
      000000C8H.7 SFRSYM    DATA     BIT       T2PS
      000000D1H   SFRSYM    DATA     BYTE      ADCMPC
      000000CBH   SFRSYM    DATA     BYTE      RLDH
      000000D5H   SFRSYM    DATA     BYTE      ADCMPH
      000000CAH   SFRSYM    DATA     BYTE      RLDL
      00000080H.0 SFRSYM    DATA     BIT       P00
      00000090H.0 SFRSYM    DATA     BIT       P10
      00000080H.1 SFRSYM    DATA     BIT       P01
      000000F7H   SFRSYM    DATA     BYTE      I2CMTP
      00000099H   SFRSYM    DATA     BYTE      SBUF
      00000087H   SFRSYM    DATA     BYTE      PCON
      000000A0H.0 SFRSYM    DATA     BIT       P20
      00000090H.1 SFRSYM    DATA     BIT       P11
      00000080H.2 SFRSYM    DATA     BIT       P02
      000000F5H   SFRSYM    DATA     BYTE      I2CMSR
      000000B0H.0 SFRSYM    DATA     BIT       P30
      000000A0H.1 SFRSYM    DATA     BIT       P21
      00000090H.2 SFRSYM    DATA     BIT       P12
      00000080H.3 SFRSYM    DATA     BIT       P03
      000000D4H   SFRSYM    DATA     BYTE      ADCMPL
      000000B0H.1 SFRSYM    DATA     BIT       P31
      000000A0H.2 SFRSYM    DATA     BIT       P22
      00000090H.3 SFRSYM    DATA     BIT       P13
      00000080H.4 SFRSYM    DATA     BIT       P04
      000000B0H.2 SFRSYM    DATA     BIT       P32
      000000A0H.3 SFRSYM    DATA     BIT       P23
      00000090H.4 SFRSYM    DATA     BIT       P14
      00000080H.5 SFRSYM    DATA     BIT       P05
      00000089H   SFRSYM    DATA     BYTE      TMOD
      00000088H   SFRSYM    DATA     BYTE      TCON
      000000B0H.3 SFRSYM    DATA     BIT       P33
LX51 LINKER/LOCATER V4.66.97.0                                                        11/15/2024  17:07:44  PAGE 58


      000000A0H.4 SFRSYM    DATA     BIT       P24
      00000090H.5 SFRSYM    DATA     BIT       P15
      00000080H.6 SFRSYM    DATA     BIT       P06
      000000B0H.4 SFRSYM    DATA     BIT       P34
      000000A0H.5 SFRSYM    DATA     BIT       P25
      00000090H.6 SFRSYM    DATA     BIT       P16
      00000080H.7 SFRSYM    DATA     BIT       P07
      000000B0H.5 SFRSYM    DATA     BIT       P35
      000000A0H.6 SFRSYM    DATA     BIT       P26
      00000090H.7 SFRSYM    DATA     BIT       P17
      000000F2H   SFRSYM    DATA     BYTE      I2CSSR
      000000B0H.6 SFRSYM    DATA     BIT       P36
      000000A0H.7 SFRSYM    DATA     BIT       P27
      000000ECH   SFRSYM    DATA     BYTE      SPCR
      000000DDH   SFRSYM    DATA     BYTE      ADRESH
      000000B0H.7 SFRSYM    DATA     BIT       P37
      000000EEH   SFRSYM    DATA     BYTE      SPDR
      000000EFH   SFRSYM    DATA     BYTE      SSCR
      000000D3H   SFRSYM    DATA     BYTE      ADDLYL
      000000DCH   SFRSYM    DATA     BYTE      ADRESL
      00000088H.1 SFRSYM    DATA     BIT       IE0
      00000088H.3 SFRSYM    DATA     BIT       IE1
      0000008FH   SFRSYM    DATA     BYTE      CLKDIV
      000000F0H   SFRSYM    DATA     BYTE      B
      00000080H.5 SFRSYM    DATA     BIT       HShuntSEL
      00000091H   SFRSYM    DATA     BYTE      FUNCCR
      0000009AH   SFRSYM    DATA     BYTE      P0TRIS
      000000A1H   SFRSYM    DATA     BYTE      P1TRIS
      000000A2H   SFRSYM    DATA     BYTE      P2TRIS
      00000080H.3 SFRSYM    DATA     BIT       LShuntSEL
      000000E0H   SFRSYM    DATA     BYTE      ACC
      000000A3H   SFRSYM    DATA     BYTE      P3TRIS
      000000A8H.4 SFRSYM    DATA     BIT       ES0
      000000A8H.6 SFRSYM    DATA     BIT       ES1
      000000A8H.1 SFRSYM    DATA     BIT       ET0
      000000EDH   SFRSYM    DATA     BYTE      SPSR
      000000A8H.3 SFRSYM    DATA     BIT       ET1
      00000088H.5 SFRSYM    DATA     BIT       TF0
      000000A8H.5 SFRSYM    DATA     BIT       ET2
      00000098H.0 SFRSYM    DATA     BIT       RI0
      00000088H.7 SFRSYM    DATA     BIT       TF1
      0000008CH   SFRSYM    DATA     BYTE      TH0
      000000A8H.0 SFRSYM    DATA     BIT       EX0
      00000098H.1 SFRSYM    DATA     BIT       TI0
      00000088H.0 SFRSYM    DATA     BIT       IT0
      0000008DH   SFRSYM    DATA     BYTE      TH1
      000000A8H.2 SFRSYM    DATA     BIT       EX1
      00000088H.2 SFRSYM    DATA     BIT       IT1
      000000CDH   SFRSYM    DATA     BYTE      TH2
      000000D0H.0 SFRSYM    DATA     BIT       P
      000000DBH   SFRSYM    DATA     BYTE      TH3
      000000E3H   SFRSYM    DATA     BYTE      TH4
      0000008AH   SFRSYM    DATA     BYTE      TL0
      0000008BH   SFRSYM    DATA     BYTE      TL1
      00000098H.2 SFRSYM    DATA     BIT       U0RB8
      000000CCH   SFRSYM    DATA     BYTE      TL2
      000000B8H.4 SFRSYM    DATA     BIT       PS0
      000000DAH   SFRSYM    DATA     BYTE      TL3
      000000BFH   SFRSYM    DATA     BYTE      BUZCON
      000000B8H.6 SFRSYM    DATA     BIT       PS1
      000000B8H.1 SFRSYM    DATA     BIT       PT0
      00000098H.3 SFRSYM    DATA     BIT       U0TB8
      000000E2H   SFRSYM    DATA     BYTE      TL4
      000000D0H.3 SFRSYM    DATA     BIT       RS0
      000000B8H.3 SFRSYM    DATA     BIT       PT1
LX51 LINKER/LOCATER V4.66.97.0                                                        11/15/2024  17:07:44  PAGE 59


      000000D0H.4 SFRSYM    DATA     BIT       RS1
      000000B8H.5 SFRSYM    DATA     BIT       PT2
      00000098H.7 SFRSYM    DATA     BIT       U0SM0
      00000088H.4 SFRSYM    DATA     BIT       TR0
      000000BEH   SFRSYM    DATA     BYTE      BUZDIV
      00000098H.6 SFRSYM    DATA     BIT       U0SM1
      00000088H.6 SFRSYM    DATA     BIT       TR1
      000000B8H.0 SFRSYM    DATA     BIT       PX0
      00000098H.5 SFRSYM    DATA     BIT       U0SM2
      000000B8H.2 SFRSYM    DATA     BIT       PX1
      000000BDH   SFRSYM    DATA     BYTE      WUTCRH
      00000099H   SFRSYM    DATA     BYTE      SBUF0
      000000EBH   SFRSYM    DATA     BYTE      SBUF1
      000000BCH   SFRSYM    DATA     BYTE      WUTCRL
      00000098H   SFRSYM    DATA     BYTE      SCON0
      000000EAH   SFRSYM    DATA     BYTE      SCON1
      000000C8H   SFRSYM    DATA     BYTE      T2CON
      00000086H   SFRSYM    DATA     BYTE      DPS
      000000FEH   SFRSYM    DATA     BYTE      MDATA
      000000F6H   SFRSYM    DATA     BYTE      I2CMBUF
      000000F1H   SFRSYM    DATA     BYTE      I2CSADR
      00000098H.4 SFRSYM    DATA     BIT       U0REN
      000000C8H.5 SFRSYM    DATA     BIT       CAPES
      000000FDH   SFRSYM    DATA     BYTE      MADRH
      0000008EH   SFRSYM    DATA     BYTE      CKCON
      000000F3H   SFRSYM    DATA     BYTE      I2CSBUF
      000000FCH   SFRSYM    DATA     BYTE      MADRL
      000000D0H.5 SFRSYM    DATA     BIT       F0
      000000FBH   SFRSYM    DATA     BYTE      MLOCK
      000000D0H   SFRSYM    DATA     BYTE      PSW
      00000097H   SFRSYM    DATA     BYTE      WDCON
      02000055H   SYMBOL    XDATA    INT       CurrentBuf
      01003F84H   SYMBOL    CONST    ---       _?ix1000
      01002821H   SYMBOL    CODE     ---       _Duty_Calc
      02000059H   SYMBOL    XDATA    CHAR      IsEnableDCDCCounter

      01002EACH   BLOCK     CODE     ---       LVL=0
      ---         BLOCKEND  ---      ---       LVL=0

      010037E8H   BLOCK     CODE     ---       LVL=0
      010037E8H   BLOCK     CODE     NEAR LAB  LVL=1
      00000025H   SYMBOL    DATA     ---       OCInitCfg
      ---         BLOCKEND  ---      ---       LVL=1
      010037E8H   LINE      CODE     ---       #24
      010037E8H   LINE      CODE     ---       #25
      010037E8H   LINE      CODE     ---       #28
      010037EBH   LINE      CODE     ---       #29
      010037EEH   LINE      CODE     ---       #30
      010037F1H   LINE      CODE     ---       #32
      010037F1H   LINE      CODE     ---       #33
      010037F1H   LINE      CODE     ---       #34
      010037F1H   LINE      CODE     ---       #35
      010037F4H   LINE      CODE     ---       #37
      010037F6H   LINE      CODE     ---       #38
      01003800H   LINE      CODE     ---       #39
      01003802H   LINE      CODE     ---       #40
      0100380CH   LINE      CODE     ---       #42
      0100380CH   LINE      CODE     ---       #43
      0100380FH   LINE      CODE     ---       #44
      ---         BLOCKEND  ---      ---       LVL=0

      010011CAH   BLOCK     CODE     ---       LVL=0
      010011CAH   BLOCK     CODE     NEAR LAB  LVL=1
      00000023H   SYMBOL    DATA     INT       retry
      00000025H   SYMBOL    DATA     INT       i
LX51 LINKER/LOCATER V4.66.97.0                                                        11/15/2024  17:07:44  PAGE 60


      02000000H   SYMBOL    XDATA    ---       LastOutput
      02000014H   SYMBOL    XDATA    FLOAT     buf
      02000018H   SYMBOL    XDATA    FLOAT     Err
      ---         BLOCKEND  ---      ---       LVL=1
      010011CAH   LINE      CODE     ---       #47
      010011CAH   LINE      CODE     ---       #48
      010011CAH   LINE      CODE     ---       #49
      010011D0H   LINE      CODE     ---       #50
      010011E3H   LINE      CODE     ---       #53
      010011E8H   LINE      CODE     ---       #54
      010011E8H   LINE      CODE     ---       #55
      010011EDH   LINE      CODE     ---       #57
      010011EDH   LINE      CODE     ---       #59
      0100120CH   LINE      CODE     ---       #60
      0100120EH   LINE      CODE     ---       #61
      01001210H   LINE      CODE     ---       #62
      01001212H   LINE      CODE     ---       #63
      01001217H   LINE      CODE     ---       #64
      01001219H   LINE      CODE     ---       #67
      01001219H   LINE      CODE     ---       #68
      01001220H   LINE      CODE     ---       #69
      01001223H   LINE      CODE     ---       #70
      0100123AH   LINE      CODE     ---       #71
      01001242H   LINE      CODE     ---       #72
      01001242H   LINE      CODE     ---       #73
      01001247H   LINE      CODE     ---       #75
      0100124DH   LINE      CODE     ---       #76
      0100124DH   LINE      CODE     ---       #77
      0100124FH   LINE      CODE     ---       #78
      01001254H   LINE      CODE     ---       #80
      01001254H   LINE      CODE     ---       #82
      0100125AH   LINE      CODE     ---       #83
      0100125CH   LINE      CODE     ---       #84
      01001263H   LINE      CODE     ---       #85
      01001268H   LINE      CODE     ---       #87
      01001268H   LINE      CODE     ---       #88
      0100126BH   LINE      CODE     ---       #89
      01001272H   LINE      CODE     ---       #91
      010012BCH   LINE      CODE     ---       #92
      010012CAH   LINE      CODE     ---       #94
      010012D4H   LINE      CODE     ---       #95
      01001310H   LINE      CODE     ---       #96
      01001323H   LINE      CODE     ---       #98
      0100132DH   LINE      CODE     ---       #99
      010013B6H   LINE      CODE     ---       #100
      010013D3H   LINE      CODE     ---       #101
      010013DBH   LINE      CODE     ---       #102
      010013DBH   LINE      CODE     ---       #103
      010013E3H   LINE      CODE     ---       #105
      010013EEH   LINE      CODE     ---       #106
      ---         BLOCKEND  ---      ---       LVL=0

      01003D32H   BLOCK     CODE     ---       LVL=0
      01003D32H   LINE      CODE     ---       #109
      01003D32H   LINE      CODE     ---       #110
      01003D32H   LINE      CODE     ---       #112
      01003D32H   LINE      CODE     ---       #113
      01003D35H   LINE      CODE     ---       #115
      01003D35H   LINE      CODE     ---       #116
      01003D35H   LINE      CODE     ---       #117
      01003D35H   LINE      CODE     ---       #118
      01003D38H   LINE      CODE     ---       #119
      ---         BLOCKEND  ---      ---       LVL=0

      01002821H   BLOCK     CODE     ---       LVL=0
LX51 LINKER/LOCATER V4.66.97.0                                                        11/15/2024  17:07:44  PAGE 61


      00000023H   SYMBOL    DATA     FLOAT     ShuntmOhm
      00000027H   SYMBOL    DATA     INT       Current
      00000029H   SYMBOL    DATA     FLOAT     Offset
      01002829H   BLOCK     CODE     NEAR LAB  LVL=1
      0000002DH   SYMBOL    DATA     FLOAT     buf
      ---         BLOCKEND  ---      ---       LVL=1
      01002821H   LINE      CODE     ---       #122
      01002829H   LINE      CODE     ---       #123
      01002829H   LINE      CODE     ---       #125
      0100283CH   LINE      CODE     ---       #126
      01002849H   LINE      CODE     ---       #127
      01002857H   LINE      CODE     ---       #128
      01002862H   LINE      CODE     ---       #129
      0100288AH   LINE      CODE     ---       #130
      01002894H   LINE      CODE     ---       #132
      010028ADH   LINE      CODE     ---       #133
      010028C0H   LINE      CODE     ---       #134
      010028C8H   LINE      CODE     ---       #135
      ---         BLOCKEND  ---      ---       LVL=0

      01001F5CH   BLOCK     CODE     ---       LVL=0
      01001F5CH   LINE      CODE     ---       #138
      01001F5CH   LINE      CODE     ---       #139
      01001F5CH   LINE      CODE     ---       #141
      01001F65H   LINE      CODE     ---       #142
      01001F65H   LINE      CODE     ---       #143
      01001F67H   LINE      CODE     ---       #144
      01001F6CH   LINE      CODE     ---       #145
      01001F6CH   LINE      CODE     ---       #147
      01001F87H   LINE      CODE     ---       #148
      01001F9EH   LINE      CODE     ---       #149
      01001FA6H   LINE      CODE     ---       #151
      01001FB0H   LINE      CODE     ---       #152
      01001FB0H   LINE      CODE     ---       #153
      01001FB7H   LINE      CODE     ---       #154
      01001FB7H   LINE      CODE     ---       #155
      01001FC1H   LINE      CODE     ---       #156
      01001FC3H   LINE      CODE     ---       #157
      01001FC3H   LINE      CODE     ---       #158
      01001FD5H   LINE      CODE     ---       #159
      01001FD5H   LINE      CODE     ---       #160
      01001FD5H   LINE      CODE     ---       #161
      01001FD8H   LINE      CODE     ---       #162
      01001FD9H   LINE      CODE     ---       #164
      01001FEBH   LINE      CODE     ---       #165
      01001FEBH   LINE      CODE     ---       #166
      01002003H   LINE      CODE     ---       #167
      01002005H   LINE      CODE     ---       #168
      0100200EH   LINE      CODE     ---       #169
      01002010H   LINE      CODE     ---       #170
      01002012H   LINE      CODE     ---       #171
      01002014H   LINE      CODE     ---       #172
      01002015H   LINE      CODE     ---       #175
      01002015H   LINE      CODE     ---       #176
      01002036H   LINE      CODE     ---       #177
      01002038H   LINE      CODE     ---       #178
      0100203AH   LINE      CODE     ---       #179
      0100203CH   LINE      CODE     ---       #180
      0100203EH   LINE      CODE     ---       #181
      01002040H   LINE      CODE     ---       #182
      01002040H   LINE      CODE     ---       #183
      ---         BLOCKEND  ---      ---       LVL=0

      ---         MODULE    ---      ---       WATCHDOG
      0100002EH   PUBLIC    CODE     ---       GetIfWDogCauseRST
LX51 LINKER/LOCATER V4.66.97.0                                                        11/15/2024  17:07:44  PAGE 62


      01003CE7H   PUBLIC    CODE     ---       WDog_Feed
      01003CD7H   PUBLIC    CODE     ---       WDog_DeInit
      0100000EH   PUBLIC    CODE     ---       WDog_Init
      000000C8H.0 SFRSYM    DATA     BIT       T2I0
      000000C3H   SFRSYM    DATA     BYTE      CCH1
      00000080H   SFRSYM    DATA     BYTE      P0
      000000C8H.1 SFRSYM    DATA     BIT       T2I1
      000000C5H   SFRSYM    DATA     BYTE      CCH2
      00000090H   SFRSYM    DATA     BYTE      P1
      000000C7H   SFRSYM    DATA     BYTE      CCH3
      000000ACH   SFRSYM    DATA     BYTE      P0EXTIE
      000000A0H   SFRSYM    DATA     BYTE      P2
      000000B4H   SFRSYM    DATA     BYTE      P0EXTIF
      000000B0H   SFRSYM    DATA     BYTE      P3
      000000ADH   SFRSYM    DATA     BYTE      P1EXTIE
      000000D0H.6 SFRSYM    DATA     BIT       AC
      000000FFH   SFRSYM    DATA     BYTE      MCTRL
      000000C2H   SFRSYM    DATA     BYTE      CCL1
      000000B5H   SFRSYM    DATA     BYTE      P1EXTIF
      000000AEH   SFRSYM    DATA     BYTE      P2EXTIE
      000000C4H   SFRSYM    DATA     BYTE      CCL2
      000000B6H   SFRSYM    DATA     BYTE      P2EXTIF
      000000AFH   SFRSYM    DATA     BYTE      P3EXTIE
      000000A8H.7 SFRSYM    DATA     BIT       EA
      000000C6H   SFRSYM    DATA     BYTE      CCL3
      000000B7H   SFRSYM    DATA     BYTE      P3EXTIF
      000000AAH   SFRSYM    DATA     BYTE      EIE2
      000000B2H   SFRSYM    DATA     BYTE      EIF2
      000000C8H.3 SFRSYM    DATA     BIT       T2R0
      000000C8H.4 SFRSYM    DATA     BIT       T2R1
      00000083H   SFRSYM    DATA     BYTE      DPH0
      000000A8H   SFRSYM    DATA     BYTE      IE
      00000085H   SFRSYM    DATA     BYTE      DPH1
      000000B9H   SFRSYM    DATA     BYTE      EIP1
      000000BAH   SFRSYM    DATA     BYTE      EIP2
      00000082H   SFRSYM    DATA     BYTE      DPL0
      00000084H   SFRSYM    DATA     BYTE      DPL1
      000000C8H.6 SFRSYM    DATA     BIT       I3FR
      000000CFH   SFRSYM    DATA     BYTE      T2IE
      00000096H   SFRSYM    DATA     BYTE      TA
      000000C9H   SFRSYM    DATA     BYTE      T2IF
      000000C8H.2 SFRSYM    DATA     BIT       T2CM
      000000DFH   SFRSYM    DATA     BYTE      ADCON0
      000000DEH   SFRSYM    DATA     BYTE      ADCON1
      000000E9H   SFRSYM    DATA     BYTE      ADCON2
      000000B8H   SFRSYM    DATA     BYTE      IP
      000000CEH   SFRSYM    DATA     BYTE      CCEN
      000000D0H.7 SFRSYM    DATA     BIT       CY
      000000D2H   SFRSYM    DATA     BYTE      T34MOD
      00000093H   SFRSYM    DATA     BYTE      DPX0
      00000095H   SFRSYM    DATA     BYTE      DPX1
      000000F4H   SFRSYM    DATA     BYTE      I2CMSA
      000000F5H   SFRSYM    DATA     BYTE      I2CMCR
      00000081H   SFRSYM    DATA     BYTE      SP
      000000D0H.2 SFRSYM    DATA     BIT       OV
      000000F2H   SFRSYM    DATA     BYTE      I2CSCR
      000000C8H.7 SFRSYM    DATA     BIT       T2PS
      000000D1H   SFRSYM    DATA     BYTE      ADCMPC
      000000CBH   SFRSYM    DATA     BYTE      RLDH
      000000D5H   SFRSYM    DATA     BYTE      ADCMPH
      000000CAH   SFRSYM    DATA     BYTE      RLDL
      00000080H.0 SFRSYM    DATA     BIT       P00
      00000090H.0 SFRSYM    DATA     BIT       P10
      00000080H.1 SFRSYM    DATA     BIT       P01
      000000F7H   SFRSYM    DATA     BYTE      I2CMTP
LX51 LINKER/LOCATER V4.66.97.0                                                        11/15/2024  17:07:44  PAGE 63


      00000099H   SFRSYM    DATA     BYTE      SBUF
      00000087H   SFRSYM    DATA     BYTE      PCON
      000000A0H.0 SFRSYM    DATA     BIT       P20
      00000090H.1 SFRSYM    DATA     BIT       P11
      00000080H.2 SFRSYM    DATA     BIT       P02
      000000F5H   SFRSYM    DATA     BYTE      I2CMSR
      000000B0H.0 SFRSYM    DATA     BIT       P30
      000000A0H.1 SFRSYM    DATA     BIT       P21
      00000090H.2 SFRSYM    DATA     BIT       P12
      00000080H.3 SFRSYM    DATA     BIT       P03
      000000D4H   SFRSYM    DATA     BYTE      ADCMPL
      000000B0H.1 SFRSYM    DATA     BIT       P31
      000000A0H.2 SFRSYM    DATA     BIT       P22
      00000090H.3 SFRSYM    DATA     BIT       P13
      00000080H.4 SFRSYM    DATA     BIT       P04
      000000B0H.2 SFRSYM    DATA     BIT       P32
      000000A0H.3 SFRSYM    DATA     BIT       P23
      00000090H.4 SFRSYM    DATA     BIT       P14
      00000080H.5 SFRSYM    DATA     BIT       P05
      00000089H   SFRSYM    DATA     BYTE      TMOD
      00000088H   SFRSYM    DATA     BYTE      TCON
      000000B0H.3 SFRSYM    DATA     BIT       P33
      000000A0H.4 SFRSYM    DATA     BIT       P24
      00000090H.5 SFRSYM    DATA     BIT       P15
      00000080H.6 SFRSYM    DATA     BIT       P06
      000000B0H.4 SFRSYM    DATA     BIT       P34
      000000A0H.5 SFRSYM    DATA     BIT       P25
      00000090H.6 SFRSYM    DATA     BIT       P16
      00000080H.7 SFRSYM    DATA     BIT       P07
      000000B0H.5 SFRSYM    DATA     BIT       P35
      000000A0H.6 SFRSYM    DATA     BIT       P26
      00000090H.7 SFRSYM    DATA     BIT       P17
      000000F2H   SFRSYM    DATA     BYTE      I2CSSR
      000000B0H.6 SFRSYM    DATA     BIT       P36
      000000A0H.7 SFRSYM    DATA     BIT       P27
      000000ECH   SFRSYM    DATA     BYTE      SPCR
      000000DDH   SFRSYM    DATA     BYTE      ADRESH
      000000B0H.7 SFRSYM    DATA     BIT       P37
      000000EEH   SFRSYM    DATA     BYTE      SPDR
      000000EFH   SFRSYM    DATA     BYTE      SSCR
      000000D3H   SFRSYM    DATA     BYTE      ADDLYL
      000000DCH   SFRSYM    DATA     BYTE      ADRESL
      00000088H.1 SFRSYM    DATA     BIT       IE0
      00000088H.3 SFRSYM    DATA     BIT       IE1
      0000008FH   SFRSYM    DATA     BYTE      CLKDIV
      000000F0H   SFRSYM    DATA     BYTE      B
      00000091H   SFRSYM    DATA     BYTE      FUNCCR
      0000009AH   SFRSYM    DATA     BYTE      P0TRIS
      000000A1H   SFRSYM    DATA     BYTE      P1TRIS
      000000A2H   SFRSYM    DATA     BYTE      P2TRIS
      000000E0H   SFRSYM    DATA     BYTE      ACC
      000000A3H   SFRSYM    DATA     BYTE      P3TRIS
      000000A8H.4 SFRSYM    DATA     BIT       ES0
      000000A8H.6 SFRSYM    DATA     BIT       ES1
      000000A8H.1 SFRSYM    DATA     BIT       ET0
      000000EDH   SFRSYM    DATA     BYTE      SPSR
      000000A8H.3 SFRSYM    DATA     BIT       ET1
      00000088H.5 SFRSYM    DATA     BIT       TF0
      000000A8H.5 SFRSYM    DATA     BIT       ET2
      00000098H.0 SFRSYM    DATA     BIT       RI0
      00000088H.7 SFRSYM    DATA     BIT       TF1
      0000008CH   SFRSYM    DATA     BYTE      TH0
      000000A8H.0 SFRSYM    DATA     BIT       EX0
      00000098H.1 SFRSYM    DATA     BIT       TI0
      00000088H.0 SFRSYM    DATA     BIT       IT0
LX51 LINKER/LOCATER V4.66.97.0                                                        11/15/2024  17:07:44  PAGE 64


      0000008DH   SFRSYM    DATA     BYTE      TH1
      000000A8H.2 SFRSYM    DATA     BIT       EX1
      00000088H.2 SFRSYM    DATA     BIT       IT1
      000000CDH   SFRSYM    DATA     BYTE      TH2
      000000D0H.0 SFRSYM    DATA     BIT       P
      000000DBH   SFRSYM    DATA     BYTE      TH3
      000000E3H   SFRSYM    DATA     BYTE      TH4
      0000008AH   SFRSYM    DATA     BYTE      TL0
      0000008BH   SFRSYM    DATA     BYTE      TL1
      00000098H.2 SFRSYM    DATA     BIT       U0RB8
      000000CCH   SFRSYM    DATA     BYTE      TL2
      000000B8H.4 SFRSYM    DATA     BIT       PS0
      000000DAH   SFRSYM    DATA     BYTE      TL3
      000000BFH   SFRSYM    DATA     BYTE      BUZCON
      000000B8H.6 SFRSYM    DATA     BIT       PS1
      000000B8H.1 SFRSYM    DATA     BIT       PT0
      00000098H.3 SFRSYM    DATA     BIT       U0TB8
      000000E2H   SFRSYM    DATA     BYTE      TL4
      000000D0H.3 SFRSYM    DATA     BIT       RS0
      000000B8H.3 SFRSYM    DATA     BIT       PT1
      000000D0H.4 SFRSYM    DATA     BIT       RS1
      000000B8H.5 SFRSYM    DATA     BIT       PT2
      00000098H.7 SFRSYM    DATA     BIT       U0SM0
      00000088H.4 SFRSYM    DATA     BIT       TR0
      000000BEH   SFRSYM    DATA     BYTE      BUZDIV
      00000098H.6 SFRSYM    DATA     BIT       U0SM1
      00000088H.6 SFRSYM    DATA     BIT       TR1
      000000B8H.0 SFRSYM    DATA     BIT       PX0
      00000098H.5 SFRSYM    DATA     BIT       U0SM2
      000000B8H.2 SFRSYM    DATA     BIT       PX1
      000000BDH   SFRSYM    DATA     BYTE      WUTCRH
      00000099H   SFRSYM    DATA     BYTE      SBUF0
      000000EBH   SFRSYM    DATA     BYTE      SBUF1
      000000BCH   SFRSYM    DATA     BYTE      WUTCRL
      00000098H   SFRSYM    DATA     BYTE      SCON0
      000000EAH   SFRSYM    DATA     BYTE      SCON1
      000000C8H   SFRSYM    DATA     BYTE      T2CON
      00000086H   SFRSYM    DATA     BYTE      DPS
      000000FEH   SFRSYM    DATA     BYTE      MDATA
      000000F6H   SFRSYM    DATA     BYTE      I2CMBUF
      000000F1H   SFRSYM    DATA     BYTE      I2CSADR
      00000098H.4 SFRSYM    DATA     BIT       U0REN
      000000C8H.5 SFRSYM    DATA     BIT       CAPES
      000000FDH   SFRSYM    DATA     BYTE      MADRH
      0000008EH   SFRSYM    DATA     BYTE      CKCON
      000000F3H   SFRSYM    DATA     BYTE      I2CSBUF
      000000FCH   SFRSYM    DATA     BYTE      MADRL
      000000D0H.5 SFRSYM    DATA     BIT       F0
      000000FBH   SFRSYM    DATA     BYTE      MLOCK
      000000D0H   SFRSYM    DATA     BYTE      PSW
      00000097H   SFRSYM    DATA     BYTE      WDCON

      0100000EH   BLOCK     CODE     ---       LVL=0
      0100000EH   BLOCK     CODE     NEAR LAB  LVL=1
      0000005FH   SYMBOL    DATA     BYTE      buf
      ---         BLOCKEND  ---      ---       LVL=1
      0100000EH   LINE      CODE     ---       #6
      0100000EH   LINE      CODE     ---       #7
      0100000EH   LINE      CODE     ---       #10
      01000014H   LINE      CODE     ---       #11
      01000017H   LINE      CODE     ---       #12
      0100001AH   LINE      CODE     ---       #14
      0100001CH   LINE      CODE     ---       #15
      0100001DH   LINE      CODE     ---       #16
      01000020H   LINE      CODE     ---       #17
LX51 LINKER/LOCATER V4.66.97.0                                                        11/15/2024  17:07:44  PAGE 65


      01000023H   LINE      CODE     ---       #18
      01000026H   LINE      CODE     ---       #19
      01000027H   LINE      CODE     ---       #20
      01000029H   LINE      CODE     ---       #21
      ---         BLOCKEND  ---      ---       LVL=0

      01003CD7H   BLOCK     CODE     ---       LVL=0
      01003CD7H   LINE      CODE     ---       #25
      01003CD7H   LINE      CODE     ---       #26
      01003CD7H   LINE      CODE     ---       #27
      01003CD9H   LINE      CODE     ---       #28
      01003CDAH   LINE      CODE     ---       #29
      01003CDDH   LINE      CODE     ---       #30
      01003CE0H   LINE      CODE     ---       #31
      01003CE3H   LINE      CODE     ---       #32
      01003CE4H   LINE      CODE     ---       #33
      01003CE6H   LINE      CODE     ---       #34
      ---         BLOCKEND  ---      ---       LVL=0

      01003CE7H   BLOCK     CODE     ---       LVL=0
      01003CE7H   LINE      CODE     ---       #38
      01003CE7H   LINE      CODE     ---       #39
      01003CE7H   LINE      CODE     ---       #40
      01003CE9H   LINE      CODE     ---       #41
      01003CEAH   LINE      CODE     ---       #42
      01003CEDH   LINE      CODE     ---       #43
      01003CF0H   LINE      CODE     ---       #44
      01003CF3H   LINE      CODE     ---       #45
      01003CF4H   LINE      CODE     ---       #46
      01003CF6H   LINE      CODE     ---       #47
      ---         BLOCKEND  ---      ---       LVL=0

      0100002EH   BLOCK     CODE     ---       LVL=0
      0100002EH   BLOCK     CODE     NEAR LAB  LVL=1
      00000060H   SYMBOL    DATA     BYTE      buf
      ---         BLOCKEND  ---      ---       LVL=1
      0100002EH   LINE      CODE     ---       #51
      0100002EH   LINE      CODE     ---       #52
      0100002EH   LINE      CODE     ---       #55
      01000030H   LINE      CODE     ---       #56
      01000031H   LINE      CODE     ---       #57
      01000034H   LINE      CODE     ---       #58
      01000037H   LINE      CODE     ---       #59
      0100003AH   LINE      CODE     ---       #60
      0100003BH   LINE      CODE     ---       #61
      0100003DH   LINE      CODE     ---       #63
      01000046H   LINE      CODE     ---       #64
      ---         BLOCKEND  ---      ---       LVL=0

      ---         MODULE    ---      ---       FLASH
      010038BEH   PUBLIC    CODE     ---       _Flash_Operation
      00000021H.2 PUBLIC    BIT      BIT       ?SetFlashState?BIT
      01003CC6H   PUBLIC    CODE     ---       SetFlashState
      000000C8H.0 SFRSYM    DATA     BIT       T2I0
      000000C3H   SFRSYM    DATA     BYTE      CCH1
      00000080H   SFRSYM    DATA     BYTE      P0
      000000C8H.1 SFRSYM    DATA     BIT       T2I1
      000000C5H   SFRSYM    DATA     BYTE      CCH2
      00000090H   SFRSYM    DATA     BYTE      P1
      000000C7H   SFRSYM    DATA     BYTE      CCH3
      000000ACH   SFRSYM    DATA     BYTE      P0EXTIE
      000000A0H   SFRSYM    DATA     BYTE      P2
      000000B4H   SFRSYM    DATA     BYTE      P0EXTIF
      000000B0H   SFRSYM    DATA     BYTE      P3
      000000ADH   SFRSYM    DATA     BYTE      P1EXTIE
LX51 LINKER/LOCATER V4.66.97.0                                                        11/15/2024  17:07:44  PAGE 66


      000000D0H.6 SFRSYM    DATA     BIT       AC
      000000FFH   SFRSYM    DATA     BYTE      MCTRL
      000000C2H   SFRSYM    DATA     BYTE      CCL1
      000000B5H   SFRSYM    DATA     BYTE      P1EXTIF
      000000AEH   SFRSYM    DATA     BYTE      P2EXTIE
      000000C4H   SFRSYM    DATA     BYTE      CCL2
      000000B6H   SFRSYM    DATA     BYTE      P2EXTIF
      000000AFH   SFRSYM    DATA     BYTE      P3EXTIE
      000000A8H.7 SFRSYM    DATA     BIT       EA
      000000C6H   SFRSYM    DATA     BYTE      CCL3
      000000B7H   SFRSYM    DATA     BYTE      P3EXTIF
      000000AAH   SFRSYM    DATA     BYTE      EIE2
      000000B2H   SFRSYM    DATA     BYTE      EIF2
      000000C8H.3 SFRSYM    DATA     BIT       T2R0
      000000C8H.4 SFRSYM    DATA     BIT       T2R1
      00000083H   SFRSYM    DATA     BYTE      DPH0
      000000A8H   SFRSYM    DATA     BYTE      IE
      00000085H   SFRSYM    DATA     BYTE      DPH1
      000000B9H   SFRSYM    DATA     BYTE      EIP1
      000000BAH   SFRSYM    DATA     BYTE      EIP2
      00000082H   SFRSYM    DATA     BYTE      DPL0
      00000084H   SFRSYM    DATA     BYTE      DPL1
      000000C8H.6 SFRSYM    DATA     BIT       I3FR
      000000CFH   SFRSYM    DATA     BYTE      T2IE
      00000096H   SFRSYM    DATA     BYTE      TA
      000000C9H   SFRSYM    DATA     BYTE      T2IF
      000000C8H.2 SFRSYM    DATA     BIT       T2CM
      000000DFH   SFRSYM    DATA     BYTE      ADCON0
      000000DEH   SFRSYM    DATA     BYTE      ADCON1
      000000E9H   SFRSYM    DATA     BYTE      ADCON2
      000000B8H   SFRSYM    DATA     BYTE      IP
      000000CEH   SFRSYM    DATA     BYTE      CCEN
      000000D0H.7 SFRSYM    DATA     BIT       CY
      000000D2H   SFRSYM    DATA     BYTE      T34MOD
      00000093H   SFRSYM    DATA     BYTE      DPX0
      00000095H   SFRSYM    DATA     BYTE      DPX1
      000000F4H   SFRSYM    DATA     BYTE      I2CMSA
      000000F5H   SFRSYM    DATA     BYTE      I2CMCR
      00000081H   SFRSYM    DATA     BYTE      SP
      000000D0H.2 SFRSYM    DATA     BIT       OV
      000000F2H   SFRSYM    DATA     BYTE      I2CSCR
      000000C8H.7 SFRSYM    DATA     BIT       T2PS
      000000D1H   SFRSYM    DATA     BYTE      ADCMPC
      000000CBH   SFRSYM    DATA     BYTE      RLDH
      000000D5H   SFRSYM    DATA     BYTE      ADCMPH
      000000CAH   SFRSYM    DATA     BYTE      RLDL
      00000080H.0 SFRSYM    DATA     BIT       P00
      00000090H.0 SFRSYM    DATA     BIT       P10
      00000080H.1 SFRSYM    DATA     BIT       P01
      000000F7H   SFRSYM    DATA     BYTE      I2CMTP
      00000099H   SFRSYM    DATA     BYTE      SBUF
      00000087H   SFRSYM    DATA     BYTE      PCON
      000000A0H.0 SFRSYM    DATA     BIT       P20
      00000090H.1 SFRSYM    DATA     BIT       P11
      00000080H.2 SFRSYM    DATA     BIT       P02
      000000F5H   SFRSYM    DATA     BYTE      I2CMSR
      000000B0H.0 SFRSYM    DATA     BIT       P30
      000000A0H.1 SFRSYM    DATA     BIT       P21
      00000090H.2 SFRSYM    DATA     BIT       P12
      00000080H.3 SFRSYM    DATA     BIT       P03
      000000D4H   SFRSYM    DATA     BYTE      ADCMPL
      000000B0H.1 SFRSYM    DATA     BIT       P31
      000000A0H.2 SFRSYM    DATA     BIT       P22
      00000090H.3 SFRSYM    DATA     BIT       P13
      00000080H.4 SFRSYM    DATA     BIT       P04
LX51 LINKER/LOCATER V4.66.97.0                                                        11/15/2024  17:07:44  PAGE 67


      000000B0H.2 SFRSYM    DATA     BIT       P32
      000000A0H.3 SFRSYM    DATA     BIT       P23
      00000090H.4 SFRSYM    DATA     BIT       P14
      00000080H.5 SFRSYM    DATA     BIT       P05
      00000089H   SFRSYM    DATA     BYTE      TMOD
      00000088H   SFRSYM    DATA     BYTE      TCON
      000000B0H.3 SFRSYM    DATA     BIT       P33
      000000A0H.4 SFRSYM    DATA     BIT       P24
      00000090H.5 SFRSYM    DATA     BIT       P15
      00000080H.6 SFRSYM    DATA     BIT       P06
      000000B0H.4 SFRSYM    DATA     BIT       P34
      000000A0H.5 SFRSYM    DATA     BIT       P25
      00000090H.6 SFRSYM    DATA     BIT       P16
      00000080H.7 SFRSYM    DATA     BIT       P07
      000000B0H.5 SFRSYM    DATA     BIT       P35
      000000A0H.6 SFRSYM    DATA     BIT       P26
      00000090H.7 SFRSYM    DATA     BIT       P17
      000000F2H   SFRSYM    DATA     BYTE      I2CSSR
      000000B0H.6 SFRSYM    DATA     BIT       P36
      000000A0H.7 SFRSYM    DATA     BIT       P27
      000000ECH   SFRSYM    DATA     BYTE      SPCR
      000000DDH   SFRSYM    DATA     BYTE      ADRESH
      000000B0H.7 SFRSYM    DATA     BIT       P37
      000000EEH   SFRSYM    DATA     BYTE      SPDR
      000000EFH   SFRSYM    DATA     BYTE      SSCR
      000000D3H   SFRSYM    DATA     BYTE      ADDLYL
      000000DCH   SFRSYM    DATA     BYTE      ADRESL
      00000088H.1 SFRSYM    DATA     BIT       IE0
      00000088H.3 SFRSYM    DATA     BIT       IE1
      0000008FH   SFRSYM    DATA     BYTE      CLKDIV
      000000F0H   SFRSYM    DATA     BYTE      B
      00000091H   SFRSYM    DATA     BYTE      FUNCCR
      0000009AH   SFRSYM    DATA     BYTE      P0TRIS
      000000A1H   SFRSYM    DATA     BYTE      P1TRIS
      000000A2H   SFRSYM    DATA     BYTE      P2TRIS
      000000E0H   SFRSYM    DATA     BYTE      ACC
      000000A3H   SFRSYM    DATA     BYTE      P3TRIS
      000000A8H.4 SFRSYM    DATA     BIT       ES0
      000000A8H.6 SFRSYM    DATA     BIT       ES1
      000000A8H.1 SFRSYM    DATA     BIT       ET0
      000000EDH   SFRSYM    DATA     BYTE      SPSR
      000000A8H.3 SFRSYM    DATA     BIT       ET1
      00000088H.5 SFRSYM    DATA     BIT       TF0
      000000A8H.5 SFRSYM    DATA     BIT       ET2
      00000098H.0 SFRSYM    DATA     BIT       RI0
      00000088H.7 SFRSYM    DATA     BIT       TF1
      0000008CH   SFRSYM    DATA     BYTE      TH0
      000000A8H.0 SFRSYM    DATA     BIT       EX0
      00000098H.1 SFRSYM    DATA     BIT       TI0
      00000088H.0 SFRSYM    DATA     BIT       IT0
      0000008DH   SFRSYM    DATA     BYTE      TH1
      000000A8H.2 SFRSYM    DATA     BIT       EX1
      00000088H.2 SFRSYM    DATA     BIT       IT1
      000000CDH   SFRSYM    DATA     BYTE      TH2
      000000D0H.0 SFRSYM    DATA     BIT       P
      000000DBH   SFRSYM    DATA     BYTE      TH3
      000000E3H   SFRSYM    DATA     BYTE      TH4
      0000008AH   SFRSYM    DATA     BYTE      TL0
      0000008BH   SFRSYM    DATA     BYTE      TL1
      00000098H.2 SFRSYM    DATA     BIT       U0RB8
      000000CCH   SFRSYM    DATA     BYTE      TL2
      000000B8H.4 SFRSYM    DATA     BIT       PS0
      000000DAH   SFRSYM    DATA     BYTE      TL3
      000000BFH   SFRSYM    DATA     BYTE      BUZCON
      000000B8H.6 SFRSYM    DATA     BIT       PS1
LX51 LINKER/LOCATER V4.66.97.0                                                        11/15/2024  17:07:44  PAGE 68


      000000B8H.1 SFRSYM    DATA     BIT       PT0
      00000098H.3 SFRSYM    DATA     BIT       U0TB8
      000000E2H   SFRSYM    DATA     BYTE      TL4
      000000D0H.3 SFRSYM    DATA     BIT       RS0
      000000B8H.3 SFRSYM    DATA     BIT       PT1
      000000D0H.4 SFRSYM    DATA     BIT       RS1
      000000B8H.5 SFRSYM    DATA     BIT       PT2
      00000098H.7 SFRSYM    DATA     BIT       U0SM0
      00000088H.4 SFRSYM    DATA     BIT       TR0
      000000BEH   SFRSYM    DATA     BYTE      BUZDIV
      00000098H.6 SFRSYM    DATA     BIT       U0SM1
      00000088H.6 SFRSYM    DATA     BIT       TR1
      000000B8H.0 SFRSYM    DATA     BIT       PX0
      00000098H.5 SFRSYM    DATA     BIT       U0SM2
      000000B8H.2 SFRSYM    DATA     BIT       PX1
      000000BDH   SFRSYM    DATA     BYTE      WUTCRH
      00000099H   SFRSYM    DATA     BYTE      SBUF0
      000000EBH   SFRSYM    DATA     BYTE      SBUF1
      000000BCH   SFRSYM    DATA     BYTE      WUTCRL
      00000098H   SFRSYM    DATA     BYTE      SCON0
      000000EAH   SFRSYM    DATA     BYTE      SCON1
      000000C8H   SFRSYM    DATA     BYTE      T2CON
      00000086H   SFRSYM    DATA     BYTE      DPS
      000000FEH   SFRSYM    DATA     BYTE      MDATA
      000000F6H   SFRSYM    DATA     BYTE      I2CMBUF
      000000F1H   SFRSYM    DATA     BYTE      I2CSADR
      00000098H.4 SFRSYM    DATA     BIT       U0REN
      000000C8H.5 SFRSYM    DATA     BIT       CAPES
      000000FDH   SFRSYM    DATA     BYTE      MADRH
      0000008EH   SFRSYM    DATA     BYTE      CKCON
      000000F3H   SFRSYM    DATA     BYTE      I2CSBUF
      000000FCH   SFRSYM    DATA     BYTE      MADRL
      000000D0H.5 SFRSYM    DATA     BIT       F0
      000000FBH   SFRSYM    DATA     BYTE      MLOCK
      000000D0H   SFRSYM    DATA     BYTE      PSW
      00000097H   SFRSYM    DATA     BYTE      WDCON

      01003CC6H   BLOCK     CODE     ---       LVL=0
      00000021H.2 SYMBOL    BIT      BIT       IsUnlocked
      01003CC6H   LINE      CODE     ---       #5
      01003CC6H   LINE      CODE     ---       #6
      01003CC6H   LINE      CODE     ---       #8
      01003CC9H   LINE      CODE     ---       #9
      01003CC9H   LINE      CODE     ---       #10
      01003CCBH   LINE      CODE     ---       #11
      01003CCCH   LINE      CODE     ---       #12
      01003CCFH   LINE      CODE     ---       #13
      01003CD0H   LINE      CODE     ---       #16
      01003CD0H   LINE      CODE     ---       #17
      01003CD3H   LINE      CODE     ---       #18
      01003CD4H   LINE      CODE     ---       #19
      01003CD6H   LINE      CODE     ---       #20
      01003CD6H   LINE      CODE     ---       #21
      ---         BLOCKEND  ---      ---       LVL=0

      010038BEH   BLOCK     CODE     ---       LVL=0
      00000036H   SYMBOL    DATA     BYTE      Operation
      00000004H   SYMBOL    DATA     INT       ADDR
      00000001H   SYMBOL    DATA     ---       Data
      010038BEH   LINE      CODE     ---       #24
      010038C0H   LINE      CODE     ---       #25
      010038C0H   LINE      CODE     ---       #26
      010038CAH   LINE      CODE     ---       #27
      010038CDH   LINE      CODE     ---       #28
      010038D2H   LINE      CODE     ---       #29
LX51 LINKER/LOCATER V4.66.97.0                                                        11/15/2024  17:07:44  PAGE 69


      010038D3H   LINE      CODE     ---       #30
      010038D6H   LINE      CODE     ---       #31
      010038D7H   LINE      CODE     ---       #32
      010038D8H   LINE      CODE     ---       #33
      010038D9H   LINE      CODE     ---       #34
      010038DAH   LINE      CODE     ---       #35
      010038DBH   LINE      CODE     ---       #36
      010038DCH   LINE      CODE     ---       #37
      010038E1H   LINE      CODE     ---       #38
      010038ECH   LINE      CODE     ---       #39
      ---         BLOCKEND  ---      ---       LVL=0

      ---         MODULE    ---      ---       TAILKEY
      0200005EH   PUBLIC    XDATA    CHAR      TailKeyTIM
      01003946H   PUBLIC    CODE     ---       TailKey_Handler
      010037ADH   PUBLIC    CODE     ---       TailKeyCounter
      01003C90H   PUBLIC    CODE     ---       GetTailKeyCount
      010038EDH   PUBLIC    CODE     ---       TailKey_Init
      01003ABFH   PUBLIC    CODE     ---       ACMP_IRQHandler
      000000C8H.0 SFRSYM    DATA     BIT       T2I0
      000000C3H   SFRSYM    DATA     BYTE      CCH1
      00000080H   SFRSYM    DATA     BYTE      P0
      000000C8H.1 SFRSYM    DATA     BIT       T2I1
      000000C5H   SFRSYM    DATA     BYTE      CCH2
      00000090H   SFRSYM    DATA     BYTE      P1
      000000C7H   SFRSYM    DATA     BYTE      CCH3
      000000ACH   SFRSYM    DATA     BYTE      P0EXTIE
      000000A0H   SFRSYM    DATA     BYTE      P2
      000000B4H   SFRSYM    DATA     BYTE      P0EXTIF
      000000B0H   SFRSYM    DATA     BYTE      P3
      000000ADH   SFRSYM    DATA     BYTE      P1EXTIE
      000000D0H.6 SFRSYM    DATA     BIT       AC
      000000FFH   SFRSYM    DATA     BYTE      MCTRL
      000000C2H   SFRSYM    DATA     BYTE      CCL1
      000000B5H   SFRSYM    DATA     BYTE      P1EXTIF
      000000AEH   SFRSYM    DATA     BYTE      P2EXTIE
      000000C4H   SFRSYM    DATA     BYTE      CCL2
      000000B6H   SFRSYM    DATA     BYTE      P2EXTIF
      000000AFH   SFRSYM    DATA     BYTE      P3EXTIE
      000000A8H.7 SFRSYM    DATA     BIT       EA
      000000C6H   SFRSYM    DATA     BYTE      CCL3
      000000B7H   SFRSYM    DATA     BYTE      P3EXTIF
      000000AAH   SFRSYM    DATA     BYTE      EIE2
      000000B2H   SFRSYM    DATA     BYTE      EIF2
      000000C8H.3 SFRSYM    DATA     BIT       T2R0
      000000C8H.4 SFRSYM    DATA     BIT       T2R1
      00000083H   SFRSYM    DATA     BYTE      DPH0
      000000A8H   SFRSYM    DATA     BYTE      IE
      00000085H   SFRSYM    DATA     BYTE      DPH1
      000000B9H   SFRSYM    DATA     BYTE      EIP1
      000000BAH   SFRSYM    DATA     BYTE      EIP2
      00000082H   SFRSYM    DATA     BYTE      DPL0
      00000084H   SFRSYM    DATA     BYTE      DPL1
      000000C8H.6 SFRSYM    DATA     BIT       I3FR
      000000CFH   SFRSYM    DATA     BYTE      T2IE
      00000096H   SFRSYM    DATA     BYTE      TA
      000000C9H   SFRSYM    DATA     BYTE      T2IF
      000000C8H.2 SFRSYM    DATA     BIT       T2CM
      000000DFH   SFRSYM    DATA     BYTE      ADCON0
      000000DEH   SFRSYM    DATA     BYTE      ADCON1
      000000E9H   SFRSYM    DATA     BYTE      ADCON2
      000000B8H   SFRSYM    DATA     BYTE      IP
      000000CEH   SFRSYM    DATA     BYTE      CCEN
      000000D0H.7 SFRSYM    DATA     BIT       CY
      000000D2H   SFRSYM    DATA     BYTE      T34MOD
LX51 LINKER/LOCATER V4.66.97.0                                                        11/15/2024  17:07:44  PAGE 70


      00000093H   SFRSYM    DATA     BYTE      DPX0
      00000095H   SFRSYM    DATA     BYTE      DPX1
      000000F4H   SFRSYM    DATA     BYTE      I2CMSA
      000000F5H   SFRSYM    DATA     BYTE      I2CMCR
      00000081H   SFRSYM    DATA     BYTE      SP
      000000D0H.2 SFRSYM    DATA     BIT       OV
      000000F2H   SFRSYM    DATA     BYTE      I2CSCR
      000000C8H.7 SFRSYM    DATA     BIT       T2PS
      000000D1H   SFRSYM    DATA     BYTE      ADCMPC
      000000CBH   SFRSYM    DATA     BYTE      RLDH
      000000D5H   SFRSYM    DATA     BYTE      ADCMPH
      000000CAH   SFRSYM    DATA     BYTE      RLDL
      00000080H.0 SFRSYM    DATA     BIT       P00
      00000090H.0 SFRSYM    DATA     BIT       P10
      00000080H.1 SFRSYM    DATA     BIT       P01
      000000F7H   SFRSYM    DATA     BYTE      I2CMTP
      00000099H   SFRSYM    DATA     BYTE      SBUF
      00000087H   SFRSYM    DATA     BYTE      PCON
      000000A0H.0 SFRSYM    DATA     BIT       P20
      00000090H.1 SFRSYM    DATA     BIT       P11
      00000080H.2 SFRSYM    DATA     BIT       P02
      000000F5H   SFRSYM    DATA     BYTE      I2CMSR
      000000B0H.0 SFRSYM    DATA     BIT       P30
      000000A0H.1 SFRSYM    DATA     BIT       P21
      00000090H.2 SFRSYM    DATA     BIT       P12
      00000080H.3 SFRSYM    DATA     BIT       P03
      000000D4H   SFRSYM    DATA     BYTE      ADCMPL
      000000B0H.1 SFRSYM    DATA     BIT       P31
      000000A0H.2 SFRSYM    DATA     BIT       P22
      00000090H.3 SFRSYM    DATA     BIT       P13
      00000080H.4 SFRSYM    DATA     BIT       P04
      000000B0H.2 SFRSYM    DATA     BIT       P32
      000000A0H.3 SFRSYM    DATA     BIT       P23
      00000090H.4 SFRSYM    DATA     BIT       P14
      00000080H.5 SFRSYM    DATA     BIT       P05
      00000089H   SFRSYM    DATA     BYTE      TMOD
      00000088H   SFRSYM    DATA     BYTE      TCON
      000000B0H.3 SFRSYM    DATA     BIT       P33
      000000A0H.4 SFRSYM    DATA     BIT       P24
      00000090H.5 SFRSYM    DATA     BIT       P15
      00000080H.6 SFRSYM    DATA     BIT       P06
      000000B0H.4 SFRSYM    DATA     BIT       P34
      000000A0H.5 SFRSYM    DATA     BIT       P25
      00000090H.6 SFRSYM    DATA     BIT       P16
      00000080H.7 SFRSYM    DATA     BIT       P07
      000000B0H.5 SFRSYM    DATA     BIT       P35
      000000A0H.6 SFRSYM    DATA     BIT       P26
      00000090H.7 SFRSYM    DATA     BIT       P17
      000000F2H   SFRSYM    DATA     BYTE      I2CSSR
      000000B0H.6 SFRSYM    DATA     BIT       P36
      000000A0H.7 SFRSYM    DATA     BIT       P27
      000000ECH   SFRSYM    DATA     BYTE      SPCR
      000000DDH   SFRSYM    DATA     BYTE      ADRESH
      000000B0H.7 SFRSYM    DATA     BIT       P37
      000000EEH   SFRSYM    DATA     BYTE      SPDR
      000000EFH   SFRSYM    DATA     BYTE      SSCR
      000000D3H   SFRSYM    DATA     BYTE      ADDLYL
      000000DCH   SFRSYM    DATA     BYTE      ADRESL
      00000088H.1 SFRSYM    DATA     BIT       IE0
      00000088H.3 SFRSYM    DATA     BIT       IE1
      0000008FH   SFRSYM    DATA     BYTE      CLKDIV
      000000F0H   SFRSYM    DATA     BYTE      B
      00000091H   SFRSYM    DATA     BYTE      FUNCCR
      0000009AH   SFRSYM    DATA     BYTE      P0TRIS
      000000A1H   SFRSYM    DATA     BYTE      P1TRIS
LX51 LINKER/LOCATER V4.66.97.0                                                        11/15/2024  17:07:44  PAGE 71


      000000A2H   SFRSYM    DATA     BYTE      P2TRIS
      000000E0H   SFRSYM    DATA     BYTE      ACC
      000000A3H   SFRSYM    DATA     BYTE      P3TRIS
      000000A8H.4 SFRSYM    DATA     BIT       ES0
      000000A8H.6 SFRSYM    DATA     BIT       ES1
      000000A8H.1 SFRSYM    DATA     BIT       ET0
      000000EDH   SFRSYM    DATA     BYTE      SPSR
      000000A8H.3 SFRSYM    DATA     BIT       ET1
      00000088H.5 SFRSYM    DATA     BIT       TF0
      000000A8H.5 SFRSYM    DATA     BIT       ET2
      00000098H.0 SFRSYM    DATA     BIT       RI0
      00000088H.7 SFRSYM    DATA     BIT       TF1
      0000008CH   SFRSYM    DATA     BYTE      TH0
      000000A8H.0 SFRSYM    DATA     BIT       EX0
      00000098H.1 SFRSYM    DATA     BIT       TI0
      00000088H.0 SFRSYM    DATA     BIT       IT0
      0000008DH   SFRSYM    DATA     BYTE      TH1
      000000A8H.2 SFRSYM    DATA     BIT       EX1
      00000088H.2 SFRSYM    DATA     BIT       IT1
      000000CDH   SFRSYM    DATA     BYTE      TH2
      000000D0H.0 SFRSYM    DATA     BIT       P
      000000DBH   SFRSYM    DATA     BYTE      TH3
      000000E3H   SFRSYM    DATA     BYTE      TH4
      0000008AH   SFRSYM    DATA     BYTE      TL0
      0000008BH   SFRSYM    DATA     BYTE      TL1
      00000098H.2 SFRSYM    DATA     BIT       U0RB8
      000000CCH   SFRSYM    DATA     BYTE      TL2
      000000B8H.4 SFRSYM    DATA     BIT       PS0
      000000DAH   SFRSYM    DATA     BYTE      TL3
      000000BFH   SFRSYM    DATA     BYTE      BUZCON
      000000B8H.6 SFRSYM    DATA     BIT       PS1
      000000B8H.1 SFRSYM    DATA     BIT       PT0
      00000098H.3 SFRSYM    DATA     BIT       U0TB8
      000000E2H   SFRSYM    DATA     BYTE      TL4
      000000D0H.3 SFRSYM    DATA     BIT       RS0
      000000B8H.3 SFRSYM    DATA     BIT       PT1
      000000D0H.4 SFRSYM    DATA     BIT       RS1
      000000B8H.5 SFRSYM    DATA     BIT       PT2
      00000098H.7 SFRSYM    DATA     BIT       U0SM0
      00000088H.4 SFRSYM    DATA     BIT       TR0
      000000BEH   SFRSYM    DATA     BYTE      BUZDIV
      00000098H.6 SFRSYM    DATA     BIT       U0SM1
      00000088H.6 SFRSYM    DATA     BIT       TR1
      000000B8H.0 SFRSYM    DATA     BIT       PX0
      00000098H.5 SFRSYM    DATA     BIT       U0SM2
      000000B8H.2 SFRSYM    DATA     BIT       PX1
      000000BDH   SFRSYM    DATA     BYTE      WUTCRH
      00000099H   SFRSYM    DATA     BYTE      SBUF0
      000000EBH   SFRSYM    DATA     BYTE      SBUF1
      000000BCH   SFRSYM    DATA     BYTE      WUTCRL
      00000098H   SFRSYM    DATA     BYTE      SCON0
      000000EAH   SFRSYM    DATA     BYTE      SCON1
      000000C8H   SFRSYM    DATA     BYTE      T2CON
      00000086H   SFRSYM    DATA     BYTE      DPS
      000000FEH   SFRSYM    DATA     BYTE      MDATA
      000000F6H   SFRSYM    DATA     BYTE      I2CMBUF
      000000F1H   SFRSYM    DATA     BYTE      I2CSADR
      00000098H.4 SFRSYM    DATA     BIT       U0REN
      000000C8H.5 SFRSYM    DATA     BIT       CAPES
      000000FDH   SFRSYM    DATA     BYTE      MADRH
      0000008EH   SFRSYM    DATA     BYTE      CKCON
      000000F3H   SFRSYM    DATA     BYTE      I2CSBUF
      000000FCH   SFRSYM    DATA     BYTE      MADRL
      000000D0H.5 SFRSYM    DATA     BIT       F0
      000000FBH   SFRSYM    DATA     BYTE      MLOCK
LX51 LINKER/LOCATER V4.66.97.0                                                        11/15/2024  17:07:44  PAGE 72


      000000D0H   SFRSYM    DATA     BYTE      PSW
      00000097H   SFRSYM    DATA     BYTE      WDCON
      00000061H   SYMBOL    DATA     BYTE      IsEnterLowPowerMode
      0200005FH   SYMBOL    XDATA    CHAR      TailKeyCount
      02000060H   SYMBOL    XDATA    BYTE      IsTailKeyPressed

      01003ABFH   BLOCK     CODE     ---       LVL=0
      01003ABFH   LINE      CODE     ---       #18
      01003AC5H   LINE      CODE     ---       #20
      01003AC8H   LINE      CODE     ---       #21
      01003ACBH   LINE      CODE     ---       #22
      01003ACEH   LINE      CODE     ---       #23
      01003AD1H   LINE      CODE     ---       #24
      01003AD4H   LINE      CODE     ---       #25
      01003AD7H   LINE      CODE     ---       #26
      01003ADAH   LINE      CODE     ---       #28
      01003ADFH   LINE      CODE     ---       #29
      ---         BLOCKEND  ---      ---       LVL=0

      010038EDH   BLOCK     CODE     ---       LVL=0
      010038EDH   LINE      CODE     ---       #32
      010038EDH   LINE      CODE     ---       #33
      010038EDH   LINE      CODE     ---       #34
      010038F3H   LINE      CODE     ---       #35
      010038F8H   LINE      CODE     ---       #36
      010038FCH   LINE      CODE     ---       #37
      01003902H   LINE      CODE     ---       #38
      01003905H   LINE      CODE     ---       #39
      0100390CH   LINE      CODE     ---       #42
      01003911H   LINE      CODE     ---       #43
      01003914H   LINE      CODE     ---       #44
      01003919H   LINE      CODE     ---       #45
      ---         BLOCKEND  ---      ---       LVL=0

      01003C90H   BLOCK     CODE     ---       LVL=0
      01003C90H   BLOCK     CODE     NEAR LAB  LVL=1
      00000007H   SYMBOL    DATA     CHAR      buf
      ---         BLOCKEND  ---      ---       LVL=1
      01003C90H   LINE      CODE     ---       #48
      01003C90H   LINE      CODE     ---       #49
      01003C90H   LINE      CODE     ---       #51
      01003C98H   LINE      CODE     ---       #53
      01003C98H   LINE      CODE     ---       #54
      01003C9DH   LINE      CODE     ---       #55
      01003C9FH   LINE      CODE     ---       #56
      01003CA1H   LINE      CODE     ---       #57
      01003CA1H   LINE      CODE     ---       #58
      01003CA1H   LINE      CODE     ---       #59
      ---         BLOCKEND  ---      ---       LVL=0

      010037ADH   BLOCK     CODE     ---       LVL=0
      010037ADH   LINE      CODE     ---       #62
      010037ADH   LINE      CODE     ---       #63
      010037ADH   LINE      CODE     ---       #64
      010037C5H   LINE      CODE     ---       #65
      010037CBH   LINE      CODE     ---       #66
      010037CBH   LINE      CODE     ---       #67
      010037D1H   LINE      CODE     ---       #68
      010037E7H   LINE      CODE     ---       #69
      010037E7H   LINE      CODE     ---       #70
      ---         BLOCKEND  ---      ---       LVL=0

      01003946H   BLOCK     CODE     ---       LVL=0
      01003946H   LINE      CODE     ---       #73
      01003946H   LINE      CODE     ---       #74
LX51 LINKER/LOCATER V4.66.97.0                                                        11/15/2024  17:07:44  PAGE 73


      01003946H   LINE      CODE     ---       #75
      0100394AH   LINE      CODE     ---       #78
      0100394AH   LINE      CODE     ---       #79
      01003951H   LINE      CODE     ---       #80
      01003957H   LINE      CODE     ---       #81
      01003960H   LINE      CODE     ---       #82
      01003960H   LINE      CODE     ---       #83
      01003966H   LINE      CODE     ---       #84
      0100396CH   LINE      CODE     ---       #85
      01003971H   LINE      CODE     ---       #86
      ---         BLOCKEND  ---      ---       LVL=0

      ---         MODULE    ---      ---       BATTVOLTDISPLAY
      0200002CH   PUBLIC    XDATA    FLOAT     Battery
      00000022H.5 PUBLIC    BIT      BIT       IsBatteryFault
      00000022H.4 PUBLIC    BIT      BIT       IsBatteryAlert
      02000020H   PUBLIC    XDATA    CHAR      VbattCellCount
      0200001FH   PUBLIC    XDATA    BYTE      BattState
      0200001EH   PUBLIC    XDATA    BYTE      VshowFSMState
      01000F49H   PUBLIC    CODE     ---       BatteryTelemHandler
      01003771H   PUBLIC    CODE     ---       BattDisplayTIM
      01002136H   PUBLIC    CODE     ---       DisplayVBattAtStart
      01003D1BH   PUBLIC    CODE     ---       TriggerVshowDisplay
      000000C8H.0 SFRSYM    DATA     BIT       T2I0
      000000C3H   SFRSYM    DATA     BYTE      CCH1
      00000080H   SFRSYM    DATA     BYTE      P0
      000000C8H.1 SFRSYM    DATA     BIT       T2I1
      000000C5H   SFRSYM    DATA     BYTE      CCH2
      00000090H   SFRSYM    DATA     BYTE      P1
      000000C7H   SFRSYM    DATA     BYTE      CCH3
      000000ACH   SFRSYM    DATA     BYTE      P0EXTIE
      000000A0H   SFRSYM    DATA     BYTE      P2
      000000B4H   SFRSYM    DATA     BYTE      P0EXTIF
      000000B0H   SFRSYM    DATA     BYTE      P3
      000000ADH   SFRSYM    DATA     BYTE      P1EXTIE
      000000D0H.6 SFRSYM    DATA     BIT       AC
      000000FFH   SFRSYM    DATA     BYTE      MCTRL
      000000C2H   SFRSYM    DATA     BYTE      CCL1
      000000B5H   SFRSYM    DATA     BYTE      P1EXTIF
      000000AEH   SFRSYM    DATA     BYTE      P2EXTIE
      000000C4H   SFRSYM    DATA     BYTE      CCL2
      000000B6H   SFRSYM    DATA     BYTE      P2EXTIF
      000000AFH   SFRSYM    DATA     BYTE      P3EXTIE
      000000A8H.7 SFRSYM    DATA     BIT       EA
      000000C6H   SFRSYM    DATA     BYTE      CCL3
      000000B7H   SFRSYM    DATA     BYTE      P3EXTIF
      000000AAH   SFRSYM    DATA     BYTE      EIE2
      000000B2H   SFRSYM    DATA     BYTE      EIF2
      000000C8H.3 SFRSYM    DATA     BIT       T2R0
      000000C8H.4 SFRSYM    DATA     BIT       T2R1
      00000083H   SFRSYM    DATA     BYTE      DPH0
      000000A8H   SFRSYM    DATA     BYTE      IE
      00000085H   SFRSYM    DATA     BYTE      DPH1
      000000B9H   SFRSYM    DATA     BYTE      EIP1
      000000BAH   SFRSYM    DATA     BYTE      EIP2
      00000082H   SFRSYM    DATA     BYTE      DPL0
      00000084H   SFRSYM    DATA     BYTE      DPL1
      000000C8H.6 SFRSYM    DATA     BIT       I3FR
      000000CFH   SFRSYM    DATA     BYTE      T2IE
      00000096H   SFRSYM    DATA     BYTE      TA
      000000C9H   SFRSYM    DATA     BYTE      T2IF
      000000C8H.2 SFRSYM    DATA     BIT       T2CM
      000000DFH   SFRSYM    DATA     BYTE      ADCON0
      000000DEH   SFRSYM    DATA     BYTE      ADCON1
      000000E9H   SFRSYM    DATA     BYTE      ADCON2
LX51 LINKER/LOCATER V4.66.97.0                                                        11/15/2024  17:07:44  PAGE 74


      000000B8H   SFRSYM    DATA     BYTE      IP
      000000CEH   SFRSYM    DATA     BYTE      CCEN
      000000D0H.7 SFRSYM    DATA     BIT       CY
      000000D2H   SFRSYM    DATA     BYTE      T34MOD
      00000093H   SFRSYM    DATA     BYTE      DPX0
      00000095H   SFRSYM    DATA     BYTE      DPX1
      000000F4H   SFRSYM    DATA     BYTE      I2CMSA
      000000F5H   SFRSYM    DATA     BYTE      I2CMCR
      00000081H   SFRSYM    DATA     BYTE      SP
      000000D0H.2 SFRSYM    DATA     BIT       OV
      000000F2H   SFRSYM    DATA     BYTE      I2CSCR
      000000C8H.7 SFRSYM    DATA     BIT       T2PS
      000000D1H   SFRSYM    DATA     BYTE      ADCMPC
      000000CBH   SFRSYM    DATA     BYTE      RLDH
      000000D5H   SFRSYM    DATA     BYTE      ADCMPH
      000000CAH   SFRSYM    DATA     BYTE      RLDL
      00000080H.0 SFRSYM    DATA     BIT       P00
      00000090H.0 SFRSYM    DATA     BIT       P10
      00000080H.1 SFRSYM    DATA     BIT       P01
      000000F7H   SFRSYM    DATA     BYTE      I2CMTP
      00000099H   SFRSYM    DATA     BYTE      SBUF
      00000087H   SFRSYM    DATA     BYTE      PCON
      000000A0H.0 SFRSYM    DATA     BIT       P20
      00000090H.1 SFRSYM    DATA     BIT       P11
      00000080H.2 SFRSYM    DATA     BIT       P02
      000000F5H   SFRSYM    DATA     BYTE      I2CMSR
      000000B0H.0 SFRSYM    DATA     BIT       P30
      000000A0H.1 SFRSYM    DATA     BIT       P21
      00000090H.2 SFRSYM    DATA     BIT       P12
      00000080H.3 SFRSYM    DATA     BIT       P03
      000000D4H   SFRSYM    DATA     BYTE      ADCMPL
      000000B0H.1 SFRSYM    DATA     BIT       P31
      000000A0H.2 SFRSYM    DATA     BIT       P22
      00000090H.3 SFRSYM    DATA     BIT       P13
      00000080H.4 SFRSYM    DATA     BIT       P04
      000000B0H.2 SFRSYM    DATA     BIT       P32
      000000A0H.3 SFRSYM    DATA     BIT       P23
      00000090H.4 SFRSYM    DATA     BIT       P14
      00000080H.5 SFRSYM    DATA     BIT       P05
      00000089H   SFRSYM    DATA     BYTE      TMOD
      00000088H   SFRSYM    DATA     BYTE      TCON
      000000B0H.3 SFRSYM    DATA     BIT       P33
      000000A0H.4 SFRSYM    DATA     BIT       P24
      00000090H.5 SFRSYM    DATA     BIT       P15
      00000080H.6 SFRSYM    DATA     BIT       P06
      000000B0H.4 SFRSYM    DATA     BIT       P34
      000000A0H.5 SFRSYM    DATA     BIT       P25
      00000090H.6 SFRSYM    DATA     BIT       P16
      00000080H.7 SFRSYM    DATA     BIT       P07
      000000B0H.5 SFRSYM    DATA     BIT       P35
      000000A0H.6 SFRSYM    DATA     BIT       P26
      00000090H.7 SFRSYM    DATA     BIT       P17
      000000F2H   SFRSYM    DATA     BYTE      I2CSSR
      000000B0H.6 SFRSYM    DATA     BIT       P36
      000000A0H.7 SFRSYM    DATA     BIT       P27
      000000ECH   SFRSYM    DATA     BYTE      SPCR
      000000DDH   SFRSYM    DATA     BYTE      ADRESH
      000000B0H.7 SFRSYM    DATA     BIT       P37
      000000EEH   SFRSYM    DATA     BYTE      SPDR
      000000EFH   SFRSYM    DATA     BYTE      SSCR
      000000D3H   SFRSYM    DATA     BYTE      ADDLYL
      000000DCH   SFRSYM    DATA     BYTE      ADRESL
      00000088H.1 SFRSYM    DATA     BIT       IE0
      000000A0H.2 SFRSYM    DATA     BIT       CSPin
      00000088H.3 SFRSYM    DATA     BIT       IE1
LX51 LINKER/LOCATER V4.66.97.0                                                        11/15/2024  17:07:44  PAGE 75


      0000008FH   SFRSYM    DATA     BYTE      CLKDIV
      000000F0H   SFRSYM    DATA     BYTE      B
      00000091H   SFRSYM    DATA     BYTE      FUNCCR
      0000009AH   SFRSYM    DATA     BYTE      P0TRIS
      000000A1H   SFRSYM    DATA     BYTE      P1TRIS
      000000A2H   SFRSYM    DATA     BYTE      P2TRIS
      000000E0H   SFRSYM    DATA     BYTE      ACC
      000000A3H   SFRSYM    DATA     BYTE      P3TRIS
      000000A8H.4 SFRSYM    DATA     BIT       ES0
      000000A8H.6 SFRSYM    DATA     BIT       ES1
      000000A8H.1 SFRSYM    DATA     BIT       ET0
      000000EDH   SFRSYM    DATA     BYTE      SPSR
      000000A8H.3 SFRSYM    DATA     BIT       ET1
      00000088H.5 SFRSYM    DATA     BIT       TF0
      000000A8H.5 SFRSYM    DATA     BIT       ET2
      00000098H.0 SFRSYM    DATA     BIT       RI0
      00000088H.7 SFRSYM    DATA     BIT       TF1
      0000008CH   SFRSYM    DATA     BYTE      TH0
      000000A8H.0 SFRSYM    DATA     BIT       EX0
      00000098H.1 SFRSYM    DATA     BIT       TI0
      00000088H.0 SFRSYM    DATA     BIT       IT0
      0000008DH   SFRSYM    DATA     BYTE      TH1
      000000A8H.2 SFRSYM    DATA     BIT       EX1
      00000088H.2 SFRSYM    DATA     BIT       IT1
      000000CDH   SFRSYM    DATA     BYTE      TH2
      000000D0H.0 SFRSYM    DATA     BIT       P
      000000DBH   SFRSYM    DATA     BYTE      TH3
      000000E3H   SFRSYM    DATA     BYTE      TH4
      0000008AH   SFRSYM    DATA     BYTE      TL0
      0000008BH   SFRSYM    DATA     BYTE      TL1
      00000098H.2 SFRSYM    DATA     BIT       U0RB8
      000000CCH   SFRSYM    DATA     BYTE      TL2
      000000B8H.4 SFRSYM    DATA     BIT       PS0
      000000DAH   SFRSYM    DATA     BYTE      TL3
      000000BFH   SFRSYM    DATA     BYTE      BUZCON
      000000B8H.6 SFRSYM    DATA     BIT       PS1
      000000B8H.1 SFRSYM    DATA     BIT       PT0
      00000098H.3 SFRSYM    DATA     BIT       U0TB8
      000000E2H   SFRSYM    DATA     BYTE      TL4
      000000D0H.3 SFRSYM    DATA     BIT       RS0
      000000B8H.3 SFRSYM    DATA     BIT       PT1
      000000D0H.4 SFRSYM    DATA     BIT       RS1
      000000B8H.5 SFRSYM    DATA     BIT       PT2
      00000098H.7 SFRSYM    DATA     BIT       U0SM0
      00000088H.4 SFRSYM    DATA     BIT       TR0
      000000BEH   SFRSYM    DATA     BYTE      BUZDIV
      00000098H.6 SFRSYM    DATA     BIT       U0SM1
      00000088H.6 SFRSYM    DATA     BIT       TR1
      000000B8H.0 SFRSYM    DATA     BIT       PX0
      00000098H.5 SFRSYM    DATA     BIT       U0SM2
      000000B8H.2 SFRSYM    DATA     BIT       PX1
      000000BDH   SFRSYM    DATA     BYTE      WUTCRH
      00000099H   SFRSYM    DATA     BYTE      SBUF0
      000000EBH   SFRSYM    DATA     BYTE      SBUF1
      000000BCH   SFRSYM    DATA     BYTE      WUTCRL
      00000098H   SFRSYM    DATA     BYTE      SCON0
      000000EAH   SFRSYM    DATA     BYTE      SCON1
      000000C8H   SFRSYM    DATA     BYTE      T2CON
      00000086H   SFRSYM    DATA     BYTE      DPS
      000000FEH   SFRSYM    DATA     BYTE      MDATA
      000000F6H   SFRSYM    DATA     BYTE      I2CMBUF
      000000F1H   SFRSYM    DATA     BYTE      I2CSADR
      00000098H.4 SFRSYM    DATA     BIT       U0REN
      000000C8H.5 SFRSYM    DATA     BIT       CAPES
      000000FDH   SFRSYM    DATA     BYTE      MADRH
LX51 LINKER/LOCATER V4.66.97.0                                                        11/15/2024  17:07:44  PAGE 76


      0000008EH   SFRSYM    DATA     BYTE      CKCON
      000000F3H   SFRSYM    DATA     BYTE      I2CSBUF
      000000FCH   SFRSYM    DATA     BYTE      MADRL
      000000D0H.5 SFRSYM    DATA     BIT       F0
      000000FBH   SFRSYM    DATA     BYTE      MLOCK
      000000D0H   SFRSYM    DATA     BYTE      PSW
      00000097H   SFRSYM    DATA     BYTE      WDCON
      0200001CH   SYMBOL    XDATA    INT       VshowTIM
      010013EFH   SYMBOL    CODE     ---       BatVshowFSM
      02000021H   SYMBOL    XDATA    ---       BattVolt
      0200002BH   SYMBOL    XDATA    CHAR      BattShowTimer
      02000030H   SYMBOL    XDATA    FLOAT     VbattSample

      01001A1AH   BLOCK     CODE     ---       LVL=0
      ---         BLOCKEND  ---      ---       LVL=0

      01003D1BH   BLOCK     CODE     ---       LVL=0
      01003D1BH   LINE      CODE     ---       #39
      01003D1BH   LINE      CODE     ---       #40
      01003D1BH   LINE      CODE     ---       #41
      01003D21H   LINE      CODE     ---       #42
      01003D23H   LINE      CODE     ---       #43
      ---         BLOCKEND  ---      ---       LVL=0

      010013EFH   BLOCK     CODE     ---       LVL=0
      010013EFH   BLOCK     CODE     NEAR LAB  LVL=1
      0000002DH   SYMBOL    DATA     INT       buf
      ---         BLOCKEND  ---      ---       LVL=1
      010013EFH   LINE      CODE     ---       #46
      010013EFH   LINE      CODE     ---       #47
      010013EFH   LINE      CODE     ---       #50
      01001425H   LINE      CODE     ---       #51
      01001425H   LINE      CODE     ---       #52
      01001425H   LINE      CODE     ---       #53
      01001425H   LINE      CODE     ---       #54
      01001428H   LINE      CODE     ---       #55
      0100142BH   LINE      CODE     ---       #56
      01001434H   LINE      CODE     ---       #57
      01001438H   LINE      CODE     ---       #59
      01001438H   LINE      CODE     ---       #60
      0100144FH   LINE      CODE     ---       #61
      0100145FH   LINE      CODE     ---       #62
      0100146FH   LINE      CODE     ---       #63
      01001472H   LINE      CODE     ---       #65
      01001480H   LINE      CODE     ---       #66
      0100148FH   LINE      CODE     ---       #67
      0100149EH   LINE      CODE     ---       #68
      010014A9H   LINE      CODE     ---       #69
      010014B6H   LINE      CODE     ---       #70
      010014BCH   LINE      CODE     ---       #71
      010014BDH   LINE      CODE     ---       #73
      010014BDH   LINE      CODE     ---       #74
      010014C9H   LINE      CODE     ---       #75
      010014C9H   LINE      CODE     ---       #76
      010014CBH   LINE      CODE     ---       #77
      010014CEH   LINE      CODE     ---       #78
      010014CEH   LINE      CODE     ---       #79
      010014CEH   LINE      CODE     ---       #80
      010014D5H   LINE      CODE     ---       #81
      010014DDH   LINE      CODE     ---       #82
      010014DDH   LINE      CODE     ---       #83
      010014DDH   LINE      CODE     ---       #84
      010014E3H   LINE      CODE     ---       #85
      010014E7H   LINE      CODE     ---       #86
      010014E7H   LINE      CODE     ---       #87
LX51 LINKER/LOCATER V4.66.97.0                                                        11/15/2024  17:07:44  PAGE 77


      010014E8H   LINE      CODE     ---       #89
      010014E8H   LINE      CODE     ---       #90
      010014F0H   LINE      CODE     ---       #91
      010014F6H   LINE      CODE     ---       #92
      010014F9H   LINE      CODE     ---       #93
      01001504H   LINE      CODE     ---       #94
      01001511H   LINE      CODE     ---       #95
      01001517H   LINE      CODE     ---       #96
      01001518H   LINE      CODE     ---       #98
      01001518H   LINE      CODE     ---       #99
      01001524H   LINE      CODE     ---       #100
      01001524H   LINE      CODE     ---       #101
      01001526H   LINE      CODE     ---       #102
      01001529H   LINE      CODE     ---       #103
      01001529H   LINE      CODE     ---       #104
      01001529H   LINE      CODE     ---       #105
      01001530H   LINE      CODE     ---       #106
      01001538H   LINE      CODE     ---       #107
      01001538H   LINE      CODE     ---       #108
      01001538H   LINE      CODE     ---       #109
      0100153EH   LINE      CODE     ---       #110
      01001542H   LINE      CODE     ---       #111
      01001542H   LINE      CODE     ---       #112
      01001543H   LINE      CODE     ---       #114
      01001543H   LINE      CODE     ---       #115
      0100154BH   LINE      CODE     ---       #116
      0100155FH   LINE      CODE     ---       #117
      01001565H   LINE      CODE     ---       #118
      01001568H   LINE      CODE     ---       #119
      01001573H   LINE      CODE     ---       #120
      01001580H   LINE      CODE     ---       #121
      01001586H   LINE      CODE     ---       #122
      01001587H   LINE      CODE     ---       #124
      01001587H   LINE      CODE     ---       #125
      01001593H   LINE      CODE     ---       #126
      01001593H   LINE      CODE     ---       #127
      01001598H   LINE      CODE     ---       #128
      0100159CH   LINE      CODE     ---       #129
      0100159CH   LINE      CODE     ---       #130
      0100159CH   LINE      CODE     ---       #131
      010015A3H   LINE      CODE     ---       #132
      010015A8H   LINE      CODE     ---       #133
      010015A8H   LINE      CODE     ---       #134
      010015A8H   LINE      CODE     ---       #135
      010015AEH   LINE      CODE     ---       #136
      010015B2H   LINE      CODE     ---       #137
      010015B2H   LINE      CODE     ---       #138
      010015B3H   LINE      CODE     ---       #140
      010015B3H   LINE      CODE     ---       #141
      010015B8H   LINE      CODE     ---       #142
      010015BEH   LINE      CODE     ---       #143
      010015C4H   LINE      CODE     ---       #144
      010015C5H   LINE      CODE     ---       #146
      010015C5H   LINE      CODE     ---       #147
      010015CFH   LINE      CODE     ---       #148
      010015D4H   LINE      CODE     ---       #149
      010015D4H   LINE      CODE     ---       #150
      010015D4H   LINE      CODE     ---       #151
      ---         BLOCKEND  ---      ---       LVL=0

      01002136H   BLOCK     CODE     ---       LVL=0
      01002136H   BLOCK     CODE     NEAR LAB  LVL=1
      00000023H   SYMBOL    DATA     INT       i
      00000025H   SYMBOL    DATA     ---       CSInitCfg
      ---         BLOCKEND  ---      ---       LVL=1
LX51 LINKER/LOCATER V4.66.97.0                                                        11/15/2024  17:07:44  PAGE 78


      01002136H   LINE      CODE     ---       #154
      01002136H   LINE      CODE     ---       #155
      01002136H   LINE      CODE     ---       #160
      01002139H   LINE      CODE     ---       #161
      0100213CH   LINE      CODE     ---       #162
      0100213FH   LINE      CODE     ---       #163
      01002147H   LINE      CODE     ---       #164
      0100214AH   LINE      CODE     ---       #165
      01002151H   LINE      CODE     ---       #166
      0100215DH   LINE      CODE     ---       #167
      0100215FH   LINE      CODE     ---       #168
      01002162H   LINE      CODE     ---       #169
      01002165H   LINE      CODE     ---       #174
      01002168H   LINE      CODE     ---       #175
      0100217BH   LINE      CODE     ---       #176
      0100218BH   LINE      CODE     ---       #177
      0100219DH   LINE      CODE     ---       #178
      010021A2H   LINE      CODE     ---       #180
      010021A4H   LINE      CODE     ---       #181
      010021A6H   LINE      CODE     ---       #183
      010021A6H   LINE      CODE     ---       #184
      010021A6H   LINE      CODE     ---       #185
      010021A6H   LINE      CODE     ---       #186
      010021B0H   LINE      CODE     ---       #187
      010021BEH   LINE      CODE     ---       #189
      010021C1H   LINE      CODE     ---       #190
      010021C6H   LINE      CODE     ---       #192
      010021CEH   LINE      CODE     ---       #193
      010021CEH   LINE      CODE     ---       #194
      010021EAH   LINE      CODE     ---       #195
      010021EAH   LINE      CODE     ---       #196
      010021EFH   LINE      CODE     ---       #197
      010021F6H   LINE      CODE     ---       #198
      01002200H   LINE      CODE     ---       #199
      01002207H   LINE      CODE     ---       #200
      0100220DH   LINE      CODE     ---       #201
      0100220DH   LINE      CODE     ---       #202
      ---         BLOCKEND  ---      ---       LVL=0

      01003771H   BLOCK     CODE     ---       LVL=0
      01003771H   BLOCK     CODE     NEAR LAB  LVL=1
      00000006H   SYMBOL    DATA     CHAR      buf
      ---         BLOCKEND  ---      ---       LVL=1
      01003771H   LINE      CODE     ---       #204
      01003771H   LINE      CODE     ---       #205
      01003771H   LINE      CODE     ---       #208
      01003782H   LINE      CODE     ---       #210
      0100378AH   LINE      CODE     ---       #211
      0100378AH   LINE      CODE     ---       #212
      0100378DH   LINE      CODE     ---       #213
      01003791H   LINE      CODE     ---       #214
      010037A2H   LINE      CODE     ---       #215
      010037A2H   LINE      CODE     ---       #216
      010037A3H   LINE      CODE     ---       #217
      010037A6H   LINE      CODE     ---       #218
      010037A7H   LINE      CODE     ---       #221
      010037ACH   LINE      CODE     ---       #222
      ---         BLOCKEND  ---      ---       LVL=0

      01000F49H   BLOCK     CODE     ---       LVL=0
      01000F49H   BLOCK     CODE     NEAR LAB  LVL=1
      00000025H   SYMBOL    DATA     FLOAT     AlertThr
      00000029H   SYMBOL    DATA     LONG      buf
      ---         BLOCKEND  ---      ---       LVL=1
      01000F49H   LINE      CODE     ---       #225
LX51 LINKER/LOCATER V4.66.97.0                                                        11/15/2024  17:07:44  PAGE 79


      01000F49H   LINE      CODE     ---       #226
      01000F49H   LINE      CODE     ---       #230
      01000F5AH   LINE      CODE     ---       #231
      01000F5AH   LINE      CODE     ---       #232
      01000F77H   LINE      CODE     ---       #233
      01000F85H   LINE      CODE     ---       #234
      01000F9DH   LINE      CODE     ---       #235
      01000FB0H   LINE      CODE     ---       #236
      01000FC9H   LINE      CODE     ---       #237
      01000FCBH   LINE      CODE     ---       #239
      01000FCBH   LINE      CODE     ---       #240
      0100100BH   LINE      CODE     ---       #241
      0100102FH   LINE      CODE     ---       #242
      01001040H   LINE      CODE     ---       #243
      01001040H   LINE      CODE     ---       #244
      01001040H   LINE      CODE     ---       #245
      01001040H   LINE      CODE     ---       #246
      0100104AH   LINE      CODE     ---       #247
      0100104AH   LINE      CODE     ---       #249
      01001057H   LINE      CODE     ---       #250
      01001057H   LINE      CODE     ---       #251
      01001059H   LINE      CODE     ---       #252
      0100105BH   LINE      CODE     ---       #253
      0100105DH   LINE      CODE     ---       #255
      0100105DH   LINE      CODE     ---       #256
      0100106AH   LINE      CODE     ---       #257
      01001085H   LINE      CODE     ---       #258
      010010A9H   LINE      CODE     ---       #259
      010010BEH   LINE      CODE     ---       #260
      010010D1H   LINE      CODE     ---       #261
      010010D6H   LINE      CODE     ---       #262
      010010D6H   LINE      CODE     ---       #264
      010010EAH   LINE      CODE     ---       #265
      010010EAH   LINE      CODE     ---       #267
      010010EAH   LINE      CODE     ---       #268
      010010FAH   LINE      CODE     ---       #269
      010010FCH   LINE      CODE     ---       #271
      010010FCH   LINE      CODE     ---       #272
      0100110EH   LINE      CODE     ---       #273
      0100111CH   LINE      CODE     ---       #274
      01001126H   LINE      CODE     ---       #275
      01001128H   LINE      CODE     ---       #277
      01001128H   LINE      CODE     ---       #278
      0100113AH   LINE      CODE     ---       #279
      01001146H   LINE      CODE     ---       #280
      01001157H   LINE      CODE     ---       #281
      01001159H   LINE      CODE     ---       #283
      01001159H   LINE      CODE     ---       #284
      01001165H   LINE      CODE     ---       #285
      01001171H   LINE      CODE     ---       #286
      01001171H   LINE      CODE     ---       #287
      01001171H   LINE      CODE     ---       #289
      01001186H   LINE      CODE     ---       #290
      0100118FH   LINE      CODE     ---       #291
      010011ADH   LINE      CODE     ---       #292
      010011ADH   LINE      CODE     ---       #293
      010011B1H   LINE      CODE     ---       #294
      010011B5H   LINE      CODE     ---       #295
      010011B9H   LINE      CODE     ---       #296
      010011BDH   LINE      CODE     ---       #297
      010011BDH   LINE      CODE     ---       #298
      010011C6H   LINE      CODE     ---       #299
      010011C9H   LINE      CODE     ---       #300
      ---         BLOCKEND  ---      ---       LVL=0

LX51 LINKER/LOCATER V4.66.97.0                                                        11/15/2024  17:07:44  PAGE 80


      ---         MODULE    ---      ---       TEMPCONTROL
      00000022H.3 PUBLIC    BIT      BIT       IsForceLeaveTurbo
      00000022H.2 PUBLIC    BIT      BIT       IsTempLIMActive
      00000022H.1 PUBLIC    BIT      BIT       IsDisableTurbo
      010015E0H   PUBLIC    CODE     ---       ThermalCalcProcess
      01001B37H   PUBLIC    CODE     ---       _ThermalILIMCalc
      01003B51H   PUBLIC    CODE     ---       CheckNTCStatus
      000000C8H.0 SFRSYM    DATA     BIT       T2I0
      000000C3H   SFRSYM    DATA     BYTE      CCH1
      00000080H   SFRSYM    DATA     BYTE      P0
      000000C8H.1 SFRSYM    DATA     BIT       T2I1
      000000C5H   SFRSYM    DATA     BYTE      CCH2
      00000090H   SFRSYM    DATA     BYTE      P1
      000000C7H   SFRSYM    DATA     BYTE      CCH3
      000000ACH   SFRSYM    DATA     BYTE      P0EXTIE
      000000A0H   SFRSYM    DATA     BYTE      P2
      000000B4H   SFRSYM    DATA     BYTE      P0EXTIF
      000000B0H   SFRSYM    DATA     BYTE      P3
      000000ADH   SFRSYM    DATA     BYTE      P1EXTIE
      000000D0H.6 SFRSYM    DATA     BIT       AC
      000000FFH   SFRSYM    DATA     BYTE      MCTRL
      000000C2H   SFRSYM    DATA     BYTE      CCL1
      000000B5H   SFRSYM    DATA     BYTE      P1EXTIF
      000000AEH   SFRSYM    DATA     BYTE      P2EXTIE
      000000C4H   SFRSYM    DATA     BYTE      CCL2
      000000B6H   SFRSYM    DATA     BYTE      P2EXTIF
      000000AFH   SFRSYM    DATA     BYTE      P3EXTIE
      000000A8H.7 SFRSYM    DATA     BIT       EA
      000000C6H   SFRSYM    DATA     BYTE      CCL3
      000000B7H   SFRSYM    DATA     BYTE      P3EXTIF
      000000AAH   SFRSYM    DATA     BYTE      EIE2
      000000B2H   SFRSYM    DATA     BYTE      EIF2
      000000C8H.3 SFRSYM    DATA     BIT       T2R0
      000000C8H.4 SFRSYM    DATA     BIT       T2R1
      00000083H   SFRSYM    DATA     BYTE      DPH0
      000000A8H   SFRSYM    DATA     BYTE      IE
      00000085H   SFRSYM    DATA     BYTE      DPH1
      000000B9H   SFRSYM    DATA     BYTE      EIP1
      000000BAH   SFRSYM    DATA     BYTE      EIP2
      00000082H   SFRSYM    DATA     BYTE      DPL0
      00000084H   SFRSYM    DATA     BYTE      DPL1
      000000C8H.6 SFRSYM    DATA     BIT       I3FR
      000000CFH   SFRSYM    DATA     BYTE      T2IE
      00000096H   SFRSYM    DATA     BYTE      TA
      000000C9H   SFRSYM    DATA     BYTE      T2IF
      000000C8H.2 SFRSYM    DATA     BIT       T2CM
      000000DFH   SFRSYM    DATA     BYTE      ADCON0
      000000DEH   SFRSYM    DATA     BYTE      ADCON1
      000000E9H   SFRSYM    DATA     BYTE      ADCON2
      000000B8H   SFRSYM    DATA     BYTE      IP
      000000CEH   SFRSYM    DATA     BYTE      CCEN
      000000D0H.7 SFRSYM    DATA     BIT       CY
      000000D2H   SFRSYM    DATA     BYTE      T34MOD
      00000093H   SFRSYM    DATA     BYTE      DPX0
      00000095H   SFRSYM    DATA     BYTE      DPX1
      000000F4H   SFRSYM    DATA     BYTE      I2CMSA
      000000F5H   SFRSYM    DATA     BYTE      I2CMCR
      00000081H   SFRSYM    DATA     BYTE      SP
      000000D0H.2 SFRSYM    DATA     BIT       OV
      000000F2H   SFRSYM    DATA     BYTE      I2CSCR
      000000C8H.7 SFRSYM    DATA     BIT       T2PS
      000000D1H   SFRSYM    DATA     BYTE      ADCMPC
      000000CBH   SFRSYM    DATA     BYTE      RLDH
      000000D5H   SFRSYM    DATA     BYTE      ADCMPH
      000000CAH   SFRSYM    DATA     BYTE      RLDL
LX51 LINKER/LOCATER V4.66.97.0                                                        11/15/2024  17:07:44  PAGE 81


      00000080H.0 SFRSYM    DATA     BIT       P00
      00000090H.0 SFRSYM    DATA     BIT       P10
      00000080H.1 SFRSYM    DATA     BIT       P01
      000000F7H   SFRSYM    DATA     BYTE      I2CMTP
      00000099H   SFRSYM    DATA     BYTE      SBUF
      00000087H   SFRSYM    DATA     BYTE      PCON
      000000A0H.0 SFRSYM    DATA     BIT       P20
      00000090H.1 SFRSYM    DATA     BIT       P11
      00000080H.2 SFRSYM    DATA     BIT       P02
      000000F5H   SFRSYM    DATA     BYTE      I2CMSR
      000000B0H.0 SFRSYM    DATA     BIT       P30
      000000A0H.1 SFRSYM    DATA     BIT       P21
      00000090H.2 SFRSYM    DATA     BIT       P12
      00000080H.3 SFRSYM    DATA     BIT       P03
      000000D4H   SFRSYM    DATA     BYTE      ADCMPL
      000000B0H.1 SFRSYM    DATA     BIT       P31
      000000A0H.2 SFRSYM    DATA     BIT       P22
      00000090H.3 SFRSYM    DATA     BIT       P13
      00000080H.4 SFRSYM    DATA     BIT       P04
      000000B0H.2 SFRSYM    DATA     BIT       P32
      000000A0H.3 SFRSYM    DATA     BIT       P23
      00000090H.4 SFRSYM    DATA     BIT       P14
      00000080H.5 SFRSYM    DATA     BIT       P05
      00000089H   SFRSYM    DATA     BYTE      TMOD
      00000088H   SFRSYM    DATA     BYTE      TCON
      000000B0H.3 SFRSYM    DATA     BIT       P33
      000000A0H.4 SFRSYM    DATA     BIT       P24
      00000090H.5 SFRSYM    DATA     BIT       P15
      00000080H.6 SFRSYM    DATA     BIT       P06
      000000B0H.4 SFRSYM    DATA     BIT       P34
      000000A0H.5 SFRSYM    DATA     BIT       P25
      00000090H.6 SFRSYM    DATA     BIT       P16
      00000080H.7 SFRSYM    DATA     BIT       P07
      000000B0H.5 SFRSYM    DATA     BIT       P35
      000000A0H.6 SFRSYM    DATA     BIT       P26
      00000090H.7 SFRSYM    DATA     BIT       P17
      000000F2H   SFRSYM    DATA     BYTE      I2CSSR
      000000B0H.6 SFRSYM    DATA     BIT       P36
      000000A0H.7 SFRSYM    DATA     BIT       P27
      000000ECH   SFRSYM    DATA     BYTE      SPCR
      000000DDH   SFRSYM    DATA     BYTE      ADRESH
      000000B0H.7 SFRSYM    DATA     BIT       P37
      000000EEH   SFRSYM    DATA     BYTE      SPDR
      000000EFH   SFRSYM    DATA     BYTE      SSCR
      000000D3H   SFRSYM    DATA     BYTE      ADDLYL
      000000DCH   SFRSYM    DATA     BYTE      ADRESL
      00000088H.1 SFRSYM    DATA     BIT       IE0
      00000088H.3 SFRSYM    DATA     BIT       IE1
      0000008FH   SFRSYM    DATA     BYTE      CLKDIV
      000000F0H   SFRSYM    DATA     BYTE      B
      00000091H   SFRSYM    DATA     BYTE      FUNCCR
      0000009AH   SFRSYM    DATA     BYTE      P0TRIS
      000000A1H   SFRSYM    DATA     BYTE      P1TRIS
      000000A2H   SFRSYM    DATA     BYTE      P2TRIS
      000000E0H   SFRSYM    DATA     BYTE      ACC
      000000A3H   SFRSYM    DATA     BYTE      P3TRIS
      000000A8H.4 SFRSYM    DATA     BIT       ES0
      000000A8H.6 SFRSYM    DATA     BIT       ES1
      000000A8H.1 SFRSYM    DATA     BIT       ET0
      000000EDH   SFRSYM    DATA     BYTE      SPSR
      000000A8H.3 SFRSYM    DATA     BIT       ET1
      00000088H.5 SFRSYM    DATA     BIT       TF0
      000000A8H.5 SFRSYM    DATA     BIT       ET2
      00000098H.0 SFRSYM    DATA     BIT       RI0
      00000088H.7 SFRSYM    DATA     BIT       TF1
LX51 LINKER/LOCATER V4.66.97.0                                                        11/15/2024  17:07:44  PAGE 82


      0000008CH   SFRSYM    DATA     BYTE      TH0
      000000A8H.0 SFRSYM    DATA     BIT       EX0
      00000098H.1 SFRSYM    DATA     BIT       TI0
      00000088H.0 SFRSYM    DATA     BIT       IT0
      0000008DH   SFRSYM    DATA     BYTE      TH1
      000000A8H.2 SFRSYM    DATA     BIT       EX1
      00000088H.2 SFRSYM    DATA     BIT       IT1
      000000CDH   SFRSYM    DATA     BYTE      TH2
      000000D0H.0 SFRSYM    DATA     BIT       P
      000000DBH   SFRSYM    DATA     BYTE      TH3
      000000E3H   SFRSYM    DATA     BYTE      TH4
      0000008AH   SFRSYM    DATA     BYTE      TL0
      0000008BH   SFRSYM    DATA     BYTE      TL1
      00000098H.2 SFRSYM    DATA     BIT       U0RB8
      000000CCH   SFRSYM    DATA     BYTE      TL2
      000000B8H.4 SFRSYM    DATA     BIT       PS0
      000000DAH   SFRSYM    DATA     BYTE      TL3
      000000BFH   SFRSYM    DATA     BYTE      BUZCON
      000000B8H.6 SFRSYM    DATA     BIT       PS1
      000000B8H.1 SFRSYM    DATA     BIT       PT0
      00000098H.3 SFRSYM    DATA     BIT       U0TB8
      000000E2H   SFRSYM    DATA     BYTE      TL4
      000000D0H.3 SFRSYM    DATA     BIT       RS0
      000000B8H.3 SFRSYM    DATA     BIT       PT1
      000000D0H.4 SFRSYM    DATA     BIT       RS1
      000000B8H.5 SFRSYM    DATA     BIT       PT2
      00000098H.7 SFRSYM    DATA     BIT       U0SM0
      00000088H.4 SFRSYM    DATA     BIT       TR0
      000000BEH   SFRSYM    DATA     BYTE      BUZDIV
      00000098H.6 SFRSYM    DATA     BIT       U0SM1
      00000088H.6 SFRSYM    DATA     BIT       TR1
      000000B8H.0 SFRSYM    DATA     BIT       PX0
      00000098H.5 SFRSYM    DATA     BIT       U0SM2
      000000B8H.2 SFRSYM    DATA     BIT       PX1
      000000BDH   SFRSYM    DATA     BYTE      WUTCRH
      00000099H   SFRSYM    DATA     BYTE      SBUF0
      000000EBH   SFRSYM    DATA     BYTE      SBUF1
      000000BCH   SFRSYM    DATA     BYTE      WUTCRL
      00000098H   SFRSYM    DATA     BYTE      SCON0
      000000EAH   SFRSYM    DATA     BYTE      SCON1
      000000C8H   SFRSYM    DATA     BYTE      T2CON
      00000086H   SFRSYM    DATA     BYTE      DPS
      000000FEH   SFRSYM    DATA     BYTE      MDATA
      000000F6H   SFRSYM    DATA     BYTE      I2CMBUF
      000000F1H   SFRSYM    DATA     BYTE      I2CSADR
      00000098H.4 SFRSYM    DATA     BIT       U0REN
      000000C8H.5 SFRSYM    DATA     BIT       CAPES
      000000FDH   SFRSYM    DATA     BYTE      MADRH
      0000008EH   SFRSYM    DATA     BYTE      CKCON
      000000F3H   SFRSYM    DATA     BYTE      I2CSBUF
      000000FCH   SFRSYM    DATA     BYTE      MADRL
      000000D0H.5 SFRSYM    DATA     BIT       F0
      000000FBH   SFRSYM    DATA     BYTE      MLOCK
      000000D0H   SFRSYM    DATA     BYTE      PSW
      00000097H   SFRSYM    DATA     BYTE      WDCON
      0000001BH   SYMBOL    DATA     INT       TempIntegral
      0000001DH   SYMBOL    DATA     INT       TempProtBuf

      010039CAH   BLOCK     CODE     ---       LVL=0
      ---         BLOCKEND  ---      ---       LVL=0

      01003B51H   BLOCK     CODE     ---       LVL=0
      01003B51H   BLOCK     CODE     NEAR LAB  LVL=1
      00000023H   SYMBOL    DATA     CHAR      i
      ---         BLOCKEND  ---      ---       LVL=1
LX51 LINKER/LOCATER V4.66.97.0                                                        11/15/2024  17:07:44  PAGE 83


      01003B51H   LINE      CODE     ---       #28
      01003B51H   LINE      CODE     ---       #29
      01003B51H   LINE      CODE     ---       #30
      01003B54H   LINE      CODE     ---       #33
      01003B54H   LINE      CODE     ---       #34
      01003B5BH   LINE      CODE     ---       #35
      01003B5EH   LINE      CODE     ---       #36
      01003B62H   LINE      CODE     ---       #37
      01003B65H   LINE      CODE     ---       #38
      01003B65H   LINE      CODE     ---       #39
      01003B65H   LINE      CODE     ---       #40
      01003B69H   LINE      CODE     ---       #41
      01003B69H   LINE      CODE     ---       #42
      01003B6CH   LINE      CODE     ---       #43
      01003B6FH   LINE      CODE     ---       #44
      01003B71H   LINE      CODE     ---       #45
      01003B71H   LINE      CODE     ---       #46
      ---         BLOCKEND  ---      ---       LVL=0

      01001B37H   BLOCK     CODE     ---       LVL=0
      00000026H   SYMBOL    DATA     INT       Input
      01001B3BH   BLOCK     CODE     NEAR LAB  LVL=1
      00000028H   SYMBOL    DATA     FLOAT     buf
      0000002CH   SYMBOL    DATA     FLOAT     ILED
      00000030H   SYMBOL    DATA     FLOAT     itgbuf
      ---         BLOCKEND  ---      ---       LVL=1
      01001B37H   LINE      CODE     ---       #49
      01001B3BH   LINE      CODE     ---       #50
      01001B3BH   LINE      CODE     ---       #53
      01001B50H   LINE      CODE     ---       #55
      01001B66H   LINE      CODE     ---       #56
      01001B73H   LINE      CODE     ---       #58
      01001B8EH   LINE      CODE     ---       #59
      01001BB9H   LINE      CODE     ---       #60
      01001BCFH   LINE      CODE     ---       #61
      01001BEBH   LINE      CODE     ---       #63
      01001BFDH   LINE      CODE     ---       #64
      01001C0AH   LINE      CODE     ---       #65
      01001C17H   LINE      CODE     ---       #66
      01001C42H   LINE      CODE     ---       #67
      01001C47H   LINE      CODE     ---       #68
      01001C4AH   LINE      CODE     ---       #69
      ---         BLOCKEND  ---      ---       LVL=0

      010015E0H   BLOCK     CODE     ---       LVL=0
      010015E0H   BLOCK     CODE     NEAR LAB  LVL=1
      00000002H   SYMBOL    DATA     INT       Err
      ---         BLOCKEND  ---      ---       LVL=1
      010015E0H   LINE      CODE     ---       #72
      010015E0H   LINE      CODE     ---       #73
      010015E0H   LINE      CODE     ---       #76
      010015E4H   LINE      CODE     ---       #77
      010015E4H   LINE      CODE     ---       #78
      010015E8H   LINE      CODE     ---       #80
      010015E8H   LINE      CODE     ---       #82
      010015F8H   LINE      CODE     ---       #83
      01001607H   LINE      CODE     ---       #84
      01001614H   LINE      CODE     ---       #85
      0100161CH   LINE      CODE     ---       #87
      01001627H   LINE      CODE     ---       #88
      01001627H   LINE      CODE     ---       #89
      0100162CH   LINE      CODE     ---       #91
      0100162CH   LINE      CODE     ---       #92
      01001642H   LINE      CODE     ---       #93
      01001642H   LINE      CODE     ---       #94
LX51 LINKER/LOCATER V4.66.97.0                                                        11/15/2024  17:07:44  PAGE 84


      01001643H   LINE      CODE     ---       #95
      01001647H   LINE      CODE     ---       #96
      01001647H   LINE      CODE     ---       #98
      01001659H   LINE      CODE     ---       #99
      0100166BH   LINE      CODE     ---       #100
      01001678H   LINE      CODE     ---       #102
      0100167BH   LINE      CODE     ---       #103
      0100167BH   LINE      CODE     ---       #104
      01001680H   LINE      CODE     ---       #105
      01001684H   LINE      CODE     ---       #106
      01001685H   LINE      CODE     ---       #108
      01001699H   LINE      CODE     ---       #109
      01001699H   LINE      CODE     ---       #111
      010016A6H   LINE      CODE     ---       #113
      01001723H   LINE      CODE     ---       #114
      01001736H   LINE      CODE     ---       #115
      01001744H   LINE      CODE     ---       #117
      0100174EH   LINE      CODE     ---       #118
      01001761H   LINE      CODE     ---       #119
      01001774H   LINE      CODE     ---       #120
      01001774H   LINE      CODE     ---       #121
      ---         BLOCKEND  ---      ---       LVL=0

      ---         MODULE    ---      ---       SLEEP
      00000022H.7 PUBLIC    BIT      BIT       IsWakupFromSleep
      01002D0FH   PUBLIC    CODE     ---       SleepMgmt
      00000020H.7 PUBLIC    BIT      BIT       ?SystemPeripheralCTRL?BIT
      01003972H   PUBLIC    CODE     ---       SystemPeripheralCTRL
      000000C8H.0 SFRSYM    DATA     BIT       T2I0
      000000C3H   SFRSYM    DATA     BYTE      CCH1
      00000080H   SFRSYM    DATA     BYTE      P0
      000000C8H.1 SFRSYM    DATA     BIT       T2I1
      000000C5H   SFRSYM    DATA     BYTE      CCH2
      00000090H   SFRSYM    DATA     BYTE      P1
      000000C7H   SFRSYM    DATA     BYTE      CCH3
      000000ACH   SFRSYM    DATA     BYTE      P0EXTIE
      000000A0H   SFRSYM    DATA     BYTE      P2
      000000B4H   SFRSYM    DATA     BYTE      P0EXTIF
      000000B0H   SFRSYM    DATA     BYTE      P3
      000000ADH   SFRSYM    DATA     BYTE      P1EXTIE
      000000D0H.6 SFRSYM    DATA     BIT       AC
      000000FFH   SFRSYM    DATA     BYTE      MCTRL
      000000C2H   SFRSYM    DATA     BYTE      CCL1
      000000B5H   SFRSYM    DATA     BYTE      P1EXTIF
      000000AEH   SFRSYM    DATA     BYTE      P2EXTIE
      000000C4H   SFRSYM    DATA     BYTE      CCL2
      000000B6H   SFRSYM    DATA     BYTE      P2EXTIF
      000000AFH   SFRSYM    DATA     BYTE      P3EXTIE
      000000A8H.7 SFRSYM    DATA     BIT       EA
      000000C6H   SFRSYM    DATA     BYTE      CCL3
      000000B7H   SFRSYM    DATA     BYTE      P3EXTIF
      000000AAH   SFRSYM    DATA     BYTE      EIE2
      000000B2H   SFRSYM    DATA     BYTE      EIF2
      000000C8H.3 SFRSYM    DATA     BIT       T2R0
      000000C8H.4 SFRSYM    DATA     BIT       T2R1
      00000083H   SFRSYM    DATA     BYTE      DPH0
      000000A8H   SFRSYM    DATA     BYTE      IE
      00000085H   SFRSYM    DATA     BYTE      DPH1
      000000B9H   SFRSYM    DATA     BYTE      EIP1
      000000BAH   SFRSYM    DATA     BYTE      EIP2
      00000082H   SFRSYM    DATA     BYTE      DPL0
      00000084H   SFRSYM    DATA     BYTE      DPL1
      000000C8H.6 SFRSYM    DATA     BIT       I3FR
      000000CFH   SFRSYM    DATA     BYTE      T2IE
      00000096H   SFRSYM    DATA     BYTE      TA
LX51 LINKER/LOCATER V4.66.97.0                                                        11/15/2024  17:07:44  PAGE 85


      000000C9H   SFRSYM    DATA     BYTE      T2IF
      000000C8H.2 SFRSYM    DATA     BIT       T2CM
      000000DFH   SFRSYM    DATA     BYTE      ADCON0
      000000DEH   SFRSYM    DATA     BYTE      ADCON1
      000000E9H   SFRSYM    DATA     BYTE      ADCON2
      000000B8H   SFRSYM    DATA     BYTE      IP
      000000CEH   SFRSYM    DATA     BYTE      CCEN
      000000D0H.7 SFRSYM    DATA     BIT       CY
      000000D2H   SFRSYM    DATA     BYTE      T34MOD
      00000093H   SFRSYM    DATA     BYTE      DPX0
      00000095H   SFRSYM    DATA     BYTE      DPX1
      000000F4H   SFRSYM    DATA     BYTE      I2CMSA
      000000F5H   SFRSYM    DATA     BYTE      I2CMCR
      00000081H   SFRSYM    DATA     BYTE      SP
      000000D0H.2 SFRSYM    DATA     BIT       OV
      000000F2H   SFRSYM    DATA     BYTE      I2CSCR
      000000C8H.7 SFRSYM    DATA     BIT       T2PS
      000000D1H   SFRSYM    DATA     BYTE      ADCMPC
      000000CBH   SFRSYM    DATA     BYTE      RLDH
      000000D5H   SFRSYM    DATA     BYTE      ADCMPH
      000000CAH   SFRSYM    DATA     BYTE      RLDL
      00000080H.0 SFRSYM    DATA     BIT       P00
      00000090H.0 SFRSYM    DATA     BIT       P10
      00000080H.1 SFRSYM    DATA     BIT       P01
      000000F7H   SFRSYM    DATA     BYTE      I2CMTP
      00000099H   SFRSYM    DATA     BYTE      SBUF
      00000087H   SFRSYM    DATA     BYTE      PCON
      000000A0H.0 SFRSYM    DATA     BIT       P20
      00000090H.1 SFRSYM    DATA     BIT       P11
      00000080H.2 SFRSYM    DATA     BIT       P02
      000000F5H   SFRSYM    DATA     BYTE      I2CMSR
      000000B0H.0 SFRSYM    DATA     BIT       P30
      000000A0H.1 SFRSYM    DATA     BIT       P21
      00000090H.2 SFRSYM    DATA     BIT       P12
      00000080H.3 SFRSYM    DATA     BIT       P03
      000000D4H   SFRSYM    DATA     BYTE      ADCMPL
      000000B0H.1 SFRSYM    DATA     BIT       P31
      000000A0H.2 SFRSYM    DATA     BIT       P22
      00000090H.3 SFRSYM    DATA     BIT       P13
      00000080H.4 SFRSYM    DATA     BIT       P04
      000000B0H.2 SFRSYM    DATA     BIT       P32
      000000A0H.3 SFRSYM    DATA     BIT       P23
      00000090H.4 SFRSYM    DATA     BIT       P14
      00000080H.5 SFRSYM    DATA     BIT       P05
      00000089H   SFRSYM    DATA     BYTE      TMOD
      00000088H   SFRSYM    DATA     BYTE      TCON
      000000B0H.3 SFRSYM    DATA     BIT       P33
      000000A0H.4 SFRSYM    DATA     BIT       P24
      00000090H.5 SFRSYM    DATA     BIT       P15
      00000080H.6 SFRSYM    DATA     BIT       P06
      000000B0H.4 SFRSYM    DATA     BIT       P34
      000000A0H.5 SFRSYM    DATA     BIT       P25
      00000090H.6 SFRSYM    DATA     BIT       P16
      00000080H.7 SFRSYM    DATA     BIT       P07
      000000B0H.5 SFRSYM    DATA     BIT       P35
      000000A0H.6 SFRSYM    DATA     BIT       P26
      00000090H.7 SFRSYM    DATA     BIT       P17
      000000F2H   SFRSYM    DATA     BYTE      I2CSSR
      000000B0H.6 SFRSYM    DATA     BIT       P36
      000000A0H.7 SFRSYM    DATA     BIT       P27
      000000ECH   SFRSYM    DATA     BYTE      SPCR
      000000DDH   SFRSYM    DATA     BYTE      ADRESH
      000000B0H.7 SFRSYM    DATA     BIT       P37
      000000EEH   SFRSYM    DATA     BYTE      SPDR
      000000EFH   SFRSYM    DATA     BYTE      SSCR
LX51 LINKER/LOCATER V4.66.97.0                                                        11/15/2024  17:07:44  PAGE 86


      000000D3H   SFRSYM    DATA     BYTE      ADDLYL
      000000DCH   SFRSYM    DATA     BYTE      ADRESL
      00000088H.1 SFRSYM    DATA     BIT       IE0
      00000088H.3 SFRSYM    DATA     BIT       IE1
      0000008FH   SFRSYM    DATA     BYTE      CLKDIV
      000000F0H   SFRSYM    DATA     BYTE      B
      00000091H   SFRSYM    DATA     BYTE      FUNCCR
      0000009AH   SFRSYM    DATA     BYTE      P0TRIS
      000000A1H   SFRSYM    DATA     BYTE      P1TRIS
      000000A2H   SFRSYM    DATA     BYTE      P2TRIS
      000000E0H   SFRSYM    DATA     BYTE      ACC
      000000A3H   SFRSYM    DATA     BYTE      P3TRIS
      000000A8H.4 SFRSYM    DATA     BIT       ES0
      000000A8H.6 SFRSYM    DATA     BIT       ES1
      000000A8H.1 SFRSYM    DATA     BIT       ET0
      000000EDH   SFRSYM    DATA     BYTE      SPSR
      000000A8H.3 SFRSYM    DATA     BIT       ET1
      00000088H.5 SFRSYM    DATA     BIT       TF0
      000000A8H.5 SFRSYM    DATA     BIT       ET2
      00000098H.0 SFRSYM    DATA     BIT       RI0
      00000088H.7 SFRSYM    DATA     BIT       TF1
      0000008CH   SFRSYM    DATA     BYTE      TH0
      000000A8H.0 SFRSYM    DATA     BIT       EX0
      00000098H.1 SFRSYM    DATA     BIT       TI0
      00000088H.0 SFRSYM    DATA     BIT       IT0
      0000008DH   SFRSYM    DATA     BYTE      TH1
      000000A8H.2 SFRSYM    DATA     BIT       EX1
      00000088H.2 SFRSYM    DATA     BIT       IT1
      000000CDH   SFRSYM    DATA     BYTE      TH2
      000000D0H.0 SFRSYM    DATA     BIT       P
      000000DBH   SFRSYM    DATA     BYTE      TH3
      000000E3H   SFRSYM    DATA     BYTE      TH4
      0000008AH   SFRSYM    DATA     BYTE      TL0
      0000008BH   SFRSYM    DATA     BYTE      TL1
      00000098H.2 SFRSYM    DATA     BIT       U0RB8
      000000CCH   SFRSYM    DATA     BYTE      TL2
      000000B8H.4 SFRSYM    DATA     BIT       PS0
      000000DAH   SFRSYM    DATA     BYTE      TL3
      000000BFH   SFRSYM    DATA     BYTE      BUZCON
      000000B8H.6 SFRSYM    DATA     BIT       PS1
      000000B8H.1 SFRSYM    DATA     BIT       PT0
      00000098H.3 SFRSYM    DATA     BIT       U0TB8
      000000E2H   SFRSYM    DATA     BYTE      TL4
      000000D0H.3 SFRSYM    DATA     BIT       RS0
      000000B8H.3 SFRSYM    DATA     BIT       PT1
      000000D0H.4 SFRSYM    DATA     BIT       RS1
      000000B8H.5 SFRSYM    DATA     BIT       PT2
      00000098H.7 SFRSYM    DATA     BIT       U0SM0
      00000088H.4 SFRSYM    DATA     BIT       TR0
      000000BEH   SFRSYM    DATA     BYTE      BUZDIV
      00000098H.6 SFRSYM    DATA     BIT       U0SM1
      00000088H.6 SFRSYM    DATA     BIT       TR1
      000000B8H.0 SFRSYM    DATA     BIT       PX0
      00000098H.5 SFRSYM    DATA     BIT       U0SM2
      000000B8H.2 SFRSYM    DATA     BIT       PX1
      000000BDH   SFRSYM    DATA     BYTE      WUTCRH
      00000099H   SFRSYM    DATA     BYTE      SBUF0
      000000EBH   SFRSYM    DATA     BYTE      SBUF1
      000000BCH   SFRSYM    DATA     BYTE      WUTCRL
      00000098H   SFRSYM    DATA     BYTE      SCON0
      000000EAH   SFRSYM    DATA     BYTE      SCON1
      000000C8H   SFRSYM    DATA     BYTE      T2CON
      00000086H   SFRSYM    DATA     BYTE      DPS
      000000FEH   SFRSYM    DATA     BYTE      MDATA
      000000F6H   SFRSYM    DATA     BYTE      I2CMBUF
LX51 LINKER/LOCATER V4.66.97.0                                                        11/15/2024  17:07:44  PAGE 87


      000000F1H   SFRSYM    DATA     BYTE      I2CSADR
      00000098H.4 SFRSYM    DATA     BIT       U0REN
      000000C8H.5 SFRSYM    DATA     BIT       CAPES
      000000FDH   SFRSYM    DATA     BYTE      MADRH
      0000008EH   SFRSYM    DATA     BYTE      CKCON
      000000F3H   SFRSYM    DATA     BYTE      I2CSBUF
      000000FCH   SFRSYM    DATA     BYTE      MADRL
      000000D0H.5 SFRSYM    DATA     BIT       F0
      000000FBH   SFRSYM    DATA     BYTE      MLOCK
      000000D0H   SFRSYM    DATA     BYTE      PSW
      00000097H   SFRSYM    DATA     BYTE      WDCON

      01003972H   BLOCK     CODE     ---       LVL=0
      00000020H.7 SYMBOL    BIT      BIT       IsEnable
      01003972H   LINE      CODE     ---       #21
      01003972H   LINE      CODE     ---       #22
      01003972H   LINE      CODE     ---       #23
      01003975H   LINE      CODE     ---       #24
      01003975H   LINE      CODE     ---       #25
      01003978H   LINE      CODE     ---       #26
      0100397BH   LINE      CODE     ---       #27
      0100397EH   LINE      CODE     ---       #28
      01003981H   LINE      CODE     ---       #29
      01003986H   LINE      CODE     ---       #30
      01003989H   LINE      CODE     ---       #31
      0100398CH   LINE      CODE     ---       #33
      0100398CH   LINE      CODE     ---       #35
      0100398FH   LINE      CODE     ---       #36
      01003994H   LINE      CODE     ---       #37
      01003997H   LINE      CODE     ---       #38
      0100399AH   LINE      CODE     ---       #39
      0100399DH   LINE      CODE     ---       #40
      ---         BLOCKEND  ---      ---       LVL=0

      01002D0FH   BLOCK     CODE     ---       LVL=0
      01002D0FH   BLOCK     CODE     NEAR LAB  LVL=1
      00000023H   SYMBOL    DATA     INT       i
      ---         BLOCKEND  ---      ---       LVL=1
      01002D0FH   LINE      CODE     ---       #43
      01002D0FH   LINE      CODE     ---       #44
      01002D0FH   LINE      CODE     ---       #47
      01002D20H   LINE      CODE     ---       #48
      01002D20H   LINE      CODE     ---       #49
      01002D27H   LINE      CODE     ---       #51
      01002D27H   LINE      CODE     ---       #53
      01002D34H   LINE      CODE     ---       #54
      01002D34H   LINE      CODE     ---       #55
      01002D3DH   LINE      CODE     ---       #57
      01002D3DH   LINE      CODE     ---       #59
      01002D42H   LINE      CODE     ---       #60
      01002D47H   LINE      CODE     ---       #61
      01002D4DH   LINE      CODE     ---       #63
      01002D50H   LINE      CODE     ---       #64
      01002D55H   LINE      CODE     ---       #65
      01002D58H   LINE      CODE     ---       #67
      01002D58H   LINE      CODE     ---       #68
      01002D5FH   LINE      CODE     ---       #69
      01002D62H   LINE      CODE     ---       #70
      01002D62H   LINE      CODE     ---       #71
      01002D67H   LINE      CODE     ---       #73
      01002D6CH   LINE      CODE     ---       #75
      01002D71H   LINE      CODE     ---       #76
      01002D71H   LINE      CODE     ---       #77
      01002D74H   LINE      CODE     ---       #78
      01002D77H   LINE      CODE     ---       #79
LX51 LINKER/LOCATER V4.66.97.0                                                        11/15/2024  17:07:44  PAGE 88


      01002D7AH   LINE      CODE     ---       #80
      01002D8DH   LINE      CODE     ---       #81
      01002D9AH   LINE      CODE     ---       #83
      01002D9FH   LINE      CODE     ---       #84
      ---         BLOCKEND  ---      ---       LVL=0

      ---         MODULE    ---      ---       MODECONTROL
      0200004CH   PUBLIC    XDATA    CHAR      RampRiseCurrentTIM
      00000051H   PUBLIC    DATA     ---       CurrentMode
      00000020H.6 PUBLIC    BIT      BIT       IsRampStart
      0200004AH   PUBLIC    XDATA    CHAR      SOSTIM
      00000020H.5 PUBLIC    BIT      BIT       IsTacMode
      02000049H   PUBLIC    XDATA    CHAR      ClickHoldReverseGearTIM
      02000048H   PUBLIC    XDATA    CHAR      HoldChangeGearTIM
      02000047H   PUBLIC    XDATA    BYTE      MoonCfg
      02000046H   PUBLIC    XDATA    BYTE      ErrCode
      00000049H   PUBLIC    DATA     ---       RampCfg
      02000045H   PUBLIC    XDATA    BYTE      LastMode
      02000044H   PUBLIC    XDATA    CHAR      DisplayLockedTIM
      02000043H   PUBLIC    XDATA    CHAR      MoonCfgTIM
      00000020H.4 PUBLIC    BIT      BIT       IsLocked
      02000042H   PUBLIC    XDATA    CHAR      BattAlertTimer
      02000041H   PUBLIC    XDATA    CHAR      TailSaveTIM
      00000020H.3 PUBLIC    BIT      BIT       IsEnableMoonConfigMode
      00000020H.2 PUBLIC    BIT      BIT       IsRampEnabled
      01003F21H   PUBLIC    CONST    ---       ModeSettings
      0100086EH   PUBLIC    CODE     ---       ModeSwitchFSM
      010030A9H   PUBLIC    CODE     ---       HoldSwitchGearCmdHandler
      01003BEEH   PUBLIC    CODE     ---       ReturnToOFFState
      01001C4BH   PUBLIC    CODE     ---       RampLowVoltHandler
      0100318FH   PUBLIC    CODE     ---       _SwitchToGear
      01002F30H   PUBLIC    CODE     ---       ModeFSMTIMHandler
      01003672H   PUBLIC    CODE     ---       MoonConfigHandler
      0100344FH   PUBLIC    CODE     ---       ModeFSMInit
      000000C8H.0 SFRSYM    DATA     BIT       T2I0
      000000C3H   SFRSYM    DATA     BYTE      CCH1
      00000080H   SFRSYM    DATA     BYTE      P0
      000000C8H.1 SFRSYM    DATA     BIT       T2I1
      000000C5H   SFRSYM    DATA     BYTE      CCH2
      00000090H   SFRSYM    DATA     BYTE      P1
      000000C7H   SFRSYM    DATA     BYTE      CCH3
      000000ACH   SFRSYM    DATA     BYTE      P0EXTIE
      000000A0H   SFRSYM    DATA     BYTE      P2
      000000B4H   SFRSYM    DATA     BYTE      P0EXTIF
      000000B0H   SFRSYM    DATA     BYTE      P3
      000000ADH   SFRSYM    DATA     BYTE      P1EXTIE
      000000D0H.6 SFRSYM    DATA     BIT       AC
      000000FFH   SFRSYM    DATA     BYTE      MCTRL
      000000C2H   SFRSYM    DATA     BYTE      CCL1
      000000B5H   SFRSYM    DATA     BYTE      P1EXTIF
      000000AEH   SFRSYM    DATA     BYTE      P2EXTIE
      000000C4H   SFRSYM    DATA     BYTE      CCL2
      000000B6H   SFRSYM    DATA     BYTE      P2EXTIF
      000000AFH   SFRSYM    DATA     BYTE      P3EXTIE
      000000A8H.7 SFRSYM    DATA     BIT       EA
      000000C6H   SFRSYM    DATA     BYTE      CCL3
      000000B7H   SFRSYM    DATA     BYTE      P3EXTIF
      000000AAH   SFRSYM    DATA     BYTE      EIE2
      000000B2H   SFRSYM    DATA     BYTE      EIF2
      000000C8H.3 SFRSYM    DATA     BIT       T2R0
      000000C8H.4 SFRSYM    DATA     BIT       T2R1
      00000083H   SFRSYM    DATA     BYTE      DPH0
      000000A8H   SFRSYM    DATA     BYTE      IE
      00000085H   SFRSYM    DATA     BYTE      DPH1
      000000B9H   SFRSYM    DATA     BYTE      EIP1
LX51 LINKER/LOCATER V4.66.97.0                                                        11/15/2024  17:07:44  PAGE 89


      000000BAH   SFRSYM    DATA     BYTE      EIP2
      00000082H   SFRSYM    DATA     BYTE      DPL0
      00000084H   SFRSYM    DATA     BYTE      DPL1
      000000C8H.6 SFRSYM    DATA     BIT       I3FR
      000000CFH   SFRSYM    DATA     BYTE      T2IE
      00000096H   SFRSYM    DATA     BYTE      TA
      000000C9H   SFRSYM    DATA     BYTE      T2IF
      000000C8H.2 SFRSYM    DATA     BIT       T2CM
      000000DFH   SFRSYM    DATA     BYTE      ADCON0
      000000DEH   SFRSYM    DATA     BYTE      ADCON1
      000000E9H   SFRSYM    DATA     BYTE      ADCON2
      000000B8H   SFRSYM    DATA     BYTE      IP
      000000CEH   SFRSYM    DATA     BYTE      CCEN
      000000D0H.7 SFRSYM    DATA     BIT       CY
      000000D2H   SFRSYM    DATA     BYTE      T34MOD
      00000093H   SFRSYM    DATA     BYTE      DPX0
      00000095H   SFRSYM    DATA     BYTE      DPX1
      000000F4H   SFRSYM    DATA     BYTE      I2CMSA
      000000F5H   SFRSYM    DATA     BYTE      I2CMCR
      00000081H   SFRSYM    DATA     BYTE      SP
      000000D0H.2 SFRSYM    DATA     BIT       OV
      000000F2H   SFRSYM    DATA     BYTE      I2CSCR
      000000C8H.7 SFRSYM    DATA     BIT       T2PS
      000000D1H   SFRSYM    DATA     BYTE      ADCMPC
      000000CBH   SFRSYM    DATA     BYTE      RLDH
      000000D5H   SFRSYM    DATA     BYTE      ADCMPH
      000000CAH   SFRSYM    DATA     BYTE      RLDL
      00000080H.0 SFRSYM    DATA     BIT       P00
      00000090H.0 SFRSYM    DATA     BIT       P10
      00000080H.1 SFRSYM    DATA     BIT       P01
      000000F7H   SFRSYM    DATA     BYTE      I2CMTP
      00000099H   SFRSYM    DATA     BYTE      SBUF
      00000087H   SFRSYM    DATA     BYTE      PCON
      000000A0H.0 SFRSYM    DATA     BIT       P20
      00000090H.1 SFRSYM    DATA     BIT       P11
      00000080H.2 SFRSYM    DATA     BIT       P02
      000000F5H   SFRSYM    DATA     BYTE      I2CMSR
      000000B0H.0 SFRSYM    DATA     BIT       P30
      000000A0H.1 SFRSYM    DATA     BIT       P21
      00000090H.2 SFRSYM    DATA     BIT       P12
      00000080H.3 SFRSYM    DATA     BIT       P03
      000000D4H   SFRSYM    DATA     BYTE      ADCMPL
      000000B0H.1 SFRSYM    DATA     BIT       P31
      000000A0H.2 SFRSYM    DATA     BIT       P22
      00000090H.3 SFRSYM    DATA     BIT       P13
      00000080H.4 SFRSYM    DATA     BIT       P04
      000000B0H.2 SFRSYM    DATA     BIT       P32
      000000A0H.3 SFRSYM    DATA     BIT       P23
      00000090H.4 SFRSYM    DATA     BIT       P14
      00000080H.5 SFRSYM    DATA     BIT       P05
      00000089H   SFRSYM    DATA     BYTE      TMOD
      00000088H   SFRSYM    DATA     BYTE      TCON
      000000B0H.3 SFRSYM    DATA     BIT       P33
      000000A0H.4 SFRSYM    DATA     BIT       P24
      00000090H.5 SFRSYM    DATA     BIT       P15
      00000080H.6 SFRSYM    DATA     BIT       P06
      000000B0H.4 SFRSYM    DATA     BIT       P34
      000000A0H.5 SFRSYM    DATA     BIT       P25
      00000090H.6 SFRSYM    DATA     BIT       P16
      00000080H.7 SFRSYM    DATA     BIT       P07
      000000B0H.5 SFRSYM    DATA     BIT       P35
      000000A0H.6 SFRSYM    DATA     BIT       P26
      00000090H.7 SFRSYM    DATA     BIT       P17
      000000F2H   SFRSYM    DATA     BYTE      I2CSSR
      000000B0H.6 SFRSYM    DATA     BIT       P36
LX51 LINKER/LOCATER V4.66.97.0                                                        11/15/2024  17:07:44  PAGE 90


      000000A0H.7 SFRSYM    DATA     BIT       P27
      000000ECH   SFRSYM    DATA     BYTE      SPCR
      000000DDH   SFRSYM    DATA     BYTE      ADRESH
      000000B0H.7 SFRSYM    DATA     BIT       P37
      000000EEH   SFRSYM    DATA     BYTE      SPDR
      000000EFH   SFRSYM    DATA     BYTE      SSCR
      000000D3H   SFRSYM    DATA     BYTE      ADDLYL
      000000DCH   SFRSYM    DATA     BYTE      ADRESL
      00000088H.1 SFRSYM    DATA     BIT       IE0
      00000088H.3 SFRSYM    DATA     BIT       IE1
      0000008FH   SFRSYM    DATA     BYTE      CLKDIV
      000000F0H   SFRSYM    DATA     BYTE      B
      00000091H   SFRSYM    DATA     BYTE      FUNCCR
      0000009AH   SFRSYM    DATA     BYTE      P0TRIS
      000000A1H   SFRSYM    DATA     BYTE      P1TRIS
      000000A2H   SFRSYM    DATA     BYTE      P2TRIS
      000000E0H   SFRSYM    DATA     BYTE      ACC
      000000A3H   SFRSYM    DATA     BYTE      P3TRIS
      000000A8H.4 SFRSYM    DATA     BIT       ES0
      000000A8H.6 SFRSYM    DATA     BIT       ES1
      000000A8H.1 SFRSYM    DATA     BIT       ET0
      000000EDH   SFRSYM    DATA     BYTE      SPSR
      000000A8H.3 SFRSYM    DATA     BIT       ET1
      00000088H.5 SFRSYM    DATA     BIT       TF0
      000000A8H.5 SFRSYM    DATA     BIT       ET2
      00000098H.0 SFRSYM    DATA     BIT       RI0
      00000088H.7 SFRSYM    DATA     BIT       TF1
      0000008CH   SFRSYM    DATA     BYTE      TH0
      000000A8H.0 SFRSYM    DATA     BIT       EX0
      00000098H.1 SFRSYM    DATA     BIT       TI0
      00000088H.0 SFRSYM    DATA     BIT       IT0
      0000008DH   SFRSYM    DATA     BYTE      TH1
      000000A8H.2 SFRSYM    DATA     BIT       EX1
      00000088H.2 SFRSYM    DATA     BIT       IT1
      000000CDH   SFRSYM    DATA     BYTE      TH2
      000000D0H.0 SFRSYM    DATA     BIT       P
      000000DBH   SFRSYM    DATA     BYTE      TH3
      000000E3H   SFRSYM    DATA     BYTE      TH4
      0000008AH   SFRSYM    DATA     BYTE      TL0
      0000008BH   SFRSYM    DATA     BYTE      TL1
      00000098H.2 SFRSYM    DATA     BIT       U0RB8
      000000CCH   SFRSYM    DATA     BYTE      TL2
      000000B8H.4 SFRSYM    DATA     BIT       PS0
      000000DAH   SFRSYM    DATA     BYTE      TL3
      000000BFH   SFRSYM    DATA     BYTE      BUZCON
      000000B8H.6 SFRSYM    DATA     BIT       PS1
      000000B8H.1 SFRSYM    DATA     BIT       PT0
      00000098H.3 SFRSYM    DATA     BIT       U0TB8
      000000E2H   SFRSYM    DATA     BYTE      TL4
      000000D0H.3 SFRSYM    DATA     BIT       RS0
      000000B8H.3 SFRSYM    DATA     BIT       PT1
      000000D0H.4 SFRSYM    DATA     BIT       RS1
      000000B8H.5 SFRSYM    DATA     BIT       PT2
      00000098H.7 SFRSYM    DATA     BIT       U0SM0
      00000088H.4 SFRSYM    DATA     BIT       TR0
      000000BEH   SFRSYM    DATA     BYTE      BUZDIV
      00000098H.6 SFRSYM    DATA     BIT       U0SM1
      00000088H.6 SFRSYM    DATA     BIT       TR1
      000000B8H.0 SFRSYM    DATA     BIT       PX0
      00000098H.5 SFRSYM    DATA     BIT       U0SM2
      000000B8H.2 SFRSYM    DATA     BIT       PX1
      000000BDH   SFRSYM    DATA     BYTE      WUTCRH
      00000099H   SFRSYM    DATA     BYTE      SBUF0
      000000EBH   SFRSYM    DATA     BYTE      SBUF1
      000000BCH   SFRSYM    DATA     BYTE      WUTCRL
LX51 LINKER/LOCATER V4.66.97.0                                                        11/15/2024  17:07:44  PAGE 91


      00000098H   SFRSYM    DATA     BYTE      SCON0
      000000EAH   SFRSYM    DATA     BYTE      SCON1
      000000C8H   SFRSYM    DATA     BYTE      T2CON
      00000086H   SFRSYM    DATA     BYTE      DPS
      000000FEH   SFRSYM    DATA     BYTE      MDATA
      000000F6H   SFRSYM    DATA     BYTE      I2CMBUF
      000000F1H   SFRSYM    DATA     BYTE      I2CSADR
      00000098H.4 SFRSYM    DATA     BIT       U0REN
      000000C8H.5 SFRSYM    DATA     BIT       CAPES
      000000FDH   SFRSYM    DATA     BYTE      MADRH
      0000008EH   SFRSYM    DATA     BYTE      CKCON
      000000F3H   SFRSYM    DATA     BYTE      I2CSBUF
      000000FCH   SFRSYM    DATA     BYTE      MADRL
      000000D0H.5 SFRSYM    DATA     BIT       F0
      000000FBH   SFRSYM    DATA     BYTE      MLOCK
      000000D0H   SFRSYM    DATA     BYTE      PSW
      00000097H   SFRSYM    DATA     BYTE      WDCON
      01003822H   SYMBOL    CODE     ---       _EnterTurboStrobe
      01003C3DH   SYMBOL    CODE     ---       _SideKey1HRevGearHandler
      01003CA2H   SYMBOL    CODE     ---       _DetectIfNeedsOFF
      0100249DH   SYMBOL    CODE     ---       SOSFSM
      01003858H   SYMBOL    CODE     ---       ObtainMoonCurrent
      010018F3H   SYMBOL    CODE     ---       _RampAdjHandler
      01003A70H   SYMBOL    CODE     ---       _SideKeySwitchGearHandler
      0100332DH   SYMBOL    CODE     ---       _BatteryLowAlertProcess
      0200004BH   SYMBOL    XDATA    BYTE      SOSState

      0100221CH   BLOCK     CODE     ---       LVL=0
      ---         BLOCKEND  ---      ---       LVL=0

      0100344FH   BLOCK     CODE     ---       LVL=0
      0100344FH   BLOCK     CODE     NEAR LAB  LVL=1
      00000007H   SYMBOL    DATA     CHAR      i
      ---         BLOCKEND  ---      ---       LVL=1
      0100344FH   LINE      CODE     ---       #141
      0100344FH   LINE      CODE     ---       #142
      0100344FH   LINE      CODE     ---       #145
      01003452H   LINE      CODE     ---       #146
      0100346AH   LINE      CODE     ---       #147
      0100346AH   LINE      CODE     ---       #148
      0100347CH   LINE      CODE     ---       #149
      01003489H   LINE      CODE     ---       #150
      0100348CH   LINE      CODE     ---       #151
      0100348FH   LINE      CODE     ---       #153
      01003494H   LINE      CODE     ---       #154
      0100349AH   LINE      CODE     ---       #155
      0100349DH   LINE      CODE     ---       #156
      010034A6H   LINE      CODE     ---       #157
      010034A8H   LINE      CODE     ---       #158
      010034AAH   LINE      CODE     ---       #159
      010034ACH   LINE      CODE     ---       #160
      ---         BLOCKEND  ---      ---       LVL=0

      0100249DH   BLOCK     CODE     ---       LVL=0
      0100249DH   BLOCK     CODE     NEAR LAB  LVL=1
      00000026H   SYMBOL    DATA     INT       buf
      ---         BLOCKEND  ---      ---       LVL=1
      0100249DH   LINE      CODE     ---       #163
      0100249DH   LINE      CODE     ---       #164
      0100249DH   LINE      CODE     ---       #166
      010024C5H   LINE      CODE     ---       #167
      010024C5H   LINE      CODE     ---       #169
      010024C5H   LINE      CODE     ---       #170
      010024CBH   LINE      CODE     ---       #171
      010024CFH   LINE      CODE     ---       #172
LX51 LINKER/LOCATER V4.66.97.0                                                        11/15/2024  17:07:44  PAGE 92


      010024D2H   LINE      CODE     ---       #174
      010024D2H   LINE      CODE     ---       #175
      010024D2H   LINE      CODE     ---       #176
      010024DCH   LINE      CODE     ---       #177
      010024E1H   LINE      CODE     ---       #178
      010024E1H   LINE      CODE     ---       #179
      010024E7H   LINE      CODE     ---       #180
      010024EBH   LINE      CODE     ---       #181
      010024EBH   LINE      CODE     ---       #182
      010024EDH   LINE      CODE     ---       #184
      010024EDH   LINE      CODE     ---       #185
      010024F2H   LINE      CODE     ---       #186
      010024F5H   LINE      CODE     ---       #187
      010024F9H   LINE      CODE     ---       #188
      010024FBH   LINE      CODE     ---       #190
      010024FBH   LINE      CODE     ---       #191
      010024FEH   LINE      CODE     ---       #192
      0100250AH   LINE      CODE     ---       #193
      0100250FH   LINE      CODE     ---       #194
      0100250FH   LINE      CODE     ---       #195
      01002515H   LINE      CODE     ---       #196
      01002519H   LINE      CODE     ---       #197
      01002519H   LINE      CODE     ---       #198
      0100251BH   LINE      CODE     ---       #200
      0100251BH   LINE      CODE     ---       #201
      01002520H   LINE      CODE     ---       #202
      01002523H   LINE      CODE     ---       #203
      01002527H   LINE      CODE     ---       #204
      01002529H   LINE      CODE     ---       #206
      01002529H   LINE      CODE     ---       #207
      01002529H   LINE      CODE     ---       #208
      01002538H   LINE      CODE     ---       #209
      0100253DH   LINE      CODE     ---       #210
      0100253DH   LINE      CODE     ---       #211
      01002543H   LINE      CODE     ---       #212
      01002547H   LINE      CODE     ---       #213
      01002547H   LINE      CODE     ---       #214
      01002549H   LINE      CODE     ---       #216
      01002549H   LINE      CODE     ---       #217
      0100254EH   LINE      CODE     ---       #218
      01002551H   LINE      CODE     ---       #219
      01002551H   LINE      CODE     ---       #220
      01002551H   LINE      CODE     ---       #222
      01002555H   LINE      CODE     ---       #223
      ---         BLOCKEND  ---      ---       LVL=0

      01003672H   BLOCK     CODE     ---       LVL=0
      01003672H   BLOCK     CODE     NEAR LAB  LVL=1
      00000006H   SYMBOL    DATA     INT       buf
      ---         BLOCKEND  ---      ---       LVL=1
      01003672H   LINE      CODE     ---       #226
      01003672H   LINE      CODE     ---       #227
      01003672H   LINE      CODE     ---       #230
      01003682H   LINE      CODE     ---       #233
      01003682H   LINE      CODE     ---       #234
      01003688H   LINE      CODE     ---       #235
      01003696H   LINE      CODE     ---       #236
      01003698H   LINE      CODE     ---       #238
      0100369DH   LINE      CODE     ---       #239
      010036ABH   LINE      CODE     ---       #240
      010036ADH   LINE      CODE     ---       #241
      010036B2H   LINE      CODE     ---       #242
      010036B2H   LINE      CODE     ---       #243
      ---         BLOCKEND  ---      ---       LVL=0

LX51 LINKER/LOCATER V4.66.97.0                                                        11/15/2024  17:07:44  PAGE 93


      01002F30H   BLOCK     CODE     ---       LVL=0
      01002F30H   BLOCK     CODE     NEAR LAB  LVL=1
      00000006H   SYMBOL    DATA     CHAR      buf
      ---         BLOCKEND  ---      ---       LVL=1
      01002F30H   LINE      CODE     ---       #246
      01002F30H   LINE      CODE     ---       #247
      01002F30H   LINE      CODE     ---       #250
      01002F38H   LINE      CODE     ---       #252
      01002F49H   LINE      CODE     ---       #253
      01002F5EH   LINE      CODE     ---       #254
      01002F72H   LINE      CODE     ---       #255
      01002F7CH   LINE      CODE     ---       #257
      01002F87H   LINE      CODE     ---       #259
      01002F8FH   LINE      CODE     ---       #260
      01002F8FH   LINE      CODE     ---       #261
      01002F92H   LINE      CODE     ---       #262
      01002F96H   LINE      CODE     ---       #263
      01002FA4H   LINE      CODE     ---       #264
      01002FAAH   LINE      CODE     ---       #265
      01002FABH   LINE      CODE     ---       #266
      01002FB0H   LINE      CODE     ---       #267
      ---         BLOCKEND  ---      ---       LVL=0

      0100318FH   BLOCK     CODE     ---       LVL=0
      0000002AH   SYMBOL    DATA     BYTE      TargetMode
      01003191H   BLOCK     CODE     NEAR LAB  LVL=1
      0000002BH   SYMBOL    DATA     INT       i
      0000002DH   SYMBOL    DATA     BYTE      BeforeMode
      ---         BLOCKEND  ---      ---       LVL=1
      0100318FH   LINE      CODE     ---       #270
      01003191H   LINE      CODE     ---       #271
      01003191H   LINE      CODE     ---       #273
      01003196H   LINE      CODE     ---       #274
      010031AFH   LINE      CODE     ---       #275
      010031AFH   LINE      CODE     ---       #276
      010031B3H   LINE      CODE     ---       #277
      010031CBH   LINE      CODE     ---       #278
      010031D9H   LINE      CODE     ---       #279
      010031DEH   LINE      CODE     ---       #280
      010031E2H   LINE      CODE     ---       #281
      010031F5H   LINE      CODE     ---       #283
      010031F9H   LINE      CODE     ---       #284
      ---         BLOCKEND  ---      ---       LVL=0

      01001C4BH   BLOCK     CODE     ---       LVL=0
      01001C4BH   BLOCK     CODE     NEAR LAB  LVL=1
      00000026H   SYMBOL    DATA     CHAR      time
      ---         BLOCKEND  ---      ---       LVL=1
      01001C4BH   LINE      CODE     ---       #287
      01001C4BH   LINE      CODE     ---       #288
      01001C4BH   LINE      CODE     ---       #291
      01001C57H   LINE      CODE     ---       #292
      01001C57H   LINE      CODE     ---       #293
      01001C5CH   LINE      CODE     ---       #294
      01001C65H   LINE      CODE     ---       #295
      01001C65H   LINE      CODE     ---       #296
      01001C6DH   LINE      CODE     ---       #297
      01001C6DH   LINE      CODE     ---       #298
      01001C78H   LINE      CODE     ---       #299
      01001C88H   LINE      CODE     ---       #300
      01001C8EH   LINE      CODE     ---       #301
      01001CACH   LINE      CODE     ---       #302
      01001CB7H   LINE      CODE     ---       #303
      01001CC6H   LINE      CODE     ---       #304
      01001CD1H   LINE      CODE     ---       #305
LX51 LINKER/LOCATER V4.66.97.0                                                        11/15/2024  17:07:44  PAGE 94


      01001CD2H   LINE      CODE     ---       #306
      01001CD7H   LINE      CODE     ---       #307
      01001CD8H   LINE      CODE     ---       #309
      01001CD8H   LINE      CODE     ---       #310
      01001CDDH   LINE      CODE     ---       #311
      01001CEAH   LINE      CODE     ---       #312
      01001CF2H   LINE      CODE     ---       #313
      01001D08H   LINE      CODE     ---       #314
      01001D1AH   LINE      CODE     ---       #315
      01001D1AH   LINE      CODE     ---       #316
      01001D33H   LINE      CODE     ---       #317
      01001D4CH   LINE      CODE     ---       #318
      01001D52H   LINE      CODE     ---       #319
      01001D52H   LINE      CODE     ---       #320
      ---         BLOCKEND  ---      ---       LVL=0

      01003BEEH   BLOCK     CODE     ---       LVL=0
      01003BEEH   LINE      CODE     ---       #323
      01003BEEH   LINE      CODE     ---       #324
      01003BEEH   LINE      CODE     ---       #325
      01003BF4H   LINE      CODE     ---       #326
      01003C01H   LINE      CODE     ---       #327
      01003C06H   LINE      CODE     ---       #328
      01003C0BH   LINE      CODE     ---       #329
      ---         BLOCKEND  ---      ---       LVL=0

      0100332DH   BLOCK     CODE     ---       LVL=0
      00000007H   SYMBOL    DATA     BYTE      IsNeedToShutOff
      00000026H   SYMBOL    DATA     BYTE      ModeJump
      0100332FH   BLOCK     CODE     NEAR LAB  LVL=1
      00000027H   SYMBOL    DATA     CHAR      time
      00000028H   SYMBOL    DATA     CHAR      Thr
      ---         BLOCKEND  ---      ---       LVL=1
      0100332DH   LINE      CODE     ---       #332
      0100332FH   LINE      CODE     ---       #333
      0100332FH   LINE      CODE     ---       #335
      01003335H   LINE      CODE     ---       #336
      01003335H   LINE      CODE     ---       #337
      0100333BH   LINE      CODE     ---       #339
      0100333BH   LINE      CODE     ---       #340
      0100334BH   LINE      CODE     ---       #341
      01003353H   LINE      CODE     ---       #342
      0100335BH   LINE      CODE     ---       #343
      0100335EH   LINE      CODE     ---       #345
      01003379H   LINE      CODE     ---       #347
      01003386H   LINE      CODE     ---       #348
      01003386H   LINE      CODE     ---       #349
      0100338CH   LINE      CODE     ---       #350
      01003391H   LINE      CODE     ---       #351
      01003391H   LINE      CODE     ---       #352
      ---         BLOCKEND  ---      ---       LVL=0

      010030A9H   BLOCK     CODE     ---       LVL=0
      010030A9H   BLOCK     CODE     NEAR LAB  LVL=1
      00000023H   SYMBOL    DATA     CHAR      buf
      ---         BLOCKEND  ---      ---       LVL=1
      010030A9H   LINE      CODE     ---       #355
      010030A9H   LINE      CODE     ---       #356
      010030A9H   LINE      CODE     ---       #358
      010030BAH   LINE      CODE     ---       #360
      010030BAH   LINE      CODE     ---       #361
      010030BDH   LINE      CODE     ---       #362
      010030C9H   LINE      CODE     ---       #363
      010030CCH   LINE      CODE     ---       #364
      010030D9H   LINE      CODE     ---       #365
LX51 LINKER/LOCATER V4.66.97.0                                                        11/15/2024  17:07:44  PAGE 95


      010030DCH   LINE      CODE     ---       #366
      010030E3H   LINE      CODE     ---       #367
      010030E3H   LINE      CODE     ---       #369
      010030F3H   LINE      CODE     ---       #371
      010030F3H   LINE      CODE     ---       #372
      010030F6H   LINE      CODE     ---       #373
      01003102H   LINE      CODE     ---       #374
      01003105H   LINE      CODE     ---       #375
      01003112H   LINE      CODE     ---       #376
      01003115H   LINE      CODE     ---       #377
      0100311CH   LINE      CODE     ---       #378
      0100311CH   LINE      CODE     ---       #379
      ---         BLOCKEND  ---      ---       LVL=0

      01003A70H   BLOCK     CODE     ---       LVL=0
      00000001H   SYMBOL    DATA     BYTE      TargetMode
      00000005H   SYMBOL    DATA     CHAR      TKCount
      01003A70H   LINE      CODE     ---       #382
      01003A72H   LINE      CODE     ---       #383
      01003A72H   LINE      CODE     ---       #384
      01003A8BH   LINE      CODE     ---       #385
      01003A92H   LINE      CODE     ---       #386
      01003A97H   LINE      CODE     ---       #387
      ---         BLOCKEND  ---      ---       LVL=0

      01003C3DH   BLOCK     CODE     ---       LVL=0
      00000003H   SYMBOL    DATA     BYTE      TargetMode
      01003C3DH   LINE      CODE     ---       #390
      01003C3DH   LINE      CODE     ---       #391
      01003C3DH   LINE      CODE     ---       #392
      01003C4BH   LINE      CODE     ---       #393
      01003C4FH   LINE      CODE     ---       #394
      01003C52H   LINE      CODE     ---       #395
      ---         BLOCKEND  ---      ---       LVL=0

      010018F3H   BLOCK     CODE     ---       LVL=0
      00000026H   SYMBOL    DATA     CHAR      TKCount
      010018F5H   BLOCK     CODE     NEAR LAB  LVL=1
      00000020H.0 SYMBOL    BIT      BIT       IsKeyPressed
      00000020H.1 SYMBOL    BIT      BIT       RampDIR
      00000027H   SYMBOL    DATA     INT       Limit
      00000021H.0 SYMBOL    BIT      BIT       IsPress
      ---         BLOCKEND  ---      ---       LVL=1
      010018F3H   LINE      CODE     ---       #398
      010018F5H   LINE      CODE     ---       #399
      010018F5H   LINE      CODE     ---       #405
      01001905H   LINE      CODE     ---       #406
      0100191BH   LINE      CODE     ---       #407
      0100193DH   LINE      CODE     ---       #409
      01001940H   LINE      CODE     ---       #410
      01001940H   LINE      CODE     ---       #412
      0100194AH   LINE      CODE     ---       #413
      0100194CH   LINE      CODE     ---       #415
      0100194CH   LINE      CODE     ---       #416
      01001959H   LINE      CODE     ---       #417
      01001961H   LINE      CODE     ---       #418
      01001974H   LINE      CODE     ---       #419
      01001974H   LINE      CODE     ---       #420
      01001976H   LINE      CODE     ---       #421
      0100197AH   LINE      CODE     ---       #422
      0100197AH   LINE      CODE     ---       #423
      0100197FH   LINE      CODE     ---       #424
      0100197FH   LINE      CODE     ---       #425
      01001981H   LINE      CODE     ---       #426
      01001984H   LINE      CODE     ---       #427
LX51 LINKER/LOCATER V4.66.97.0                                                        11/15/2024  17:07:44  PAGE 96


      01001984H   LINE      CODE     ---       #429
      01001991H   LINE      CODE     ---       #430
      01001991H   LINE      CODE     ---       #431
      01001993H   LINE      CODE     ---       #432
      01001996H   LINE      CODE     ---       #433
      01001996H   LINE      CODE     ---       #434
      01001996H   LINE      CODE     ---       #436
      010019A8H   LINE      CODE     ---       #437
      010019BAH   LINE      CODE     ---       #438
      010019C2H   LINE      CODE     ---       #440
      010019CFH   LINE      CODE     ---       #441
      010019CFH   LINE      CODE     ---       #442
      010019D2H   LINE      CODE     ---       #443
      010019D5H   LINE      CODE     ---       #444
      010019D7H   LINE      CODE     ---       #445
      010019D7H   LINE      CODE     ---       #447
      010019F8H   LINE      CODE     ---       #448
      010019F8H   LINE      CODE     ---       #449
      010019FBH   LINE      CODE     ---       #450
      010019FFH   LINE      CODE     ---       #451
      01001A01H   LINE      CODE     ---       #452
      01001A01H   LINE      CODE     ---       #454
      01001A08H   LINE      CODE     ---       #455
      01001A12H   LINE      CODE     ---       #456
      01001A12H   LINE      CODE     ---       #457
      01001A14H   LINE      CODE     ---       #458
      01001A19H   LINE      CODE     ---       #459
      01001A19H   LINE      CODE     ---       #460
      ---         BLOCKEND  ---      ---       LVL=0

      01003CA2H   BLOCK     CODE     ---       LVL=0
      00000006H   SYMBOL    DATA     INT       ClickCount
      01003CA2H   LINE      CODE     ---       #462
      01003CA2H   LINE      CODE     ---       #463
      01003CA2H   LINE      CODE     ---       #464
      01003CA8H   LINE      CODE     ---       #465
      01003CB0H   LINE      CODE     ---       #466
      01003CB3H   LINE      CODE     ---       #467
      ---         BLOCKEND  ---      ---       LVL=0

      01003858H   BLOCK     CODE     ---       LVL=0
      01003858H   LINE      CODE     ---       #470
      01003858H   LINE      CODE     ---       #471
      01003858H   LINE      CODE     ---       #472
      0100386CH   LINE      CODE     ---       #473
      0100386CH   LINE      CODE     ---       #474
      01003871H   LINE      CODE     ---       #475
      01003876H   LINE      CODE     ---       #476
      0100387BH   LINE      CODE     ---       #477
      01003880H   LINE      CODE     ---       #478
      01003885H   LINE      CODE     ---       #479
      01003885H   LINE      CODE     ---       #481
      0100388BH   LINE      CODE     ---       #482
      ---         BLOCKEND  ---      ---       LVL=0

      01003822H   BLOCK     CODE     ---       LVL=0
      00000026H   SYMBOL    DATA     INT       TKCount
      00000028H   SYMBOL    DATA     INT       ClickCount
      01003822H   LINE      CODE     ---       #485
      0100382AH   LINE      CODE     ---       #486
      0100382AH   LINE      CODE     ---       #488
      01003842H   LINE      CODE     ---       #489
      01003857H   LINE      CODE     ---       #490
      ---         BLOCKEND  ---      ---       LVL=0

LX51 LINKER/LOCATER V4.66.97.0                                                        11/15/2024  17:07:44  PAGE 97


      0100086EH   BLOCK     CODE     ---       LVL=0
      0100086EH   BLOCK     CODE     NEAR LAB  LVL=1
      00000020H.7 SYMBOL    BIT      BIT       IsHoldEvent
      00000023H   SYMBOL    DATA     INT       ClickCount
      00000025H   SYMBOL    DATA     CHAR      TKCount
      02000000H   SYMBOL    XDATA    FLOAT     TargetCurrent
      ---         BLOCKEND  ---      ---       LVL=1
      0100086EH   LINE      CODE     ---       #496
      0100086EH   LINE      CODE     ---       #497
      0100086EH   LINE      CODE     ---       #506
      01000873H   LINE      CODE     ---       #507
      01000878H   LINE      CODE     ---       #508
      01000881H   LINE      CODE     ---       #510
      01000896H   LINE      CODE     ---       #511
      0100089FH   LINE      CODE     ---       #512
      0100089FH   LINE      CODE     ---       #513
      010008A2H   LINE      CODE     ---       #514
      010008A9H   LINE      CODE     ---       #515
      010008A9H   LINE      CODE     ---       #517
      010008BDH   LINE      CODE     ---       #518
      010008F0H   LINE      CODE     ---       #519
      010008F0H   LINE      CODE     ---       #521
      010008F0H   LINE      CODE     ---       #522
      010008F2H   LINE      CODE     ---       #523
      01000903H   LINE      CODE     ---       #524
      01000905H   LINE      CODE     ---       #525
      01000906H   LINE      CODE     ---       #526
      01000909H   LINE      CODE     ---       #528
      01000909H   LINE      CODE     ---       #529
      01000911H   LINE      CODE     ---       #530
      01000911H   LINE      CODE     ---       #531
      01000913H   LINE      CODE     ---       #532
      0100091AH   LINE      CODE     ---       #533
      01000920H   LINE      CODE     ---       #534
      01000922H   LINE      CODE     ---       #535
      0100093AH   LINE      CODE     ---       #537
      01000940H   LINE      CODE     ---       #539
      01000948H   LINE      CODE     ---       #540
      01000948H   LINE      CODE     ---       #541
      0100094FH   LINE      CODE     ---       #542
      01000955H   LINE      CODE     ---       #543
      01000955H   LINE      CODE     ---       #544
      01000958H   LINE      CODE     ---       #545
      01000958H   LINE      CODE     ---       #546
      01000960H   LINE      CODE     ---       #547
      01000974H   LINE      CODE     ---       #548
      0100097FH   LINE      CODE     ---       #551
      0100097FH   LINE      CODE     ---       #553
      01000987H   LINE      CODE     ---       #554
      01000987H   LINE      CODE     ---       #555
      010009A2H   LINE      CODE     ---       #556
      010009ABH   LINE      CODE     ---       #557
      010009ABH   LINE      CODE     ---       #558
      010009ADH   LINE      CODE     ---       #559
      010009B5H   LINE      CODE     ---       #560
      010009B5H   LINE      CODE     ---       #561
      010009BAH   LINE      CODE     ---       #562
      010009CCH   LINE      CODE     ---       #563
      010009E2H   LINE      CODE     ---       #564
      010009E2H   LINE      CODE     ---       #565
      010009E4H   LINE      CODE     ---       #566
      010009ECH   LINE      CODE     ---       #567
      010009F1H   LINE      CODE     ---       #568
      010009F1H   LINE      CODE     ---       #569
      010009FDH   LINE      CODE     ---       #570
LX51 LINKER/LOCATER V4.66.97.0                                                        11/15/2024  17:07:44  PAGE 98


      01000A00H   LINE      CODE     ---       #571
      01000A03H   LINE      CODE     ---       #572
      01000A0BH   LINE      CODE     ---       #573
      01000A0BH   LINE      CODE     ---       #574
      01000A12H   LINE      CODE     ---       #575
      01000A1BH   LINE      CODE     ---       #576
      01000A20H   LINE      CODE     ---       #577
      01000A23H   LINE      CODE     ---       #578
      01000A2EH   LINE      CODE     ---       #579
      01000A31H   LINE      CODE     ---       #581
      01000A31H   LINE      CODE     ---       #582
      01000A38H   LINE      CODE     ---       #583
      01000A40H   LINE      CODE     ---       #584
      01000A40H   LINE      CODE     ---       #585
      01000A48H   LINE      CODE     ---       #586
      01000A4AH   LINE      CODE     ---       #587
      01000A4DH   LINE      CODE     ---       #588
      01000A4DH   LINE      CODE     ---       #590
      01000A53H   LINE      CODE     ---       #592
      01000A5DH   LINE      CODE     ---       #593
      01000A7DH   LINE      CODE     ---       #594
      01000A7DH   LINE      CODE     ---       #595
      01000A87H   LINE      CODE     ---       #596
      01000A8DH   LINE      CODE     ---       #597
      01000A94H   LINE      CODE     ---       #598
      01000A97H   LINE      CODE     ---       #599
      01000A97H   LINE      CODE     ---       #600
      01000A9AH   LINE      CODE     ---       #602
      01000A9AH   LINE      CODE     ---       #603
      01000A9DH   LINE      CODE     ---       #604
      01000A9DH   LINE      CODE     ---       #605
      01000A9DH   LINE      CODE     ---       #606
      01000AA0H   LINE      CODE     ---       #607
      01000AA0H   LINE      CODE     ---       #609
      01000AA3H   LINE      CODE     ---       #610
      01000AA8H   LINE      CODE     ---       #611
      01000AABH   LINE      CODE     ---       #613
      01000AABH   LINE      CODE     ---       #614
      01000AB2H   LINE      CODE     ---       #615
      01000AB2H   LINE      CODE     ---       #616
      01000AB5H   LINE      CODE     ---       #618
      01000AB9H   LINE      CODE     ---       #619
      01000ABCH   LINE      CODE     ---       #621
      01000ABCH   LINE      CODE     ---       #622
      01000ABEH   LINE      CODE     ---       #623
      01000ABEH   LINE      CODE     ---       #624
      01000AC1H   LINE      CODE     ---       #626
      01000AC8H   LINE      CODE     ---       #627
      01000ACAH   LINE      CODE     ---       #628
      01000ACCH   LINE      CODE     ---       #630
      01000ACCH   LINE      CODE     ---       #631
      01000ACEH   LINE      CODE     ---       #632
      01000ACEH   LINE      CODE     ---       #633
      01000AD1H   LINE      CODE     ---       #635
      01000AD8H   LINE      CODE     ---       #636
      01000ADAH   LINE      CODE     ---       #637
      01000ADCH   LINE      CODE     ---       #639
      01000ADCH   LINE      CODE     ---       #640
      01000ADEH   LINE      CODE     ---       #641
      01000ADEH   LINE      CODE     ---       #642
      01000AE8H   LINE      CODE     ---       #644
      01000AEFH   LINE      CODE     ---       #645
      01000AF4H   LINE      CODE     ---       #646
      01000AF6H   LINE      CODE     ---       #648
      01000AF6H   LINE      CODE     ---       #649
LX51 LINKER/LOCATER V4.66.97.0                                                        11/15/2024  17:07:44  PAGE 99


      01000AF8H   LINE      CODE     ---       #650
      01000AF8H   LINE      CODE     ---       #651
      01000B16H   LINE      CODE     ---       #652
      01000B2AH   LINE      CODE     ---       #653
      01000B2CH   LINE      CODE     ---       #655
      01000B2CH   LINE      CODE     ---       #656
      01000B2EH   LINE      CODE     ---       #657
      01000B2EH   LINE      CODE     ---       #658
      01000B3BH   LINE      CODE     ---       #659
      01000B4AH   LINE      CODE     ---       #661
      01000B4EH   LINE      CODE     ---       #662
      01000B50H   LINE      CODE     ---       #664
      01000B50H   LINE      CODE     ---       #665
      01000B52H   LINE      CODE     ---       #666
      01000B52H   LINE      CODE     ---       #667
      01000B5FH   LINE      CODE     ---       #668
      01000B6EH   LINE      CODE     ---       #670
      01000B75H   LINE      CODE     ---       #671
      01000B75H   LINE      CODE     ---       #672
      01000B75H   LINE      CODE     ---       #674
      01000B89H   LINE      CODE     ---       #675
      01000B9DH   LINE      CODE     ---       #676
      01000BAEH   LINE      CODE     ---       #677
      01000BAEH   LINE      CODE     ---       #678
      01000BC9H   LINE      CODE     ---       #679
      01000BC9H   LINE      CODE     ---       #680
      01000BE3H   LINE      CODE     ---       #681
      01000BE5H   LINE      CODE     ---       #682
      01000BEEH   LINE      CODE     ---       #683
      01000BF7H   LINE      CODE     ---       #684
      01000C07H   LINE      CODE     ---       #685
      01000C07H   LINE      CODE     ---       #687
      01000C23H   LINE      CODE     ---       #688
      ---         BLOCKEND  ---      ---       LVL=0

      ---         MODULE    ---      ---       RAMPCONFIG
      01003F98H   PUBLIC    CONST    ---       VendorString
      00000021H.1 PUBLIC    BIT      BIT       ?SaveRampConfig?BIT
      01002FB1H   PUBLIC    CODE     ---       SaveRampConfig
      0100399EH   PUBLIC    CODE     ---       RestoreToMinimumRampCurrent
      010032C7H   PUBLIC    CODE     ---       ReadRampConfig
      000000C8H.0 SFRSYM    DATA     BIT       T2I0
      000000C3H   SFRSYM    DATA     BYTE      CCH1
      00000080H   SFRSYM    DATA     BYTE      P0
      000000C8H.1 SFRSYM    DATA     BIT       T2I1
      000000C5H   SFRSYM    DATA     BYTE      CCH2
      00000090H   SFRSYM    DATA     BYTE      P1
      000000C7H   SFRSYM    DATA     BYTE      CCH3
      000000ACH   SFRSYM    DATA     BYTE      P0EXTIE
      000000A0H   SFRSYM    DATA     BYTE      P2
      000000B4H   SFRSYM    DATA     BYTE      P0EXTIF
      000000B0H   SFRSYM    DATA     BYTE      P3
      000000ADH   SFRSYM    DATA     BYTE      P1EXTIE
      000000D0H.6 SFRSYM    DATA     BIT       AC
      000000FFH   SFRSYM    DATA     BYTE      MCTRL
      000000C2H   SFRSYM    DATA     BYTE      CCL1
      000000B5H   SFRSYM    DATA     BYTE      P1EXTIF
      000000AEH   SFRSYM    DATA     BYTE      P2EXTIE
      000000C4H   SFRSYM    DATA     BYTE      CCL2
      000000B6H   SFRSYM    DATA     BYTE      P2EXTIF
      000000AFH   SFRSYM    DATA     BYTE      P3EXTIE
      000000A8H.7 SFRSYM    DATA     BIT       EA
      000000C6H   SFRSYM    DATA     BYTE      CCL3
      000000B7H   SFRSYM    DATA     BYTE      P3EXTIF
      000000AAH   SFRSYM    DATA     BYTE      EIE2
LX51 LINKER/LOCATER V4.66.97.0                                                        11/15/2024  17:07:44  PAGE 100


      000000B2H   SFRSYM    DATA     BYTE      EIF2
      000000C8H.3 SFRSYM    DATA     BIT       T2R0
      000000C8H.4 SFRSYM    DATA     BIT       T2R1
      00000083H   SFRSYM    DATA     BYTE      DPH0
      000000A8H   SFRSYM    DATA     BYTE      IE
      00000085H   SFRSYM    DATA     BYTE      DPH1
      000000B9H   SFRSYM    DATA     BYTE      EIP1
      000000BAH   SFRSYM    DATA     BYTE      EIP2
      00000082H   SFRSYM    DATA     BYTE      DPL0
      00000084H   SFRSYM    DATA     BYTE      DPL1
      000000C8H.6 SFRSYM    DATA     BIT       I3FR
      000000CFH   SFRSYM    DATA     BYTE      T2IE
      00000096H   SFRSYM    DATA     BYTE      TA
      000000C9H   SFRSYM    DATA     BYTE      T2IF
      000000C8H.2 SFRSYM    DATA     BIT       T2CM
      000000DFH   SFRSYM    DATA     BYTE      ADCON0
      000000DEH   SFRSYM    DATA     BYTE      ADCON1
      000000E9H   SFRSYM    DATA     BYTE      ADCON2
      000000B8H   SFRSYM    DATA     BYTE      IP
      000000CEH   SFRSYM    DATA     BYTE      CCEN
      000000D0H.7 SFRSYM    DATA     BIT       CY
      000000D2H   SFRSYM    DATA     BYTE      T34MOD
      00000093H   SFRSYM    DATA     BYTE      DPX0
      00000095H   SFRSYM    DATA     BYTE      DPX1
      000000F4H   SFRSYM    DATA     BYTE      I2CMSA
      000000F5H   SFRSYM    DATA     BYTE      I2CMCR
      00000081H   SFRSYM    DATA     BYTE      SP
      000000D0H.2 SFRSYM    DATA     BIT       OV
      000000F2H   SFRSYM    DATA     BYTE      I2CSCR
      000000C8H.7 SFRSYM    DATA     BIT       T2PS
      000000D1H   SFRSYM    DATA     BYTE      ADCMPC
      000000CBH   SFRSYM    DATA     BYTE      RLDH
      000000D5H   SFRSYM    DATA     BYTE      ADCMPH
      000000CAH   SFRSYM    DATA     BYTE      RLDL
      00000080H.0 SFRSYM    DATA     BIT       P00
      00000090H.0 SFRSYM    DATA     BIT       P10
      00000080H.1 SFRSYM    DATA     BIT       P01
      000000F7H   SFRSYM    DATA     BYTE      I2CMTP
      00000099H   SFRSYM    DATA     BYTE      SBUF
      00000087H   SFRSYM    DATA     BYTE      PCON
      000000A0H.0 SFRSYM    DATA     BIT       P20
      00000090H.1 SFRSYM    DATA     BIT       P11
      00000080H.2 SFRSYM    DATA     BIT       P02
      000000F5H   SFRSYM    DATA     BYTE      I2CMSR
      000000B0H.0 SFRSYM    DATA     BIT       P30
      000000A0H.1 SFRSYM    DATA     BIT       P21
      00000090H.2 SFRSYM    DATA     BIT       P12
      00000080H.3 SFRSYM    DATA     BIT       P03
      000000D4H   SFRSYM    DATA     BYTE      ADCMPL
      000000B0H.1 SFRSYM    DATA     BIT       P31
      000000A0H.2 SFRSYM    DATA     BIT       P22
      00000090H.3 SFRSYM    DATA     BIT       P13
      00000080H.4 SFRSYM    DATA     BIT       P04
      000000B0H.2 SFRSYM    DATA     BIT       P32
      000000A0H.3 SFRSYM    DATA     BIT       P23
      00000090H.4 SFRSYM    DATA     BIT       P14
      00000080H.5 SFRSYM    DATA     BIT       P05
      00000089H   SFRSYM    DATA     BYTE      TMOD
      00000088H   SFRSYM    DATA     BYTE      TCON
      000000B0H.3 SFRSYM    DATA     BIT       P33
      000000A0H.4 SFRSYM    DATA     BIT       P24
      00000090H.5 SFRSYM    DATA     BIT       P15
      00000080H.6 SFRSYM    DATA     BIT       P06
      000000B0H.4 SFRSYM    DATA     BIT       P34
      000000A0H.5 SFRSYM    DATA     BIT       P25
LX51 LINKER/LOCATER V4.66.97.0                                                        11/15/2024  17:07:44  PAGE 101


      00000090H.6 SFRSYM    DATA     BIT       P16
      00000080H.7 SFRSYM    DATA     BIT       P07
      000000B0H.5 SFRSYM    DATA     BIT       P35
      000000A0H.6 SFRSYM    DATA     BIT       P26
      00000090H.7 SFRSYM    DATA     BIT       P17
      000000F2H   SFRSYM    DATA     BYTE      I2CSSR
      000000B0H.6 SFRSYM    DATA     BIT       P36
      000000A0H.7 SFRSYM    DATA     BIT       P27
      000000ECH   SFRSYM    DATA     BYTE      SPCR
      000000DDH   SFRSYM    DATA     BYTE      ADRESH
      000000B0H.7 SFRSYM    DATA     BIT       P37
      000000EEH   SFRSYM    DATA     BYTE      SPDR
      000000EFH   SFRSYM    DATA     BYTE      SSCR
      000000D3H   SFRSYM    DATA     BYTE      ADDLYL
      000000DCH   SFRSYM    DATA     BYTE      ADRESL
      00000088H.1 SFRSYM    DATA     BIT       IE0
      00000088H.3 SFRSYM    DATA     BIT       IE1
      0000008FH   SFRSYM    DATA     BYTE      CLKDIV
      000000F0H   SFRSYM    DATA     BYTE      B
      00000091H   SFRSYM    DATA     BYTE      FUNCCR
      0000009AH   SFRSYM    DATA     BYTE      P0TRIS
      000000A1H   SFRSYM    DATA     BYTE      P1TRIS
      000000A2H   SFRSYM    DATA     BYTE      P2TRIS
      000000E0H   SFRSYM    DATA     BYTE      ACC
      000000A3H   SFRSYM    DATA     BYTE      P3TRIS
      000000A8H.4 SFRSYM    DATA     BIT       ES0
      000000A8H.6 SFRSYM    DATA     BIT       ES1
      000000A8H.1 SFRSYM    DATA     BIT       ET0
      000000EDH   SFRSYM    DATA     BYTE      SPSR
      000000A8H.3 SFRSYM    DATA     BIT       ET1
      00000088H.5 SFRSYM    DATA     BIT       TF0
      000000A8H.5 SFRSYM    DATA     BIT       ET2
      00000098H.0 SFRSYM    DATA     BIT       RI0
      00000088H.7 SFRSYM    DATA     BIT       TF1
      0000008CH   SFRSYM    DATA     BYTE      TH0
      000000A8H.0 SFRSYM    DATA     BIT       EX0
      00000098H.1 SFRSYM    DATA     BIT       TI0
      00000088H.0 SFRSYM    DATA     BIT       IT0
      0000008DH   SFRSYM    DATA     BYTE      TH1
      000000A8H.2 SFRSYM    DATA     BIT       EX1
      00000088H.2 SFRSYM    DATA     BIT       IT1
      000000CDH   SFRSYM    DATA     BYTE      TH2
      000000D0H.0 SFRSYM    DATA     BIT       P
      000000DBH   SFRSYM    DATA     BYTE      TH3
      000000E3H   SFRSYM    DATA     BYTE      TH4
      0000008AH   SFRSYM    DATA     BYTE      TL0
      0000008BH   SFRSYM    DATA     BYTE      TL1
      00000098H.2 SFRSYM    DATA     BIT       U0RB8
      000000CCH   SFRSYM    DATA     BYTE      TL2
      000000B8H.4 SFRSYM    DATA     BIT       PS0
      000000DAH   SFRSYM    DATA     BYTE      TL3
      000000BFH   SFRSYM    DATA     BYTE      BUZCON
      000000B8H.6 SFRSYM    DATA     BIT       PS1
      000000B8H.1 SFRSYM    DATA     BIT       PT0
      00000098H.3 SFRSYM    DATA     BIT       U0TB8
      000000E2H   SFRSYM    DATA     BYTE      TL4
      000000D0H.3 SFRSYM    DATA     BIT       RS0
      000000B8H.3 SFRSYM    DATA     BIT       PT1
      000000D0H.4 SFRSYM    DATA     BIT       RS1
      000000B8H.5 SFRSYM    DATA     BIT       PT2
      00000098H.7 SFRSYM    DATA     BIT       U0SM0
      00000088H.4 SFRSYM    DATA     BIT       TR0
      000000BEH   SFRSYM    DATA     BYTE      BUZDIV
      00000098H.6 SFRSYM    DATA     BIT       U0SM1
      00000088H.6 SFRSYM    DATA     BIT       TR1
LX51 LINKER/LOCATER V4.66.97.0                                                        11/15/2024  17:07:44  PAGE 102


      000000B8H.0 SFRSYM    DATA     BIT       PX0
      00000098H.5 SFRSYM    DATA     BIT       U0SM2
      000000B8H.2 SFRSYM    DATA     BIT       PX1
      000000BDH   SFRSYM    DATA     BYTE      WUTCRH
      00000099H   SFRSYM    DATA     BYTE      SBUF0
      000000EBH   SFRSYM    DATA     BYTE      SBUF1
      000000BCH   SFRSYM    DATA     BYTE      WUTCRL
      00000098H   SFRSYM    DATA     BYTE      SCON0
      000000EAH   SFRSYM    DATA     BYTE      SCON1
      000000C8H   SFRSYM    DATA     BYTE      T2CON
      00000086H   SFRSYM    DATA     BYTE      DPS
      000000FEH   SFRSYM    DATA     BYTE      MDATA
      000000F6H   SFRSYM    DATA     BYTE      I2CMBUF
      000000F1H   SFRSYM    DATA     BYTE      I2CSADR
      00000098H.4 SFRSYM    DATA     BIT       U0REN
      000000C8H.5 SFRSYM    DATA     BIT       CAPES
      000000FDH   SFRSYM    DATA     BYTE      MADRH
      0000008EH   SFRSYM    DATA     BYTE      CKCON
      000000F3H   SFRSYM    DATA     BYTE      I2CSBUF
      000000FCH   SFRSYM    DATA     BYTE      MADRL
      000000D0H.5 SFRSYM    DATA     BIT       F0
      000000FBH   SFRSYM    DATA     BYTE      MLOCK
      000000D0H   SFRSYM    DATA     BYTE      PSW
      00000097H   SFRSYM    DATA     BYTE      WDCON
      0100204BH   SYMBOL    CODE     ---       _PEC8Check

      010036B3H   BLOCK     CODE     ---       LVL=0
      ---         BLOCKEND  ---      ---       LVL=0

      0100204BH   BLOCK     CODE     ---       LVL=0
      00000036H   SYMBOL    DATA     ---       DIN
      00000039H   SYMBOL    DATA     LONG      Len
      01002059H   BLOCK     CODE     NEAR LAB  LVL=1
      0000003DH   SYMBOL    DATA     BYTE      crcbuf
      0000003EH   SYMBOL    DATA     LONG      i
      00000042H   SYMBOL    DATA     LONG      ptr
      ---         BLOCKEND  ---      ---       LVL=1
      0100204BH   LINE      CODE     ---       #12
      01002059H   LINE      CODE     ---       #13
      01002059H   LINE      CODE     ---       #14
      0100205CH   LINE      CODE     ---       #15
      01002064H   LINE      CODE     ---       #16
      0100207AH   LINE      CODE     ---       #17
      0100207AH   LINE      CODE     ---       #19
      0100208BH   LINE      CODE     ---       #21
      0100209DH   LINE      CODE     ---       #22
      0100209DH   LINE      CODE     ---       #23
      010020AAH   LINE      CODE     ---       #24
      010020B0H   LINE      CODE     ---       #25
      010020CAH   LINE      CODE     ---       #27
      010020E3H   LINE      CODE     ---       #28
      010020FBH   LINE      CODE     ---       #29
      010020FEH   LINE      CODE     ---       #31
      01002133H   LINE      CODE     ---       #33
      01002135H   LINE      CODE     ---       #34
      ---         BLOCKEND  ---      ---       LVL=0

      010032C7H   BLOCK     CODE     ---       LVL=0
      010032C7H   BLOCK     CODE     NEAR LAB  LVL=1
      00000023H   SYMBOL    DATA     INT       i
      00000025H   SYMBOL    DATA     ---       ROMData
      ---         BLOCKEND  ---      ---       LVL=1
      010032C7H   LINE      CODE     ---       #37
      010032C7H   LINE      CODE     ---       #38
      010032C7H   LINE      CODE     ---       #43
LX51 LINKER/LOCATER V4.66.97.0                                                        11/15/2024  17:07:44  PAGE 103


      010032CCH   LINE      CODE     ---       #44
      010032F5H   LINE      CODE     ---       #45
      010032FAH   LINE      CODE     ---       #47
      01003308H   LINE      CODE     ---       #48
      01003308H   LINE      CODE     ---       #50
      0100330EH   LINE      CODE     ---       #51
      01003314H   LINE      CODE     ---       #52
      0100331CH   LINE      CODE     ---       #53
      0100331DH   LINE      CODE     ---       #56
      0100331DH   LINE      CODE     ---       #57
      01003322H   LINE      CODE     ---       #58
      01003325H   LINE      CODE     ---       #59
      01003327H   LINE      CODE     ---       #60
      0100332CH   LINE      CODE     ---       #61
      0100332CH   LINE      CODE     ---       #62
      ---         BLOCKEND  ---      ---       LVL=0

      0100399EH   BLOCK     CODE     ---       LVL=0
      0100399EH   BLOCK     CODE     NEAR LAB  LVL=1
      00000006H   SYMBOL    DATA     INT       i
      ---         BLOCKEND  ---      ---       LVL=1
      0100399EH   LINE      CODE     ---       #65
      0100399EH   LINE      CODE     ---       #66
      0100399EH   LINE      CODE     ---       #69
      010039A4H   LINE      CODE     ---       #70
      010039B1H   LINE      CODE     ---       #71
      010039C9H   LINE      CODE     ---       #72
      ---         BLOCKEND  ---      ---       LVL=0

      01002FB1H   BLOCK     CODE     ---       LVL=0
      00000021H.1 SYMBOL    BIT      BIT       IsForceSave
      01002FB1H   BLOCK     CODE     NEAR LAB  LVL=1
      0000002AH   SYMBOL    DATA     INT       i
      0000002CH   SYMBOL    DATA     ---       ROMData
      00000031H   SYMBOL    DATA     ---       SavedData
      ---         BLOCKEND  ---      ---       LVL=1
      01002FB1H   LINE      CODE     ---       #75
      01002FB1H   LINE      CODE     ---       #76
      01002FB1H   LINE      CODE     ---       #80
      01002FB6H   LINE      CODE     ---       #81
      01002FD5H   LINE      CODE     ---       #83
      01002FDBH   LINE      CODE     ---       #84
      01002FE1H   LINE      CODE     ---       #85
      01002FEAH   LINE      CODE     ---       #86
      01002FF6H   LINE      CODE     ---       #88
      01002FFEH   LINE      CODE     ---       #89
      01002FFEH   LINE      CODE     ---       #90
      01003000H   LINE      CODE     ---       #92
      01003000H   LINE      CODE     ---       #94
      0100300EH   LINE      CODE     ---       #95
      0100302AH   LINE      CODE     ---       #96
      0100302FH   LINE      CODE     ---       #97
      ---         BLOCKEND  ---      ---       LVL=0

      ---         MODULE    ---      ---       SELFTEST
      02000053H   PUBLIC    XDATA    CHAR      InputDetectTIM
      0200004FH   PUBLIC    XDATA    FLOAT     VBattBeforeTurbo
      010023DDH   PUBLIC    CODE     ---       OutputFaultDetect
      01003030H   PUBLIC    CODE     ---       DisplayErrorIDHandler
      01003630H   PUBLIC    CODE     ---       DisplayErrorTIMHandler
      01003CB4H   PUBLIC    CODE     ---       _ReportError
      0200004DH   SYMBOL    XDATA    INT       ErrDisplayIndex
      02000054H   SYMBOL    XDATA    CHAR      ShortDetectTIM

      01003AE6H   BLOCK     CODE     ---       LVL=0
LX51 LINKER/LOCATER V4.66.97.0                                                        11/15/2024  17:07:44  PAGE 104


      ---         BLOCKEND  ---      ---       LVL=0

      01003CB4H   BLOCK     CODE     ---       LVL=0
      00000007H   SYMBOL    DATA     BYTE      Code
      01003CB4H   LINE      CODE     ---       #15
      01003CB4H   LINE      CODE     ---       #16
      01003CB4H   LINE      CODE     ---       #17
      01003CB9H   LINE      CODE     ---       #18
      01003CC5H   LINE      CODE     ---       #19
      ---         BLOCKEND  ---      ---       LVL=0

      01003630H   BLOCK     CODE     ---       LVL=0
      01003630H   LINE      CODE     ---       #22
      01003630H   LINE      CODE     ---       #23
      01003630H   LINE      CODE     ---       #25
      0100363EH   LINE      CODE     ---       #27
      0100363EH   LINE      CODE     ---       #28
      0100364CH   LINE      CODE     ---       #29
      01003671H   LINE      CODE     ---       #30
      01003671H   LINE      CODE     ---       #31
      ---         BLOCKEND  ---      ---       LVL=0

      01003030H   BLOCK     CODE     ---       LVL=0
      01003030H   BLOCK     CODE     NEAR LAB  LVL=1
      00000006H   SYMBOL    DATA     INT       buf
      ---         BLOCKEND  ---      ---       LVL=1
      01003030H   LINE      CODE     ---       #34
      01003030H   LINE      CODE     ---       #35
      01003030H   LINE      CODE     ---       #38
      01003050H   LINE      CODE     ---       #39
      01003050H   LINE      CODE     ---       #40
      01003054H   LINE      CODE     ---       #41
      01003058H   LINE      CODE     ---       #42
      0100305AH   LINE      CODE     ---       #43
      0100305AH   LINE      CODE     ---       #44
      0100305CH   LINE      CODE     ---       #45
      01003085H   LINE      CODE     ---       #46
      01003085H   LINE      CODE     ---       #47
      01003094H   LINE      CODE     ---       #48
      010030A3H   LINE      CODE     ---       #49
      010030A3H   LINE      CODE     ---       #50
      010030A5H   LINE      CODE     ---       #51
      010030A8H   LINE      CODE     ---       #52
      ---         BLOCKEND  ---      ---       LVL=0

      010023DDH   BLOCK     CODE     ---       LVL=0
      010023DDH   BLOCK     CODE     NEAR LAB  LVL=1
      00000023H   SYMBOL    DATA     CHAR      buf
      ---         BLOCKEND  ---      ---       LVL=1
      010023DDH   LINE      CODE     ---       #55
      010023DDH   LINE      CODE     ---       #56
      010023DDH   LINE      CODE     ---       #58
      010023FCH   LINE      CODE     ---       #59
      01002410H   LINE      CODE     ---       #60
      01002410H   LINE      CODE     ---       #61
      01002418H   LINE      CODE     ---       #62
      01002422H   LINE      CODE     ---       #63
      01002422H   LINE      CODE     ---       #64
      01002432H   LINE      CODE     ---       #65
      01002439H   LINE      CODE     ---       #66
      0100243BH   LINE      CODE     ---       #67
      01002448H   LINE      CODE     ---       #68
      01002448H   LINE      CODE     ---       #69
      01002457H   LINE      CODE     ---       #70
      0100245EH   LINE      CODE     ---       #71
LX51 LINKER/LOCATER V4.66.97.0                                                        11/15/2024  17:07:44  PAGE 105


      01002460H   LINE      CODE     ---       #72
      0100247CH   LINE      CODE     ---       #74
      01002483H   LINE      CODE     ---       #75
      01002486H   LINE      CODE     ---       #77
      0100248BH   LINE      CODE     ---       #78
      0100249CH   LINE      CODE     ---       #79
      0100249CH   LINE      CODE     ---       #80
      ---         BLOCKEND  ---      ---       LVL=0

      ---         MODULE    ---      ---       TAILMEMORY
      01002AB0H   PUBLIC    CODE     ---       _TailMemory_Save
      01003392H   PUBLIC    CODE     ---       TailMemory_Recall

      01003C0CH   BLOCK     CODE     ---       LVL=0
      ---         BLOCKEND  ---      ---       LVL=0

      01003392H   BLOCK     CODE     ---       LVL=0
      01003392H   BLOCK     CODE     NEAR LAB  LVL=1
      00000023H   SYMBOL    DATA     INT       i
      00000025H   SYMBOL    DATA     CHAR      buf
      00000026H   SYMBOL    DATA     BYTE      ModeBuf
      ---         BLOCKEND  ---      ---       LVL=1
      01003392H   LINE      CODE     ---       #6
      01003392H   LINE      CODE     ---       #7
      01003392H   LINE      CODE     ---       #10
      01003395H   LINE      CODE     ---       #12
      0100339AH   LINE      CODE     ---       #13
      010033A0H   LINE      CODE     ---       #14
      010033A0H   LINE      CODE     ---       #15
      010033AFH   LINE      CODE     ---       #16
      010033BBH   LINE      CODE     ---       #17
      010033C0H   LINE      CODE     ---       #18
      010033D3H   LINE      CODE     ---       #19
      010033E7H   LINE      CODE     ---       #20
      010033ECH   LINE      CODE     ---       #21
      ---         BLOCKEND  ---      ---       LVL=0

      01002AB0H   BLOCK     CODE     ---       LVL=0
      0000002EH   SYMBOL    DATA     BYTE      Mode
      01002AB2H   BLOCK     CODE     NEAR LAB  LVL=1
      0000002FH   SYMBOL    DATA     INT       i
      00000031H   SYMBOL    DATA     CHAR      LastMode
      00000032H   SYMBOL    DATA     CHAR      buf
      ---         BLOCKEND  ---      ---       LVL=1
      01002AB0H   LINE      CODE     ---       #25
      01002AB2H   LINE      CODE     ---       #26
      01002AB2H   LINE      CODE     ---       #30
      01002ABAH   LINE      CODE     ---       #32
      01002ABFH   LINE      CODE     ---       #33
      01002AC5H   LINE      CODE     ---       #34
      01002AC5H   LINE      CODE     ---       #35
      01002ACAH   LINE      CODE     ---       #36
      01002AD6H   LINE      CODE     ---       #37
      01002ADBH   LINE      CODE     ---       #38
      01002AEEH   LINE      CODE     ---       #40
      01002B07H   LINE      CODE     ---       #41
      01002B0CH   LINE      CODE     ---       #42
      01002B0CH   LINE      CODE     ---       #43
      01002B0EH   LINE      CODE     ---       #45
      01002B0EH   LINE      CODE     ---       #47
      01002B18H   LINE      CODE     ---       #48
      01002B18H   LINE      CODE     ---       #49
      01002B1EH   LINE      CODE     ---       #50
      01002B23H   LINE      CODE     ---       #51
      01002B23H   LINE      CODE     ---       #53
LX51 LINKER/LOCATER V4.66.97.0                                                        11/15/2024  17:07:44  PAGE 106


      01002B28H   LINE      CODE     ---       #54
      01002B37H   LINE      CODE     ---       #55
      01002B3CH   LINE      CODE     ---       #56
      ---         BLOCKEND  ---      ---       LVL=0

      ---         MODULE    ---      ---       ?C?FPADD
      0100007DH   PUBLIC    CODE     ---       ?C?FPADD
      01000079H   PUBLIC    CODE     ---       ?C?FPSUB

      ---         MODULE    ---      ---       ?C?FPMUL
      0100016EH   PUBLIC    CODE     ---       ?C?FPMUL

      ---         MODULE    ---      ---       ?C?FPDIV
      01000277H   PUBLIC    CODE     ---       ?C?FPDIV

      ---         MODULE    ---      ---       ?C?FPCMP
      01000316H   PUBLIC    CODE     ---       ?C?FPCMP
      01000314H   PUBLIC    CODE     ---       ?C?FPCMP3

      ---         MODULE    ---      ---       ?C?FCAST
      01000397H   PUBLIC    CODE     ---       ?C?FCASTC
      01000392H   PUBLIC    CODE     ---       ?C?FCASTI
      0100038DH   PUBLIC    CODE     ---       ?C?FCASTL

      ---         MODULE    ---      ---       ?C?CASTF
      010003CBH   PUBLIC    CODE     ---       ?C?CASTF

      ---         MODULE    ---      ---       ?C?FPGETOPN
      01000402H   PUBLIC    CODE     ---       ?C?FPGETOPN2
      01000437H   PUBLIC    CODE     ---       ?C?FPNANRESULT
      01000441H   PUBLIC    CODE     ---       ?C?FPOVERFLOW
      01000419H   PUBLIC    CODE     ---       ?C?FPRESULT
      0100042DH   PUBLIC    CODE     ---       ?C?FPRESULT2
      0100043EH   PUBLIC    CODE     ---       ?C?FPUNDERFLOW

      ---         MODULE    ---      ---       ?C_INIT
      01002BA0H   PUBLIC    CODE     ---       ?C_START

      ---         MODULE    ---      ---       ?C?COPY
      0100051CH   PUBLIC    CODE     ---       ?C?COPY

      ---         MODULE    ---      ---       ?C?SCDIV
      01000542H   PUBLIC    CODE     ---       ?C?SCDIV

      ---         MODULE    ---      ---       ?C?CLDPTR
      01000564H   PUBLIC    CODE     ---       ?C?CLDPTR

      ---         MODULE    ---      ---       ?C?CLDOPTR
      0100057DH   PUBLIC    CODE     ---       ?C?CLDOPTR

      ---         MODULE    ---      ---       ?C?CSTPTR
      010005AAH   PUBLIC    CODE     ---       ?C?CSTPTR

      ---         MODULE    ---      ---       ?C?IMUL
      010005BCH   PUBLIC    CODE     ---       ?C?IMUL

      ---         MODULE    ---      ---       ?C?SIDIV
      010005CEH   PUBLIC    CODE     ---       ?C?SIDIV

      ---         MODULE    ---      ---       ?C?ILDOPTR
      01000604H   PUBLIC    CODE     ---       ?C?ILDOPTR

      ---         MODULE    ---      ---       ?C?ISTPTR
      0100063CH   PUBLIC    CODE     ---       ?C?ISTPTR

LX51 LINKER/LOCATER V4.66.97.0                                                        11/15/2024  17:07:44  PAGE 107


      ---         MODULE    ---      ---       ?C?LMUL
      0100065BH   PUBLIC    CODE     ---       ?C?LMUL

      ---         MODULE    ---      ---       ?C?ULDIV
      010006E6H   PUBLIC    CODE     ---       ?C?ULDIV

      ---         MODULE    ---      ---       ?C?SLDIV
      010035ECH   PUBLIC    CODE     ---       ?C?SLDIV

      ---         MODULE    ---      ---       ?C?LNEG
      01000778H   PUBLIC    CODE     ---       ?C?LNEG

      ---         MODULE    ---      ---       ?C?SLCMP
      01000786H   PUBLIC    CODE     ---       ?C?SLCMP

      ---         MODULE    ---      ---       ?C?ULCMP
      0100079CH   PUBLIC    CODE     ---       ?C?ULCMP

      ---         MODULE    ---      ---       ?C?ULSHR
      010007ADH   PUBLIC    CODE     ---       ?C?ULSHR

      ---         MODULE    ---      ---       ?C?LLDCODE
      010007C0H   PUBLIC    CODE     ---       ?C?LLDCODE

      ---         MODULE    ---      ---       ?C?LSTXDATA
      010007D0H   PUBLIC    CODE     ---       ?C?LSTXDATA

      ---         MODULE    ---      ---       ?C?LSTKXDATA
      010007DCH   PUBLIC    CODE     ---       ?C?LSTKXDATA

      ---         MODULE    ---      ---       ?C?OFFXADD
      0100080DH   PUBLIC    CODE     ---       ?C?OFFXADD

      ---         MODULE    ---      ---       ?C?UIDIV
      01000819H   PUBLIC    CODE     ---       ?C?UIDIV

Program Size: data=99.0 xdata=99 const=620 code=15675
LX51 RUN COMPLETE.  0 WARNING(S),  0 ERROR(S)
