LX51 LINKER/LOCATER V4.66.97.0                                                          11/09/2024  20:20:28  PAGE 1


LX51 LINKER/LOCATER V4.66.97.0, INVOKED BY:
C:\KEIL_V5\C51\BIN\LX51.EXE .\Objects\STARTUP_CMS8S6990.obj, .\Objects\main.obj, .\Objects\gpio.obj, .\Objects\ADCCfg.ob
>> j, .\Objects\delay.obj, .\Objects\NTC.obj, .\Objects\SideKey.obj, .\Objects\LEDMgmt.obj, .\Objects\PWM.obj, .\Objects
>> \OutputChannel.obj, .\Objects\Watchdog.obj, .\Objects\BattVoltDisplay.obj, .\Objects\TempControl.obj, .\Objects\Sleep
>> .obj, .\Objects\ModeControl.obj, .\Objects\RampConfig.obj, .\Objects\SelfTest.obj TO .\Objects\XRLite PRINT (.\Listin
>> gs\XRLite.map)


CPU MODE:     8051 MODE
MEMORY MODEL: SMALL WITH FLOATING POINT ARITHMETIC


INPUT MODULES INCLUDED:
  .\Objects\STARTUP_CMS8S6990.obj (?C_STARTUP)
         COMMENT TYPE 0: AX51 V3.15.3.0
  .\Objects\main.obj (MAIN)
         COMMENT TYPE 0: C51 V9.60.0.0
  .\Objects\gpio.obj (GPIO)
         COMMENT TYPE 0: C51 V9.60.0.0
  .\Objects\ADCCfg.obj (ADCCFG)
         COMMENT TYPE 0: C51 V9.60.0.0
  .\Objects\delay.obj (DELAY)
         COMMENT TYPE 0: C51 V9.60.0.0
  .\Objects\NTC.obj (NTC)
         COMMENT TYPE 0: C51 V9.60.0.0
  .\Objects\SideKey.obj (SIDEKEY)
         COMMENT TYPE 0: C51 V9.60.0.0
  .\Objects\LEDMgmt.obj (LEDMGMT)
         COMMENT TYPE 0: C51 V9.60.0.0
  .\Objects\PWM.obj (PWM)
         COMMENT TYPE 0: C51 V9.60.0.0
  .\Objects\OutputChannel.obj (OUTPUTCHANNEL)
         COMMENT TYPE 0: C51 V9.60.0.0
  .\Objects\Watchdog.obj (WATCHDOG)
         COMMENT TYPE 0: C51 V9.60.0.0
  .\Objects\BattVoltDisplay.obj (BATTVOLTDISPLAY)
         COMMENT TYPE 0: C51 V9.60.0.0
  .\Objects\TempControl.obj (TEMPCONTROL)
         COMMENT TYPE 0: C51 V9.60.0.0
  .\Objects\Sleep.obj (SLEEP)
         COMMENT TYPE 0: C51 V9.60.0.0
  .\Objects\ModeControl.obj (MODECONTROL)
         COMMENT TYPE 0: C51 V9.60.0.0
  .\Objects\RampConfig.obj (RAMPCONFIG)
         COMMENT TYPE 0: C51 V9.60.0.0
  .\Objects\SelfTest.obj (SELFTEST)
         COMMENT TYPE 0: C51 V9.60.0.0
  C:\KEIL_V5\C51\LIB\C51FPS.LIB (?C?FPADD)
         COMMENT TYPE 1: A51 / ASM51 Assembler
  C:\KEIL_V5\C51\LIB\C51FPS.LIB (?C?FPMUL)
         COMMENT TYPE 1: A51 / ASM51 Assembler
  C:\KEIL_V5\C51\LIB\C51FPS.LIB (?C?FPDIV)
         COMMENT TYPE 1: A51 / ASM51 Assembler
  C:\KEIL_V5\C51\LIB\C51FPS.LIB (?C?FPCMP)
         COMMENT TYPE 1: A51 / ASM51 Assembler
  C:\KEIL_V5\C51\LIB\C51FPS.LIB (?C?FCAST)
         COMMENT TYPE 1: A51 / ASM51 Assembler
  C:\KEIL_V5\C51\LIB\C51FPS.LIB (?C?CASTF)
         COMMENT TYPE 1: A51 / ASM51 Assembler
  C:\KEIL_V5\C51\LIB\C51FPS.LIB (?C?FPGETOPN)
         COMMENT TYPE 1: A51 / ASM51 Assembler
  C:\KEIL_V5\C51\LIB\C51S.LIB (?C_INIT)
         COMMENT TYPE 1: A51 / ASM51 Assembler
  C:\KEIL_V5\C51\LIB\C51S.LIB (?C?COPY)
         COMMENT TYPE 1: A51 / ASM51 Assembler
  C:\KEIL_V5\C51\LIB\C51S.LIB (?C?SCDIV)
LX51 LINKER/LOCATER V4.66.97.0                                                        11/09/2024  20:20:28  PAGE 2


         COMMENT TYPE 1: A51 / ASM51 Assembler
  C:\KEIL_V5\C51\LIB\C51S.LIB (?C?CLDPTR)
         COMMENT TYPE 1: A51 / ASM51 Assembler
  C:\KEIL_V5\C51\LIB\C51S.LIB (?C?CLDOPTR)
         COMMENT TYPE 1: A51 / ASM51 Assembler
  C:\KEIL_V5\C51\LIB\C51S.LIB (?C?CSTPTR)
         COMMENT TYPE 1: A51 / ASM51 Assembler
  C:\KEIL_V5\C51\LIB\C51S.LIB (?C?IMUL)
         COMMENT TYPE 1: A51 / ASM51 Assembler
  C:\KEIL_V5\C51\LIB\C51S.LIB (?C?SIDIV)
         COMMENT TYPE 1: A51 / ASM51 Assembler
  C:\KEIL_V5\C51\LIB\C51S.LIB (?C?ILDOPTR)
         COMMENT TYPE 1: A51 / ASM51 Assembler
  C:\KEIL_V5\C51\LIB\C51S.LIB (?C?ISTPTR)
         COMMENT TYPE 1: A51 / ASM51 Assembler
  C:\KEIL_V5\C51\LIB\C51S.LIB (?C?LMUL)
         COMMENT TYPE 1: A51 / ASM51 Assembler
  C:\KEIL_V5\C51\LIB\C51S.LIB (?C?ULDIV)
         COMMENT TYPE 1: A51 / ASM51 Assembler
  C:\KEIL_V5\C51\LIB\C51S.LIB (?C?SLDIV)
         COMMENT TYPE 1: A51 / ASM51 Assembler
  C:\KEIL_V5\C51\LIB\C51S.LIB (?C?LNEG)
         COMMENT TYPE 1: A51 / ASM51 Assembler
  C:\KEIL_V5\C51\LIB\C51S.LIB (?C?SLCMP)
         COMMENT TYPE 1: A51 / ASM51 Assembler
  C:\KEIL_V5\C51\LIB\C51S.LIB (?C?ULCMP)
         COMMENT TYPE 1: A51 / ASM51 Assembler
  C:\KEIL_V5\C51\LIB\C51S.LIB (?C?ULSHR)
         COMMENT TYPE 1: A51 / ASM51 Assembler
  C:\KEIL_V5\C51\LIB\C51S.LIB (?C?LLDCODE)
         COMMENT TYPE 1: A51 / ASM51 Assembler
  C:\KEIL_V5\C51\LIB\C51S.LIB (?C?LSTXDATA)
         COMMENT TYPE 1: A51 / ASM51 Assembler
  C:\KEIL_V5\C51\LIB\C51S.LIB (?C?LSTKXDATA)
         COMMENT TYPE 1: A51 / ASM51 Assembler
  C:\KEIL_V5\C51\LIB\C51S.LIB (?C?OFFXADD)
         COMMENT TYPE 1: A51 / ASM51 Assembler
  C:\KEIL_V5\C51\LIB\C51S.LIB (?C?UIDIV)
         COMMENT TYPE 1: A51 / ASM51 Assembler


ACTIVE MEMORY CLASSES OF MODULE:  .\Objects\XRLite (?C_STARTUP)

BASE        START       END         USED      MEMORY CLASS
==========================================================
C:000000H   C:000000H   C:00FFFFH   003948H   CODE
I:000000H   I:000000H   I:0000FFH   000001H   IDATA
I:000000H   I:000000H   I:00007FH   000061H   DATA
I:000020H.0 I:000020H.0 I:00002FH.7 000002H.4 BIT
C:000000H   C:000000H   C:00FFFFH   000286H   CONST
X:000000H   X:000000H   X:00FFFFH   000058H   XDATA


MEMORY MAP OF MODULE:  .\Objects\XRLite (?C_STARTUP)


START     STOP      LENGTH    ALIGN  RELOC    MEMORY CLASS   SEGMENT NAME
=========================================================================

* * * * * * * * * * *   D A T A   M E M O R Y   * * * * * * * * * * * * *
000000H   000007H   000008H   ---    AT..     DATA           "REG BANK 0"
000008H   00001AH   000013H   BYTE   UNIT     DATA           ?DT?ADCCFG
00001BH   00001EH   000004H   BYTE   UNIT     DATA           ?DT?TEMPCONTROL
00001FH   00001FH   000001H   BYTE   UNIT     DATA           ?DT?DELAY
000020H.0 000020H.4 000000H.5 BIT    UNIT     BIT            ?BI?MODECONTROL
LX51 LINKER/LOCATER V4.66.97.0                                                        11/09/2024  20:20:28  PAGE 3


000020H.5 000020H.7 000000H.3 BIT    UNIT     BIT            ?BI?DELAY
000021H.0 000021H.2 000000H.3 BIT    UNIT     BIT            ?BI?PWM
000021H.3 000021H.5 000000H.3 BIT    UNIT     BIT            ?BI?TEMPCONTROL
000021H.6 000021H.7 000000H.2 BIT    UNIT     BIT            ?BI?BATTVOLTDISPLAY
000022H.0 000022H.1 000000H.2 BIT    UNIT     BIT            _BIT_GROUP_
000022H.2 000022H.2 000000H.1 BIT    UNIT     BIT            ?BI?SIDEKEY
000022H.3 000022H.3 000000H.1 BIT    UNIT     BIT            ?BI?SLEEP
000022H.4 000022H   000000H.4 ---    ---      **GAP**
000023H   00004FH   00002DH   BYTE   UNIT     DATA           _DATA_GROUP_
000050H   000058H   000009H   BYTE   UNIT     DATA           ?DT?SIDEKEY
000059H   00005FH   000007H   BYTE   UNIT     DATA           ?DT?MODECONTROL
000060H   000061H   000002H   BYTE   UNIT     DATA           ?DT?LEDMGMT
000062H   000062H   000001H   BYTE   UNIT     DATA           ?DT?WDOG_INIT?WATCHDOG
000063H   000063H   000001H   BYTE   UNIT     DATA           ?DT?GETIFWDOGCAUSERST?WATCHDOG
000064H   000064H   000001H   BYTE   UNIT     IDATA          ?STACK

* * * * * * * * * * *   C O D E   M E M O R Y   * * * * * * * * * * * * *
000000H   000002H   000003H   ---    OFFS..   CODE           ?CO?STARTUP_CMS8S6990?3
000003H   00000AH   000008H   BYTE   UNIT     CODE           ?PR?SIDEKEY
00000BH   00000DH   000003H   BYTE   OFFS..   CODE           ?DELAY?0000B
00000EH   000029H   00001CH   BYTE   UNIT     CODE           ?PR?WDOG_INIT?WATCHDOG
00002AH   00002AH   000001H   ---    ---      **GAP**
00002BH   00002DH   000003H   BYTE   OFFS..   CODE           ?DELAY?0002B
00002EH   000048H   00001BH   BYTE   UNIT     CODE           ?PR?PWM_DEINIT?PWM
000049H   00004AH   000002H   ---    ---      **GAP**
00004BH   00004DH   000003H   BYTE   OFFS..   CODE           ?MAIN?0004B
00004EH   000845H   0007F8H   BYTE   UNIT     CODE           ?C?LIB_CODE
000846H   000CDCH   000497H   BYTE   UNIT     CODE           ?PR?MODESWITCHFSM?MODECONTROL
000CDDH   000FA9H   0002CDH   BYTE   UNIT     CODE           ?PR?_GPIO_CONFIGGPIOMODE?GPIO
000FAAH   0011FBH   000252H   BYTE   UNIT     CODE           ?PR?BATTERYTELEMHANDLER?BATTVOLTDISPLAY
0011FCH   00143DH   000242H   BYTE   UNIT     CODE           ?PR?OUTPUTCHANNEL_TESTRUN?OUTPUTCHANNEL
00143EH   00162EH   0001F1H   BYTE   UNIT     CODE           ?PR?BATVSHOWFSM?BATTVOLTDISPLAY
00162FH   0017B0H   000182H   BYTE   UNIT     CODE           ?PR?THERMALCALCPROCESS?TEMPCONTROL
0017B1H   001925H   000175H   BYTE   UNIT     CODE           ?PR?_ADC_WRITEOUTPUTBUF?ADCCFG
001926H   001A3BH   000116H   BYTE   UNIT     CODE           ?PR?BATTVOLTDISPLAY
001A3CH   001B44H   000109H   BYTE   UNIT     CODE           ?PR?LEDCONTROLHANDLER?LEDMGMT
001B45H   001C4BH   000107H   BYTE   UNIT     CODE           ?PR?ADCENGINEHANDLER?ADCCFG
001C4CH   001D48H   0000FDH   BYTE   UNIT     CODE           ?PR?_THERMALILIMCALC?TEMPCONTROL
001D49H   001E33H   0000EBH   BYTE   UNIT     CODE           ?PR?_PEC8CHECK?RAMPCONFIG
001E34H   001F12H   0000DFH   BYTE   UNIT     CODE           ?PR?_CALCNTCTEMP?NTC
001F13H   001FD4H   0000C2H   BYTE   UNIT     CODE           ?PR?SAVERAMPCONFIG?RAMPCONFIG
001FD5H   002093H   0000BFH   BYTE   UNIT     CODE           ?PR?MODECONTROL
002094H   00214CH   0000B9H   BYTE   UNIT     CODE           ?PR?SOSFSM?MODECONTROL
00214DH   002202H   0000B6H   BYTE   UNIT     CODE           ?PR?_DELAY_MS?DELAY
002203H   0022B7H   0000B5H   BYTE   UNIT     CODE           ?PR?OUTPUTFAULTDETECT?SELFTEST
0022B8H   00236BH   0000B4H   BYTE   UNIT     CODE           ?PR?_GPIO_WRITEBIT?GPIO
00236CH   00241FH   0000B4H   BYTE   UNIT     CODE           ?PR?PWM_OUTPUTCTRLHANDLER?PWM
002420H   0024CCH   0000ADH   BYTE   UNIT     CODE           ?PR?GPIO
0024CDH   002579H   0000ADH   BYTE   UNIT     CODE           ?PR?ADC_DEINIT?ADCCFG
00257AH   002625H   0000ACH   BYTE   UNIT     CODE           ?PR?OUTPUTCHANNEL_CALC?OUTPUTCHANNEL
002626H   0026CEH   0000A9H   BYTE   UNIT     CODE           ?PR?_ADC_READBACKRESULT?ADCCFG
0026CFH   002772H   0000A4H   BYTE   UNIT     CODE           ?PR?OUTPUTCHANNEL
002773H   002810H   00009EH   BYTE   UNIT     CODE           ?PR?ADC_INIT?ADCCFG
002811H   0028AEH   00009EH   BYTE   UNIT     CODE           ?PR?SIDEKEY_LOGICHANDLER?SIDEKEY
0028AFH   00294BH   00009DH   BYTE   UNIT     CODE           ?PR?_DUTY_CALC?OUTPUTCHANNEL
00294CH   0029E7H   00009CH   BYTE   UNIT     CODE           ?PR?READRAMPCONFIG?RAMPCONFIG
0029E8H   002A81H   00009AH   BYTE   UNIT     CODE           ?C_C51STARTUP
002A82H   002B14H   000093H   BYTE   UNIT     CODE           ?PR?_GPIO_GETEXTINTMODE?GPIO
002B15H   002BA0H   00008CH   BYTE   UNIT     CODE           ?PR?SLEEPMGMT?SLEEP
002BA1H   002C27H   000087H   BYTE   UNIT     CODE           ?PR?PWM_INIT?PWM
002C28H   002CABH   000084H   BYTE   UNIT     CODE           ?PR?RAMPADJHANDLER?MODECONTROL
002CACH   002D24H   000079H   BYTE   UNIT     CODE           ?PR?DISPLAYERRORIDHANDLER?SELFTEST
002D25H   002D98H   000074H   BYTE   UNIT     CODE           ?PR?_SWITCHTOGEAR?MODECONTROL
002D99H   002E0CH   000074H   BYTE   UNIT     CODE           ?PR?HOLDSWITCHGEARCMDHANDLER?MODECONTROL
002E0DH   002E7EH   000072H   BYTE   UNIT     CODE           ?PR?_GPIO_SETMUXMODE?GPIO
LX51 LINKER/LOCATER V4.66.97.0                                                        11/09/2024  20:20:28  PAGE 4


002E7FH   002EE9H   00006BH   BYTE   UNIT     CODE           ?PR?DISPLAYVBATTATSTART?BATTVOLTDISPLAY
002EEAH   002F51H   000068H   BYTE   UNIT     CODE           ?PR?MAIN?MAIN
002F52H   002FB8H   000067H   BYTE   UNIT     CODE           ?PR?SIDEKEY_INT_CALLBACK?SIDEKEY
002FB9H   003019H   000061H   BYTE   UNIT     CODE           ?PR?_BATTERYLOWALERTPROCESS?MODECONTROL
00301AH   003077H   00005EH   BYTE   UNIT     CODE           ?PR?ADCCFG
003078H   0030D2H   00005BH   BYTE   UNIT     CODE           ?PR?_GPIO_SETEXTINTMODE?GPIO
0030D3H   00312DH   00005BH   BYTE   UNIT     CODE           ?PR?MODEFSMTIMHANDLER?MODECONTROL
00312EH   003188H   00005BH   BYTE   UNIT     CODE           ?PR?INPUTFAULTDETECT?SELFTEST
003189H   0031DCH   000054H   BYTE   UNIT     CODE           ?PR?_GPIO_GETINTFLAG?GPIO
0031DDH   00322BH   00004FH   BYTE   UNIT     CODE           ?PR?_ADC_SUBMITMISSON?ADCCFG
00322CH   003277H   00004CH   BYTE   UNIT     CODE           ?PR?KEY_IRQHANDLER?MAIN
003278H   0032C2H   00004BH   BYTE   UNIT     CODE           ?PR?TIMER2_IRQHANDLER?DELAY
0032C3H   00330AH   000048H   BYTE   UNIT     CODE           ?PR?_GPIO_CLEARINTFLAG?GPIO
00330BH   003351H   000047H   BYTE   UNIT     CODE           ?PR?SIDEKEYINIT?SIDEKEY
003352H   003395H   000044H   BYTE   UNIT     CODE           ?C?LDIV
003396H   0033D7H   000042H   BYTE   UNIT     CODE           ?PR?DISPLAYERRORTIMHANDLER?SELFTEST
0033D8H   003418H   000041H   BYTE   UNIT     CODE           ?PR?MOONCONFIGHANDLER?MODECONTROL
003419H   003457H   00003FH   BYTE   UNIT     CODE           ?PR?_DELAY_US?DELAY
003458H   003496H   00003FH   BYTE   UNIT     CODE           ?C_INITSEG
003497H   0034D2H   00003CH   BYTE   UNIT     CODE           ?PR?BATTDISPLAYTIM?BATTVOLTDISPLAY
0034D3H   00350EH   00003CH   BYTE   UNIT     CODE           ?PR?RESTORETOMINIMUMRAMPCURRENT?RAMPCONFIG
00350FH   003548H   00003AH   BYTE   UNIT     CODE           ?PR?OUTPUTCHANNEL_INIT?OUTPUTCHANNEL
003549H   00357AH   000032H   BYTE   UNIT     CODE           ?PR?SIDEKEY_TIM_CALLBACK?SIDEKEY
00357BH   0035A9H   00002FH   BYTE   UNIT     CODE           ?PR?_PRESENTLIM?TEMPCONTROL
0035AAH   0035D7H   00002EH   BYTE   UNIT     CODE           ?PR?RAMPCONFIG
0035D8H   003603H   00002CH   BYTE   UNIT     CODE           ?PR?_GPIO_CHECKIFINTENABLED?GPIO
003604H   00362EH   00002BH   BYTE   UNIT     CODE           ?PR?TEMPCONTROL
00362FH   003659H   00002BH   BYTE   UNIT     CODE           ?PR?SELFTEST
00365AH   003683H   00002AH   BYTE   UNIT     CODE           ?PR?PWM_FORCESETDUTY?PWM
003684H   0036ACH   000029H   BYTE   UNIT     CODE           ?PR?_MAKEFASTSTROBE?LEDMGMT
0036ADH   0036D5H   000029H   BYTE   UNIT     CODE           ?PR?SYSTEMPERIPHERALCTRL?SLEEP
0036D6H   0036FDH   000028H   BYTE   UNIT     CODE           ?PR?LED_INIT?LEDMGMT
0036FEH   003724H   000027H   BYTE   UNIT     CODE           ?PR?SETSYSTEMHBTIMER?DELAY
003725H   003747H   000023H   BYTE   UNIT     CODE           ?PR?CHECKIFHBTIMISREADY?DELAY
003748H   003769H   000022H   BYTE   UNIT     CODE           ?PR?_GPIO_DISABLEINT?GPIO
00376AH   00378BH   000022H   BYTE   UNIT     CODE           ?PR?NTC
00378CH   0037ADH   000022H   BYTE   UNIT     CODE           ?PR?MODEFSMINIT?MODECONTROL
0037AEH   0037CEH   000021H   BYTE   UNIT     CODE           ?PR?CHECKNTCSTATUS?TEMPCONTROL
0037CFH   0037EEH   000020H   BYTE   UNIT     CODE           ?PR?MARKASKEYPRESSED?SIDEKEY
0037EFH   00380DH   00001FH   BYTE   UNIT     CODE           ?PR?GETSIDEKEYSHORTPRESSCOUNT?SIDEKEY
00380EH   00382BH   00001EH   BYTE   UNIT     CODE           ?PR?_GPIO_ENABLEINT?GPIO
00382CH   003844H   000019H   BYTE   UNIT     CODE           ?PR?GETIFWDOGCAUSERST?WATCHDOG
003845H   00385DH   000019H   BYTE   UNIT     CODE           ?PR?RETURNTOOFFSTATE?MODECONTROL
00385EH   003875H   000018H   BYTE   UNIT     CODE           ?PR?_CLICKANDHOLDEVENTHANDLER?SIDEKEY
003876H   00388CH   000017H   BYTE   UNIT     CODE           ?PR?LEDMGMT
00388DH   0038A1H   000015H   BYTE   UNIT     CODE           ?PR?ADC_SETVREF?ADCCFG
0038A2H   0038B6H   000015H   BYTE   UNIT     CODE           ?PR?DELAY_INIT?DELAY
0038B7H   0038C9H   000013H   BYTE   UNIT     CODE           ?PR?ISKEYEVENTOCCURRED?SIDEKEY
0038CAH   0038D9H   000010H   BYTE   UNIT     CODE           ?PR?WDOG_DEINIT?WATCHDOG
0038DAH   0038E9H   000010H   BYTE   UNIT     CODE           ?PR?WDOG_FEED?WATCHDOG
0038EAH   0038F9H   000010H   BYTE   UNIT     CODE           ?PR?_SIDEKEYSWITCHGEARHANDLER?MODECONTROL
0038FAH   003909H   000010H   BYTE   UNIT     CODE           ?PR?_SIDEKEY1HREVGEARHANDLER?MODECONTROL
00390AH   003918H   00000FH   BYTE   UNIT     CODE           ?PR?PWM
003919H   003923H   00000BH   BYTE   UNIT     CODE           ?PR?GETSIDEKEYLONGPRESSEVENT?SIDEKEY
003924H   00392CH   000009H   BYTE   UNIT     CODE           ?PR?TRIGGERVSHOWDISPLAY?BATTVOLTDISPLAY
00392DH   003933H   000007H   BYTE   UNIT     CODE           ?PR?GETSIDEKEYHOLDEVENT?SIDEKEY
003934H   00393AH   000007H   BYTE   UNIT     CODE           ?PR?GETSIDEKEYCLICKANDHOLDEVENT?SIDEKEY
00393BH   003941H   000007H   BYTE   UNIT     CODE           ?PR?OUTPUTCHANNEL_DEINIT?OUTPUTCHANNEL
003942H   003947H   000006H   BYTE   UNIT     CODE           ?PR?TIMER0_IRQHANDLER?DELAY
003948H   00394AH   000003H   BYTE   UNIT     CODE           ?PR?SYSTEMTELEMHANDLER?ADCCFG
00394BH   003B2CH   0001E2H   BYTE   UNIT     CONST          ?CO?NTC
003B2DH   003B8FH   000063H   BYTE   UNIT     CONST          ?CO?MODECONTROL
003B90H   003BB8H   000029H   BYTE   UNIT     CONST          ?CO?RAMPCONFIG
003BB9H   003BCCH   000014H   BYTE   UNIT     CONST          ?CO?OUTPUTCHANNEL
003BCDH   003BD0H   000004H   BYTE   UNIT     CONST          ?CO?ADCCFG
LX51 LINKER/LOCATER V4.66.97.0                                                        11/09/2024  20:20:28  PAGE 5



* * * * * * * * * * *  X D A T A   M E M O R Y  * * * * * * * * * * * * *
000000H   000016H   000017H   BYTE   UNIT     XDATA          ?XD?BATTVOLTDISPLAY
000017H   00002AH   000014H   BYTE   UNIT     XDATA          _XDATA_GROUP_
00002BH   000038H   00000EH   BYTE   UNIT     XDATA          ?XD?MODECONTROL
000039H   000045H   00000DH   BYTE   UNIT     XDATA          ?XD?ADCCFG
000046H   00004DH   000008H   BYTE   UNIT     XDATA          ?XD?SELFTEST
00004EH   000051H   000004H   BYTE   UNIT     XDATA          ?XD?PWM
000052H   000055H   000004H   BYTE   UNIT     XDATA          ?XD?OUTPUTCHANNEL
000056H   000056H   000001H   BYTE   UNIT     XDATA          ?XD?SIDEKEY
000057H   000057H   000001H   BYTE   UNIT     XDATA          ?XD?LEDMGMT



OVERLAY MAP OF MODULE:   .\Objects\XRLite (?C_STARTUP)


FUNCTION/MODULE                              BIT_GROUP   DATA_GROUP   XDATA_GROUP
--> CALLED FUNCTION/MODULE                  START  STOP  START  STOP  START  STOP
=================================================================================
?C_C51STARTUP                               ----- -----  ----- -----  ----- -----
  +--> MAIN/MAIN
  +--> ?C_INITSEG

MAIN/MAIN                                   ----- -----  ----- -----  ----- -----
  +--> DELAY_INIT/DELAY
  +--> SETSYSTEMHBTIMER/DELAY
  +--> CHECKIFHBTIMISREADY/DELAY
  +--> LED_INIT/LEDMGMT
  +--> ADC_INIT/ADCCFG
  +--> CHECKNTCSTATUS/TEMPCONTROL
  +--> MODEFSMINIT/MODECONTROL
  +--> SIDEKEYINIT/SIDEKEY
  +--> PWM_INIT/PWM
  +--> OUTPUTCHANNEL_INIT/OUTPUTCHANNEL
  +--> OUTPUTCHANNEL_TESTRUN/OUTPUTCHANNEL
  +--> DISPLAYVBATTATSTART/BATTVOLTDISPLAY
  +--> WDOG_INIT/WATCHDOG
  +--> SYSTEMTELEMHANDLER/ADCCFG
  +--> SIDEKEY_LOGICHANDLER/SIDEKEY
  +--> BATTERYTELEMHANDLER/BATTVOLTDISPLAY
  +--> MODESWITCHFSM/MODECONTROL
  +--> THERMALCALCPROCESS/TEMPCONTROL
  +--> OUTPUTCHANNEL_CALC/OUTPUTCHANNEL
  +--> PWM_OUTPUTCTRLHANDLER/PWM
  +--> WDOG_FEED/WATCHDOG
  +--> BATTDISPLAYTIM/BATTVOLTDISPLAY
  +--> LEDCONTROLHANDLER/LEDMGMT
  +--> MODEFSMTIMHANDLER/MODECONTROL
  +--> HOLDSWITCHGEARCMDHANDLER/MODECONTROL
  +--> DISPLAYERRORTIMHANDLER/SELFTEST
  +--> MOONCONFIGHANDLER/MODECONTROL
  +--> OUTPUTFAULTDETECT/SELFTEST
  +--> INPUTFAULTDETECT/SELFTEST
  +--> SLEEPMGMT/SLEEP

DELAY_INIT/DELAY                            ----- -----  ----- -----  ----- -----

SETSYSTEMHBTIMER/DELAY                      22H.1 22H.1  ----- -----  ----- -----

CHECKIFHBTIMISREADY/DELAY                   ----- -----  0023H 0024H  ----- -----
  +--> _DELAY_MS/DELAY

_DELAY_MS/DELAY                             ----- -----  002FH 0036H  ----- -----

LX51 LINKER/LOCATER V4.66.97.0                                                        11/09/2024  20:20:28  PAGE 6


LED_INIT/LEDMGMT                            ----- -----  0025H 0027H  ----- -----
  +--> _GPIO_CONFIGGPIOMODE/GPIO

_GPIO_CONFIGGPIOMODE/GPIO                   ----- -----  0028H 0032H  ----- -----
  +--> GPIO

GPIO                                        ----- -----  ----- -----  ----- -----

ADC_INIT/ADCCFG                             ----- -----  0025H 0027H  ----- -----
  +--> _GPIO_CONFIGGPIOMODE/GPIO
  +--> _GPIO_SETMUXMODE/GPIO
  +--> _GPIO_WRITEBIT/GPIO
  +--> ADCCFG
  +--> SYSTEMTELEMHANDLER/ADCCFG

_GPIO_SETMUXMODE/GPIO                       ----- -----  0028H 0029H  ----- -----
  +--> GPIO

_GPIO_WRITEBIT/GPIO                         22H.1 22H.1  ----- -----  ----- -----
  +--> GPIO

ADCCFG                                      ----- -----  ----- -----  ----- -----

SYSTEMTELEMHANDLER/ADCCFG                   ----- -----  ----- -----  ----- -----
  +--> ADCENGINEHANDLER/ADCCFG

ADCENGINEHANDLER/ADCCFG                     ----- -----  002FH 0033H  ----- -----
  +--> ADC_SETVREF/ADCCFG
  +--> ADCCFG
  +--> _ADC_SUBMITMISSON/ADCCFG
  +--> _ADC_READBACKRESULT/ADCCFG
  +--> _ADC_WRITEOUTPUTBUF/ADCCFG

ADC_SETVREF/ADCCFG                          22H.1 22H.1  ----- -----  ----- -----

_ADC_SUBMITMISSON/ADCCFG                    ----- -----  ----- -----  ----- -----
  +--> ADCCFG
  +--> _DELAY_US/DELAY

_DELAY_US/DELAY                             22H.1 22H.1  ----- -----  ----- -----

_ADC_READBACKRESULT/ADCCFG                  ----- -----  0034H 0039H  ----- -----

_ADC_WRITEOUTPUTBUF/ADCCFG                  ----- -----  0034H 0042H  ----- -----
  +--> ADCCFG
  +--> _CALCNTCTEMP/NTC

_CALCNTCTEMP/NTC                            ----- -----  0043H 004FH  ----- -----
  +--> NTC

NTC                                         ----- -----  ----- -----  ----- -----

CHECKNTCSTATUS/TEMPCONTROL                  ----- -----  0023H 0023H  ----- -----
  +--> _DELAY_MS/DELAY
  +--> SYSTEMTELEMHANDLER/ADCCFG
  +--> LEDCONTROLHANDLER/LEDMGMT

LEDCONTROLHANDLER/LEDMGMT                   22H.0 22H.0  ----- -----  ----- -----
  +--> LEDMGMT

LEDMGMT                                     ----- -----  ----- -----  ----- -----

MODEFSMINIT/MODECONTROL                     ----- -----  ----- -----  ----- -----
  +--> READRAMPCONFIG/RAMPCONFIG

LX51 LINKER/LOCATER V4.66.97.0                                                        11/09/2024  20:20:28  PAGE 7


READRAMPCONFIG/RAMPCONFIG                   ----- -----  0023H 0029H  ----- -----
  +--> RAMPCONFIG
  +--> _PEC8CHECK/RAMPCONFIG
  +--> SAVERAMPCONFIG/RAMPCONFIG

RAMPCONFIG                                  ----- -----  ----- -----  ----- -----

_PEC8CHECK/RAMPCONFIG                       ----- -----  0036H 0045H  ----- -----
  +--> RAMPCONFIG

SAVERAMPCONFIG/RAMPCONFIG                   22H.1 22H.1  002AH 0035H  ----- -----
  +--> RAMPCONFIG
  +--> _PEC8CHECK/RAMPCONFIG

SIDEKEYINIT/SIDEKEY                         ----- -----  0023H 0025H  ----- -----
  +--> _GPIO_SETMUXMODE/GPIO
  +--> _GPIO_CONFIGGPIOMODE/GPIO
  +--> _GPIO_ENABLEINT/GPIO
  +--> _GPIO_SETEXTINTMODE/GPIO

_GPIO_ENABLEINT/GPIO                        ----- -----  ----- -----  ----- -----

_GPIO_SETEXTINTMODE/GPIO                    ----- -----  0026H 0027H  ----- -----
  +--> GPIO

PWM_INIT/PWM                                ----- -----  0025H 0027H  ----- -----
  +--> _GPIO_WRITEBIT/GPIO
  +--> _GPIO_CONFIGGPIOMODE/GPIO
  +--> _GPIO_SETMUXMODE/GPIO

OUTPUTCHANNEL_INIT/OUTPUTCHANNEL            ----- -----  0025H 0027H  ----- -----
  +--> OUTPUTCHANNEL
  +--> _GPIO_CONFIGGPIOMODE/GPIO

OUTPUTCHANNEL                               ----- -----  ----- -----  ----- -----

OUTPUTCHANNEL_TESTRUN/OUTPUTCHANNEL         ----- -----  0023H 002EH  0017H 002AH
  +--> GETIFWDOGCAUSERST/WATCHDOG
  +--> OUTPUTCHANNEL
  +--> PWM_FORCESETDUTY/PWM
  +--> _DELAY_MS/DELAY
  +--> SYSTEMTELEMHANDLER/ADCCFG
  +--> _SWITCHTOGEAR/MODECONTROL

GETIFWDOGCAUSERST/WATCHDOG                  ----- -----  ----- -----  ----- -----

PWM_FORCESETDUTY/PWM                        22H.0 22H.0  ----- -----  ----- -----

_SWITCHTOGEAR/MODECONTROL                   ----- -----  002FH 0032H  ----- -----
  +--> MODECONTROL

MODECONTROL                                 ----- -----  ----- -----  ----- -----

DISPLAYVBATTATSTART/BATTVOLTDISPLAY         ----- -----  ----- -----  ----- -----
  +--> BATTVOLTDISPLAY

BATTVOLTDISPLAY                             ----- -----  ----- -----  ----- -----

WDOG_INIT/WATCHDOG                          ----- -----  ----- -----  ----- -----

SIDEKEY_LOGICHANDLER/SIDEKEY                ----- -----  ----- -----  ----- -----
  +--> _GPIO_CHECKIFINTENABLED/GPIO
  +--> _GPIO_SETEXTINTMODE/GPIO
  +--> _GPIO_ENABLEINT/GPIO
  +--> SIDEKEY
LX51 LINKER/LOCATER V4.66.97.0                                                        11/09/2024  20:20:28  PAGE 8


  +--> _CLICKANDHOLDEVENTHANDLER/SIDEKEY

_GPIO_CHECKIFINTENABLED/GPIO                ----- -----  ----- -----  ----- -----

SIDEKEY                                     ----- -----  ----- -----  ----- -----

_CLICKANDHOLDEVENTHANDLER/SIDEKEY           ----- -----  ----- -----  ----- -----

BATTERYTELEMHANDLER/BATTVOLTDISPLAY         ----- -----  0025H 0028H  ----- -----
  +--> BATTVOLTDISPLAY
  +--> DISPLAYERRORIDHANDLER/SELFTEST
  +--> BATVSHOWFSM/BATTVOLTDISPLAY

DISPLAYERRORIDHANDLER/SELFTEST              ----- -----  ----- -----  ----- -----

BATVSHOWFSM/BATTVOLTDISPLAY                 ----- -----  0029H 002AH  ----- -----
  +--> BATTVOLTDISPLAY
  +--> _MAKEFASTSTROBE/LEDMGMT
  +--> GETSIDEKEYCLICKANDHOLDEVENT/SIDEKEY

_MAKEFASTSTROBE/LEDMGMT                     ----- -----  ----- -----  ----- -----
  +--> _DELAY_MS/DELAY

GETSIDEKEYCLICKANDHOLDEVENT/SIDEKEY         ----- -----  ----- -----  ----- -----

MODESWITCHFSM/MODECONTROL                   22H.0 22H.0  0023H 0024H  ----- -----
  +--> GETSIDEKEYLONGPRESSEVENT/SIDEKEY
  +--> GETSIDEKEYSHORTPRESSCOUNT/SIDEKEY
  +--> MODECONTROL
  +--> ISKEYEVENTOCCURRED/SIDEKEY
  +--> GETSIDEKEYHOLDEVENT/SIDEKEY
  +--> SAVERAMPCONFIG/RAMPCONFIG
  +--> GETSIDEKEYCLICKANDHOLDEVENT/SIDEKEY
  +--> TRIGGERVSHOWDISPLAY/BATTVOLTDISPLAY
  +--> RETURNTOOFFSTATE/MODECONTROL
  +--> _SWITCHTOGEAR/MODECONTROL
  +--> RESTORETOMINIMUMRAMPCURRENT/RAMPCONFIG
  +--> RAMPADJHANDLER/MODECONTROL
  +--> _SIDEKEYSWITCHGEARHANDLER/MODECONTROL
  +--> _SIDEKEY1HREVGEARHANDLER/MODECONTROL
  +--> _BATTERYLOWALERTPROCESS/MODECONTROL
  +--> SOSFSM/MODECONTROL
  +--> _THERMALILIMCALC/TEMPCONTROL

GETSIDEKEYLONGPRESSEVENT/SIDEKEY            ----- -----  ----- -----  ----- -----

GETSIDEKEYSHORTPRESSCOUNT/SIDEKEY           22H.1 22H.1  ----- -----  ----- -----
  +--> SIDEKEY

ISKEYEVENTOCCURRED/SIDEKEY                  ----- -----  ----- -----  ----- -----

GETSIDEKEYHOLDEVENT/SIDEKEY                 ----- -----  ----- -----  ----- -----

TRIGGERVSHOWDISPLAY/BATTVOLTDISPLAY         ----- -----  ----- -----  ----- -----

RETURNTOOFFSTATE/MODECONTROL                ----- -----  ----- -----  ----- -----
  +--> MODECONTROL
  +--> _SWITCHTOGEAR/MODECONTROL

RESTORETOMINIMUMRAMPCURRENT/RAMPCONFIG      ----- -----  ----- -----  ----- -----
  +--> RAMPCONFIG

RAMPADJHANDLER/MODECONTROL                  ----- -----  ----- -----  ----- -----
  +--> GETSIDEKEYHOLDEVENT/SIDEKEY
  +--> GETSIDEKEYCLICKANDHOLDEVENT/SIDEKEY
LX51 LINKER/LOCATER V4.66.97.0                                                        11/09/2024  20:20:28  PAGE 9


  +--> MODECONTROL
  +--> SAVERAMPCONFIG/RAMPCONFIG

_SIDEKEYSWITCHGEARHANDLER/MODECONTROL       ----- -----  ----- -----  ----- -----
  +--> MODECONTROL
  +--> _SWITCHTOGEAR/MODECONTROL

_SIDEKEY1HREVGEARHANDLER/MODECONTROL        ----- -----  ----- -----  ----- -----
  +--> MODECONTROL
  +--> _SWITCHTOGEAR/MODECONTROL

_BATTERYLOWALERTPROCESS/MODECONTROL         ----- -----  0025H 0027H  ----- -----
  +--> MODECONTROL
  +--> RETURNTOOFFSTATE/MODECONTROL
  +--> _SWITCHTOGEAR/MODECONTROL

SOSFSM/MODECONTROL                          ----- -----  0025H 0026H  ----- -----
  +--> MODECONTROL

_THERMALILIMCALC/TEMPCONTROL                ----- -----  0025H 0032H  ----- -----
  +--> TEMPCONTROL
  +--> _PRESENTLIM/TEMPCONTROL

TEMPCONTROL                                 ----- -----  ----- -----  ----- -----

_PRESENTLIM/TEMPCONTROL                     ----- -----  0033H 0036H  ----- -----
  +--> TEMPCONTROL

THERMALCALCPROCESS/TEMPCONTROL              ----- -----  ----- -----  ----- -----
  +--> TEMPCONTROL
  +--> _SWITCHTOGEAR/MODECONTROL

OUTPUTCHANNEL_CALC/OUTPUTCHANNEL            ----- -----  ----- -----  ----- -----
  +--> OUTPUTCHANNEL
  +--> _DUTY_CALC/OUTPUTCHANNEL

_DUTY_CALC/OUTPUTCHANNEL                    ----- -----  0023H 0030H  ----- -----
  +--> OUTPUTCHANNEL

PWM_OUTPUTCTRLHANDLER/PWM                   ----- -----  0023H 0026H  ----- -----
  +--> PWM

PWM                                         ----- -----  ----- -----  ----- -----

WDOG_FEED/WATCHDOG                          ----- -----  ----- -----  ----- -----

BATTDISPLAYTIM/BATTVOLTDISPLAY              ----- -----  ----- -----  ----- -----
  +--> BATTVOLTDISPLAY

MODEFSMTIMHANDLER/MODECONTROL               ----- -----  ----- -----  ----- -----
  +--> MODECONTROL

HOLDSWITCHGEARCMDHANDLER/MODECONTROL        ----- -----  0023H 0023H  ----- -----
  +--> GETSIDEKEYHOLDEVENT/SIDEKEY
  +--> MODECONTROL
  +--> GETSIDEKEYCLICKANDHOLDEVENT/SIDEKEY

DISPLAYERRORTIMHANDLER/SELFTEST             ----- -----  ----- -----  ----- -----

MOONCONFIGHANDLER/MODECONTROL               ----- -----  ----- -----  ----- -----
  +--> MODECONTROL

OUTPUTFAULTDETECT/SELFTEST                  ----- -----  0023H 0023H  ----- -----
  +--> SELFTEST
  +--> _SWITCHTOGEAR/MODECONTROL
LX51 LINKER/LOCATER V4.66.97.0                                                        11/09/2024  20:20:28  PAGE 10



SELFTEST                                    ----- -----  ----- -----  ----- -----

INPUTFAULTDETECT/SELFTEST                   ----- -----  ----- -----  ----- -----
  +--> SELFTEST
  +--> _SWITCHTOGEAR/MODECONTROL

SLEEPMGMT/SLEEP                             ----- -----  0023H 0024H  ----- -----
  +--> SYSTEMPERIPHERALCTRL/SLEEP
  +--> DELAY_INIT/DELAY
  +--> SETSYSTEMHBTIMER/DELAY
  +--> MARKASKEYPRESSED/SIDEKEY
  +--> _DELAY_MS/DELAY
  +--> SIDEKEY_LOGICHANDLER/SIDEKEY
  +--> ISKEYEVENTOCCURRED/SIDEKEY
  +--> SYSTEMTELEMHANDLER/ADCCFG
  +--> BATTERYTELEMHANDLER/BATTVOLTDISPLAY

SYSTEMPERIPHERALCTRL/SLEEP                  22H.0 22H.0  ----- -----  ----- -----
  +--> LED_INIT/LEDMGMT
  +--> ADC_INIT/ADCCFG
  +--> PWM_INIT/PWM
  +--> OUTPUTCHANNEL_INIT/OUTPUTCHANNEL
  +--> WDOG_INIT/WATCHDOG
  +--> WDOG_DEINIT/WATCHDOG
  +--> SETSYSTEMHBTIMER/DELAY
  +--> PWM_DEINIT/PWM
  +--> ADC_DEINIT/ADCCFG
  +--> OUTPUTCHANNEL_DEINIT/OUTPUTCHANNEL

WDOG_DEINIT/WATCHDOG                        ----- -----  ----- -----  ----- -----

PWM_DEINIT/PWM                              ----- -----  ----- -----  ----- -----
  +--> _GPIO_SETMUXMODE/GPIO
  +--> _GPIO_WRITEBIT/GPIO

ADC_DEINIT/ADCCFG                           ----- -----  0025H 0027H  ----- -----
  +--> ADCCFG
  +--> _GPIO_SETMUXMODE/GPIO
  +--> _GPIO_CONFIGGPIOMODE/GPIO
  +--> _GPIO_WRITEBIT/GPIO

OUTPUTCHANNEL_DEINIT/OUTPUTCHANNEL          ----- -----  ----- -----  ----- -----
  +--> OUTPUTCHANNEL

MARKASKEYPRESSED/SIDEKEY                    ----- -----  ----- -----  ----- -----
  +--> _GPIO_DISABLEINT/GPIO

_GPIO_DISABLEINT/GPIO                       ----- -----  ----- -----  ----- -----

?C_INITSEG                                  ----- -----  ----- -----  ----- -----

*** NEW ROOT ******************************

KEY_IRQHANDLER/MAIN                         ----- -----  ----- -----  ----- -----
  +--> _GPIO_GETINTFLAG/GPIO
  +--> SIDEKEY_INT_CALLBACK/SIDEKEY
  +--> _GPIO_CLEARINTFLAG/GPIO

_GPIO_GETINTFLAG/GPIO                       ----- -----  ----- -----  ----- -----
  +--> GPIO

SIDEKEY_INT_CALLBACK/SIDEKEY                ----- -----  ----- -----  ----- -----
  +--> _GPIO_GETEXTINTMODE/GPIO
  +--> SIDEKEY
LX51 LINKER/LOCATER V4.66.97.0                                                        11/09/2024  20:20:28  PAGE 11


  +--> _GPIO_DISABLEINT/GPIO

_GPIO_GETEXTINTMODE/GPIO                    ----- -----  ----- -----  ----- -----
  +--> GPIO

_GPIO_CLEARINTFLAG/GPIO                     ----- -----  ----- -----  ----- -----
  +--> GPIO

*** NEW ROOT ******************************

TIMER2_IRQHANDLER/DELAY                     ----- -----  ----- -----  ----- -----
  +--> SIDEKEY_TIM_CALLBACK/SIDEKEY

SIDEKEY_TIM_CALLBACK/SIDEKEY                ----- -----  ----- -----  ----- -----

*** NEW ROOT ******************************

TIMER0_IRQHANDLER/DELAY                     ----- -----  ----- -----  ----- -----



PUBLIC SYMBOLS OF MODULE:  .\Objects\XRLite (?C_STARTUP)


      VALUE       CLASS    TYPE      PUBLIC SYMBOL NAME
      =================================================
      00000022H.1 BIT      BIT       ?_GPIO_WriteBit?BIT
      010003A3H   CODE     ---       ?C?CASTF
      01000555H   CODE     ---       ?C?CLDOPTR
      0100053CH   CODE     ---       ?C?CLDPTR
      00000000H   NUMBER   ---       ?C?CODESEG
      010004F4H   CODE     ---       ?C?COPY
      01000582H   CODE     ---       ?C?CSTPTR
      0100036FH   CODE     ---       ?C?FCASTC
      0100036AH   CODE     ---       ?C?FCASTI
      01000365H   CODE     ---       ?C?FCASTL
      01000055H   CODE     ---       ?C?FPADD
      010002EEH   CODE     ---       ?C?FPCMP
      010002ECH   CODE     ---       ?C?FPCMP3
      0100024FH   CODE     ---       ?C?FPDIV
      010003DAH   CODE     ---       ?C?FPGETOPN2
      01000146H   CODE     ---       ?C?FPMUL
      0100040FH   CODE     ---       ?C?FPNANRESULT
      01000419H   CODE     ---       ?C?FPOVERFLOW
      010003F1H   CODE     ---       ?C?FPRESULT
      01000405H   CODE     ---       ?C?FPRESULT2
      01000051H   CODE     ---       ?C?FPSUB
      01000416H   CODE     ---       ?C?FPUNDERFLOW
      010005DCH   CODE     ---       ?C?ILDOPTR
      01000594H   CODE     ---       ?C?IMUL
      01000614H   CODE     ---       ?C?ISTPTR
      01000798H   CODE     ---       ?C?LLDCODE
      01000633H   CODE     ---       ?C?LMUL
      01000750H   CODE     ---       ?C?LNEG
      010007B4H   CODE     ---       ?C?LSTKXDATA
      010007A8H   CODE     ---       ?C?LSTXDATA
      010007E5H   CODE     ---       ?C?OFFXADD
      0100051AH   CODE     ---       ?C?SCDIV
      010005A6H   CODE     ---       ?C?SIDIV
      0100075EH   CODE     ---       ?C?SLCMP
      01003352H   CODE     ---       ?C?SLDIV
      010007F1H   CODE     ---       ?C?UIDIV
      01000774H   CODE     ---       ?C?ULCMP
      010006BEH   CODE     ---       ?C?ULDIV
      01000785H   CODE     ---       ?C?ULSHR
LX51 LINKER/LOCATER V4.66.97.0                                                        11/09/2024  20:20:28  PAGE 12


      00000000H   NUMBER   ---       ?C?XDATASEG
      01002A3DH   CODE     ---       ?C_START
      01000000H   CODE     NEAR LAB  ?C_STARTUP
      00000022H.1 BIT      BIT       ?getSideKeyShortPressCount?BIT
      00000022H.0 BIT      BIT       ?PWM_ForceSetDuty?BIT
      00000022H.1 BIT      BIT       ?SaveRampConfig?BIT
      00000022H.1 BIT      BIT       ?SetSystemHBTimer?BIT
      01001E34H   CODE     ---       _CalcNTCTemp
      0100214DH   CODE     ---       _delay_ms
      01003419H   CODE     ---       _delay_us
      010035D8H   CODE     ---       _GPIO_CheckIfIntEnabled
      010032C3H   CODE     ---       _GPIO_ClearIntFlag
      01000CDDH   CODE     ---       _GPIO_ConfigGPIOMode
      01003748H   CODE     ---       _GPIO_DisableInt
      0100380EH   CODE     ---       _GPIO_EnableInt
      01002A82H   CODE     ---       _GPIO_GetExtIntMode
      01003189H   CODE     ---       _GPIO_GetIntFlag
      01003078H   CODE     ---       _GPIO_SetExtIntMode
      01002E0DH   CODE     ---       _GPIO_SetMUXMode
      010022B8H   CODE     ---       _GPIO_WriteBit
      01003684H   CODE     ---       _MakeFastStrobe
      01002D25H   CODE     ---       _SwitchToGear
      01001C4CH   CODE     ---       _ThermalILIMCalc
*SFR* 000000D0H.6 DATA     BIT       AC
*SFR* 000000E0H   DATA     BYTE      ACC
      010024CDH   CODE     ---       ADC_DeInit
      01002773H   CODE     ---       ADC_Init
      01003BCDH   CONST    ---       ADCChQueue
*SFR* 000000D1H   DATA     BYTE      ADCMPC
*SFR* 000000D5H   DATA     BYTE      ADCMPH
*SFR* 000000D4H   DATA     BYTE      ADCMPL
*SFR* 000000DFH   DATA     BYTE      ADCON0
*SFR* 000000DEH   DATA     BYTE      ADCON1
*SFR* 000000E9H   DATA     BYTE      ADCON2
*SFR* 000000D3H   DATA     BYTE      ADDLYL
*SFR* 000000DDH   DATA     BYTE      ADRESH
*SFR* 000000DCH   DATA     BYTE      ADRESL
*SFR* 000000F0H   DATA     BYTE      B
      0200002BH   XDATA    CHAR      BattAlertTimer
      01003497H   CODE     ---       BattDisplayTIM
      0200000FH   XDATA    FLOAT     Battery
      01000FAAH   CODE     ---       BatteryTelemHandler
*SFR* 000000BFH   DATA     BYTE      BUZCON
*SFR* 000000BEH   DATA     BYTE      BUZDIV
*SFR* 000000C8H.5 DATA     BIT       CAPES
*SFR* 000000CEH   DATA     BYTE      CCEN
*SFR* 000000C3H   DATA     BYTE      CCH1
*SFR* 000000C5H   DATA     BYTE      CCH2
*SFR* 000000C7H   DATA     BYTE      CCH3
*SFR* 000000C2H   DATA     BYTE      CCL1
*SFR* 000000C4H   DATA     BYTE      CCL2
*SFR* 000000C6H   DATA     BYTE      CCL3
      01003725H   CODE     ---       CheckIfHBTIMIsReady
      010037AEH   CODE     ---       CheckNTCStatus
*SFR* 0000008EH   DATA     BYTE      CKCON
      02000032H   XDATA    CHAR      ClickHoldReverseGearTIM
*SFR* 0000008FH   DATA     BYTE      CLKDIV
      02000054H   XDATA    INT       Current
      0000005DH   DATA     ---       CurrentMode
*SFR* 000000D0H.7 DATA     BIT       CY
      00000009H   DATA     ---       Data
*SFR* 00000080H.4 DATA     BIT       DCDCEN
      010038A2H   CODE     ---       delay_init
      01002CACH   CODE     ---       DisplayErrorIDHandler
      01003396H   CODE     ---       DisplayErrorTIMHandler
LX51 LINKER/LOCATER V4.66.97.0                                                        11/09/2024  20:20:28  PAGE 13


      0200002DH   XDATA    CHAR      DisplayLockedTIM
      01002E7FH   CODE     ---       DisplayVBattAtStart
*SFR* 00000083H   DATA     BYTE      DPH
*SFR* 00000083H   DATA     BYTE      DPH0
*SFR* 00000085H   DATA     BYTE      DPH1
*SFR* 00000082H   DATA     BYTE      DPL
*SFR* 00000082H   DATA     BYTE      DPL0
*SFR* 00000084H   DATA     BYTE      DPL1
*SFR* 00000086H   DATA     BYTE      DPS
*SFR* 00000093H   DATA     BYTE      DPX0
*SFR* 00000095H   DATA     BYTE      DPX1
*SFR* 000000A8H.7 DATA     BIT       EA
*SFR* 000000AAH   DATA     BYTE      EIE2
*SFR* 000000B2H   DATA     BYTE      EIF2
*SFR* 000000B9H   DATA     BYTE      EIP1
*SFR* 000000BAH   DATA     BYTE      EIP2
      0200002FH   XDATA    BYTE      ErrCode
*SFR* 000000A8H.4 DATA     BIT       ES0
*SFR* 000000A8H.6 DATA     BIT       ES1
*SFR* 000000A8H.1 DATA     BIT       ET0
*SFR* 000000A8H.3 DATA     BIT       ET1
*SFR* 000000A8H.5 DATA     BIT       ET2
*SFR* 000000A8H.0 DATA     BIT       EX0
*SFR* 000000A8H.2 DATA     BIT       EX1
*SFR* 000000D0H.5 DATA     BIT       F0
*SFR* 00000091H   DATA     BYTE      FUNCCR
      0100382CH   CODE     ---       GetIfWDogCauseRST
      01003934H   CODE     ---       getSideKeyClickAndHoldEvent
      0100392DH   CODE     ---       getSideKeyHoldEvent
      01003919H   CODE     ---       getSideKeyLongPressEvent
      010037EFH   CODE     ---       getSideKeyShortPressCount
*SFR* 000000A0H.5 DATA     BIT       GLED
      0000001FH   DATA     CHAR      HBcounter
      02000031H   XDATA    CHAR      HoldChangeGearTIM
      01002D99H   CODE     ---       HoldSwitchGearCmdHandler
*SFR* 00000080H.5 DATA     BIT       HShuntSEL
*SFR* 000000F6H   DATA     BYTE      I2CMBUF
*SFR* 000000F5H   DATA     BYTE      I2CMCR
*SFR* 000000F4H   DATA     BYTE      I2CMSA
*SFR* 000000F5H   DATA     BYTE      I2CMSR
*SFR* 000000F7H   DATA     BYTE      I2CMTP
*SFR* 000000F1H   DATA     BYTE      I2CSADR
*SFR* 000000F3H   DATA     BYTE      I2CSBUF
*SFR* 000000F2H   DATA     BYTE      I2CSCR
*SFR* 000000F2H   DATA     BYTE      I2CSSR
*SFR* 000000C8H.6 DATA     BIT       I3FR
*SFR* 000000A8H   DATA     BYTE      IE
*SFR* 00000088H.1 DATA     BIT       IE0
*SFR* 00000088H.3 DATA     BIT       IE1
      0200004CH   XDATA    CHAR      InputDetectTIM
      0100312EH   CODE     ---       InputFaultDetect
*SFR* 000000B8H   DATA     BYTE      IP
      00000021H.6 BIT      BIT       IsBatteryAlert
      00000021H.7 BIT      BIT       IsBatteryFault
      00000021H.3 BIT      BIT       IsDisableTurbo
      00000020H.2 BIT      BIT       IsEnableMoonConfigMode
      00000021H.5 BIT      BIT       IsForceLeaveTurbo
      010038B7H   CODE     ---       IsKeyEventOccurred
      00000020H.3 BIT      BIT       IsLocked
      00000021H.0 BIT      BIT       IsNeedToUploadPWM
      02000045H   XDATA    BYTE      IsNotAllowAsync
      00000020H.1 BIT      BIT       IsRampEnabled
      00000020H.5 BIT      BIT       IsT0OVF
      00000020H.4 BIT      BIT       IsTacMode
      00000021H.4 BIT      BIT       IsTempLIMActive
LX51 LINKER/LOCATER V4.66.97.0                                                        11/09/2024  20:20:28  PAGE 14


      00000022H.3 BIT      BIT       IsWakupFromSleep
*SFR* 00000088H.0 DATA     BIT       IT0
*SFR* 00000088H.2 DATA     BIT       IT1
      0100322CH   CODE     ---       Key_IRQHandler
*SFR* 000000A0H.3 DATA     BIT       KeyPress
      02000056H   XDATA    BYTE      KeyState
      0200002EH   XDATA    BYTE      LastMode
      010036D6H   CODE     ---       LED_Init
      01001A3CH   CODE     ---       LEDControlHandler
      00000061H   DATA     BYTE      LEDMode
*SFR* 00000080H.3 DATA     BIT       LShuntSEL
*SFR* 000000FDH   DATA     BYTE      MADRH
*SFR* 000000FCH   DATA     BYTE      MADRL
      01002EEAH   CODE     ---       main
      010037CFH   CODE     ---       MarkAsKeyPressed
*SFR* 000000FFH   DATA     BYTE      MCTRL
*SFR* 000000FEH   DATA     BYTE      MDATA
*SFR* 000000FBH   DATA     BYTE      MLOCK
      0100378CH   CODE     ---       ModeFSMInit
      010030D3H   CODE     ---       ModeFSMTIMHandler
      01003B2DH   CONST    ---       ModeSettings
      01000846H   CODE     ---       ModeSwitchFSM
      02000030H   XDATA    BYTE      MoonCfg
      0200002CH   XDATA    CHAR      MoonCfgTIM
      010033D8H   CODE     ---       MoonConfigHandler
      01003A77H   CONST    ---       NTCTableBottom
      0100394BH   CONST    ---       NTCTableTop
      0100257AH   CODE     ---       OutputChannel_Calc
      0100393BH   CODE     ---       OutputChannel_DeInit
      0100350FH   CODE     ---       OutputChannel_Init
      010011FCH   CODE     ---       OutputChannel_TestRun
      01002203H   CODE     ---       OutputFaultDetect
*SFR* 000000D0H.2 DATA     BIT       OV
*SFR* 000000D0H.0 DATA     BIT       P
*SFR* 00000080H   DATA     BYTE      P0
*SFR* 00000080H.0 DATA     BIT       P00
*SFR* 00000080H.1 DATA     BIT       P01
*SFR* 00000080H.2 DATA     BIT       P02
*SFR* 00000080H.3 DATA     BIT       P03
*SFR* 00000080H.4 DATA     BIT       P04
*SFR* 00000080H.5 DATA     BIT       P05
*SFR* 00000080H.6 DATA     BIT       P06
*SFR* 00000080H.7 DATA     BIT       P07
*SFR* 000000ACH   DATA     BYTE      P0EXTIE
*SFR* 000000B4H   DATA     BYTE      P0EXTIF
*SFR* 0000009AH   DATA     BYTE      P0TRIS
*SFR* 00000090H   DATA     BYTE      P1
*SFR* 00000090H.0 DATA     BIT       P10
*SFR* 00000090H.1 DATA     BIT       P11
*SFR* 00000090H.2 DATA     BIT       P12
*SFR* 00000090H.3 DATA     BIT       P13
*SFR* 00000090H.4 DATA     BIT       P14
*SFR* 00000090H.5 DATA     BIT       P15
*SFR* 00000090H.6 DATA     BIT       P16
*SFR* 00000090H.7 DATA     BIT       P17
*SFR* 000000ADH   DATA     BYTE      P1EXTIE
*SFR* 000000B5H   DATA     BYTE      P1EXTIF
*SFR* 000000A1H   DATA     BYTE      P1TRIS
*SFR* 000000A0H   DATA     BYTE      P2
*SFR* 000000A0H.0 DATA     BIT       P20
*SFR* 000000A0H.1 DATA     BIT       P21
*SFR* 000000A0H.2 DATA     BIT       P22
*SFR* 000000A0H.3 DATA     BIT       P23
*SFR* 000000A0H.4 DATA     BIT       P24
*SFR* 000000A0H.5 DATA     BIT       P25
LX51 LINKER/LOCATER V4.66.97.0                                                        11/09/2024  20:20:28  PAGE 15


*SFR* 000000A0H.6 DATA     BIT       P26
*SFR* 000000A0H.7 DATA     BIT       P27
*SFR* 000000AEH   DATA     BYTE      P2EXTIE
*SFR* 000000B6H   DATA     BYTE      P2EXTIF
*SFR* 000000A2H   DATA     BYTE      P2TRIS
*SFR* 000000B0H   DATA     BYTE      P3
*SFR* 000000B0H.0 DATA     BIT       P30
*SFR* 000000B0H.1 DATA     BIT       P31
*SFR* 000000B0H.2 DATA     BIT       P32
*SFR* 000000B0H.3 DATA     BIT       P33
*SFR* 000000B0H.4 DATA     BIT       P34
*SFR* 000000B0H.5 DATA     BIT       P35
*SFR* 000000B0H.6 DATA     BIT       P36
*SFR* 000000B0H.7 DATA     BIT       P37
*SFR* 000000AFH   DATA     BYTE      P3EXTIE
*SFR* 000000B7H   DATA     BYTE      P3EXTIF
*SFR* 000000A3H   DATA     BYTE      P3TRIS
*SFR* 00000087H   DATA     BYTE      PCON
*SFR* 000000A0H   DATA     BYTE      PPAGE_SFR
*SFR* 000000B8H.4 DATA     BIT       PS0
*SFR* 000000B8H.6 DATA     BIT       PS1
*SFR* 000000D0H   DATA     BYTE      PSW
*SFR* 000000B8H.1 DATA     BIT       PT0
*SFR* 000000B8H.3 DATA     BIT       PT1
*SFR* 000000B8H.5 DATA     BIT       PT2
      0100002EH   CODE     ---       PWM_DeInit
      0100365AH   CODE     ---       PWM_ForceSetDuty
      01002BA1H   CODE     ---       PWM_Init
      0100236CH   CODE     ---       PWM_OutputCtrlHandler
      0200004EH   XDATA    FLOAT     PWMDuty
*SFR* 000000B8H.0 DATA     BIT       PX0
*SFR* 000000B8H.2 DATA     BIT       PX1
      00000059H   DATA     ---       RampCfg
      0100294CH   CODE     ---       ReadRampConfig
      010034D3H   CODE     ---       RestoreToMinimumRampCurrent
      01003845H   CODE     ---       ReturnToOFFState
*SFR* 00000080H.1 DATA     BIT       RevPGate
*SFR* 00000098H.0 DATA     BIT       RI0
*SFR* 000000CBH   DATA     BYTE      RLDH
*SFR* 000000CAH   DATA     BYTE      RLDL
*SFR* 000000A0H.4 DATA     BIT       RLED
*SFR* 000000D0H.3 DATA     BIT       RS0
*SFR* 000000D0H.4 DATA     BIT       RS1
      01001F13H   CODE     ---       SaveRampConfig
*SFR* 00000099H   DATA     BYTE      SBUF
*SFR* 00000099H   DATA     BYTE      SBUF0
*SFR* 000000EBH   DATA     BYTE      SBUF1
*SFR* 00000098H   DATA     BYTE      SCON0
*SFR* 000000EAH   DATA     BYTE      SCON1
      010036FEH   CODE     ---       SetSystemHBTimer
      01002F52H   CODE     ---       SideKey_Int_Callback
      01002811H   CODE     ---       SideKey_LogicHandler
      01003549H   CODE     ---       SideKey_TIM_Callback
      0100330BH   CODE     ---       SideKeyInit
      01002B15H   CODE     ---       SleepMgmt
      00000050H   DATA     INT       SleepTimer
      02000037H   XDATA    CHAR      SOSTIM
*SFR* 00000081H   DATA     BYTE      SP
*SFR* 000000ECH   DATA     BYTE      SPCR
*SFR* 000000EEH   DATA     BYTE      SPDR
*SFR* 000000EDH   DATA     BYTE      SPSR
*SFR* 000000EFH   DATA     BYTE      SSCR
      00000020H.7 BIT      BIT       StrobeFlag
      00000020H.6 BIT      BIT       SysHBFlag
      01003948H   CODE     ---       SystemTelemHandler
LX51 LINKER/LOCATER V4.66.97.0                                                        11/09/2024  20:20:28  PAGE 16


*SFR* 000000C8H.2 DATA     BIT       T2CM
*SFR* 000000C8H   DATA     BYTE      T2CON
*SFR* 000000C8H.0 DATA     BIT       T2I0
*SFR* 000000C8H.1 DATA     BIT       T2I1
*SFR* 000000CFH   DATA     BYTE      T2IE
*SFR* 000000C9H   DATA     BYTE      T2IF
*SFR* 000000C8H.7 DATA     BIT       T2PS
*SFR* 000000C8H.3 DATA     BIT       T2R0
*SFR* 000000C8H.4 DATA     BIT       T2R1
*SFR* 000000D2H   DATA     BYTE      T34MOD
*SFR* 00000096H   DATA     BYTE      TA
      02000033H   XDATA    FLOAT     TargetCurrent
*SFR* 00000088H   DATA     BYTE      TCON
*SFR* 00000088H.5 DATA     BIT       TF0
*SFR* 00000088H.7 DATA     BIT       TF1
*SFR* 0000008CH   DATA     BYTE      TH0
*SFR* 0000008DH   DATA     BYTE      TH1
*SFR* 000000CDH   DATA     BYTE      TH2
*SFR* 000000DBH   DATA     BYTE      TH3
*SFR* 000000E3H   DATA     BYTE      TH4
      0100162FH   CODE     ---       ThermalCalcProcess
*SFR* 00000098H.1 DATA     BIT       TI0
      01003942H   CODE     ---       Timer0_IRQHandler
      01003278H   CODE     ---       Timer2_IRQHandler
*SFR* 0000008AH   DATA     BYTE      TL0
*SFR* 0000008BH   DATA     BYTE      TL1
*SFR* 000000CCH   DATA     BYTE      TL2
*SFR* 000000DAH   DATA     BYTE      TL3
*SFR* 000000E2H   DATA     BYTE      TL4
*SFR* 00000089H   DATA     BYTE      TMOD
*SFR* 00000088H.4 DATA     BIT       TR0
*SFR* 00000088H.6 DATA     BIT       TR1
      01003924H   CODE     ---       TriggerVshowDisplay
*SFR* 00000098H.2 DATA     BIT       U0RB8
*SFR* 00000098H.4 DATA     BIT       U0REN
*SFR* 00000098H.7 DATA     BIT       U0SM0
*SFR* 00000098H.6 DATA     BIT       U0SM1
*SFR* 00000098H.5 DATA     BIT       U0SM2
*SFR* 00000098H.3 DATA     BIT       U0TB8
      02000048H   XDATA    FLOAT     VBattBeforeTurbo
      01003B90H   CONST    ---       VendorString
      02000002H   XDATA    BYTE      VshowFSMState
*SFR* 00000097H   DATA     BYTE      WDCON
      010038CAH   CODE     ---       WDog_DeInit
      010038DAH   CODE     ---       WDog_Feed
      0100000EH   CODE     ---       WDog_Init
*SFR* 000000BDH   DATA     BYTE      WUTCRH
*SFR* 000000BCH   DATA     BYTE      WUTCRL



SYMBOL TABLE OF MODULE:  .\Objects\XRLite (?C_STARTUP)

      VALUE       REP       CLASS    TYPE      SYMBOL NAME
      ====================================================
      ---         MODULE    ---      ---       ?C_STARTUP
      01000000H   PUBLIC    CODE     NEAR LAB  ?C_STARTUP
      000000E0H   SFRSYM    DATA     BYTE      ACC
      000000F0H   SFRSYM    DATA     BYTE      B
      00000083H   SFRSYM    DATA     BYTE      DPH
      00000082H   SFRSYM    DATA     BYTE      DPL
      000000A0H   SFRSYM    DATA     BYTE      PPAGE_SFR
      00000081H   SFRSYM    DATA     BYTE      SP
      00000000H   SYMBOL    NUMBER   ---       IBPSTACK
      00000100H   SYMBOL    NUMBER   ---       IBPSTACKTOP
LX51 LINKER/LOCATER V4.66.97.0                                                        11/09/2024  20:20:28  PAGE 17


      00000100H   SYMBOL    NUMBER   ---       IDATALEN
      010029EBH   SYMBOL    CODE     NEAR LAB  IDATALOOP
      00000000H   SYMBOL    NUMBER   ---       PBPSTACK
      00000100H   SYMBOL    NUMBER   ---       PBPSTACKTOP
      00000000H   SYMBOL    NUMBER   ---       PDATALEN
      00000000H   SYMBOL    NUMBER   ---       PDATASTART
      00000000H   SYMBOL    NUMBER   ---       PPAGE
      00000000H   SYMBOL    NUMBER   ---       PPAGEENABLE
      010029E8H   SYMBOL    CODE     NEAR LAB  STARTUP1
      00000000H   SYMBOL    NUMBER   ---       XBPSTACK
      00010000H   SYMBOL    NUMBER   ---       XBPSTACKTOP
      00000400H   SYMBOL    NUMBER   ---       XDATALEN
      010029F6H   SYMBOL    CODE     NEAR LAB  XDATALOOP
      00000000H   SYMBOL    NUMBER   ---       XDATASTART

      01000000H   BLOCK     CODE     NEAR LAB  LVL=0
      01000000H   LINE      CODE     ---       #126
      ---         BLOCKEND  ---      ---       LVL=0

      010029E8H   BLOCK     CODE     NEAR LAB  LVL=0
      010029E8H   LINE      CODE     ---       #133
      010029EAH   LINE      CODE     ---       #134
      010029EBH   LINE      CODE     ---       #135
      010029ECH   LINE      CODE     ---       #136
      010029EEH   LINE      CODE     ---       #140
      010029F1H   LINE      CODE     ---       #141
      010029F3H   LINE      CODE     ---       #145
      010029F5H   LINE      CODE     ---       #147
      010029F6H   LINE      CODE     ---       #148
      010029F7H   LINE      CODE     ---       #149
      010029F8H   LINE      CODE     ---       #150
      010029FAH   LINE      CODE     ---       #151
      010029FCH   LINE      CODE     ---       #185
      010029FFH   LINE      CODE     ---       #196
      ---         BLOCKEND  ---      ---       LVL=0

      ---         MODULE    ---      ---       MAIN
      0100322CH   PUBLIC    CODE     ---       Key_IRQHandler
      01002EEAH   PUBLIC    CODE     ---       main
      000000C8H.0 SFRSYM    DATA     BIT       T2I0
      000000C3H   SFRSYM    DATA     BYTE      CCH1
      00000080H   SFRSYM    DATA     BYTE      P0
      000000C8H.1 SFRSYM    DATA     BIT       T2I1
      000000C5H   SFRSYM    DATA     BYTE      CCH2
      00000090H   SFRSYM    DATA     BYTE      P1
      000000C7H   SFRSYM    DATA     BYTE      CCH3
      000000ACH   SFRSYM    DATA     BYTE      P0EXTIE
      000000A0H   SFRSYM    DATA     BYTE      P2
      000000B4H   SFRSYM    DATA     BYTE      P0EXTIF
      000000B0H   SFRSYM    DATA     BYTE      P3
      000000ADH   SFRSYM    DATA     BYTE      P1EXTIE
      000000D0H.6 SFRSYM    DATA     BIT       AC
      000000FFH   SFRSYM    DATA     BYTE      MCTRL
      000000C2H   SFRSYM    DATA     BYTE      CCL1
      000000B5H   SFRSYM    DATA     BYTE      P1EXTIF
      000000AEH   SFRSYM    DATA     BYTE      P2EXTIE
      000000C4H   SFRSYM    DATA     BYTE      CCL2
      000000B6H   SFRSYM    DATA     BYTE      P2EXTIF
      000000AFH   SFRSYM    DATA     BYTE      P3EXTIE
      000000A8H.7 SFRSYM    DATA     BIT       EA
      000000C6H   SFRSYM    DATA     BYTE      CCL3
      000000B7H   SFRSYM    DATA     BYTE      P3EXTIF
      000000AAH   SFRSYM    DATA     BYTE      EIE2
      000000B2H   SFRSYM    DATA     BYTE      EIF2
      000000C8H.3 SFRSYM    DATA     BIT       T2R0
LX51 LINKER/LOCATER V4.66.97.0                                                        11/09/2024  20:20:28  PAGE 18


      000000C8H.4 SFRSYM    DATA     BIT       T2R1
      00000083H   SFRSYM    DATA     BYTE      DPH0
      000000A8H   SFRSYM    DATA     BYTE      IE
      00000085H   SFRSYM    DATA     BYTE      DPH1
      000000B9H   SFRSYM    DATA     BYTE      EIP1
      000000BAH   SFRSYM    DATA     BYTE      EIP2
      00000082H   SFRSYM    DATA     BYTE      DPL0
      00000084H   SFRSYM    DATA     BYTE      DPL1
      000000C8H.6 SFRSYM    DATA     BIT       I3FR
      000000CFH   SFRSYM    DATA     BYTE      T2IE
      00000096H   SFRSYM    DATA     BYTE      TA
      000000C9H   SFRSYM    DATA     BYTE      T2IF
      000000C8H.2 SFRSYM    DATA     BIT       T2CM
      000000DFH   SFRSYM    DATA     BYTE      ADCON0
      000000DEH   SFRSYM    DATA     BYTE      ADCON1
      000000E9H   SFRSYM    DATA     BYTE      ADCON2
      000000B8H   SFRSYM    DATA     BYTE      IP
      000000CEH   SFRSYM    DATA     BYTE      CCEN
      000000D0H.7 SFRSYM    DATA     BIT       CY
      000000D2H   SFRSYM    DATA     BYTE      T34MOD
      00000093H   SFRSYM    DATA     BYTE      DPX0
      00000095H   SFRSYM    DATA     BYTE      DPX1
      000000F4H   SFRSYM    DATA     BYTE      I2CMSA
      000000F5H   SFRSYM    DATA     BYTE      I2CMCR
      00000081H   SFRSYM    DATA     BYTE      SP
      000000D0H.2 SFRSYM    DATA     BIT       OV
      000000F2H   SFRSYM    DATA     BYTE      I2CSCR
      000000C8H.7 SFRSYM    DATA     BIT       T2PS
      000000D1H   SFRSYM    DATA     BYTE      ADCMPC
      000000CBH   SFRSYM    DATA     BYTE      RLDH
      000000D5H   SFRSYM    DATA     BYTE      ADCMPH
      000000CAH   SFRSYM    DATA     BYTE      RLDL
      00000080H.0 SFRSYM    DATA     BIT       P00
      00000090H.0 SFRSYM    DATA     BIT       P10
      00000080H.1 SFRSYM    DATA     BIT       P01
      000000F7H   SFRSYM    DATA     BYTE      I2CMTP
      00000099H   SFRSYM    DATA     BYTE      SBUF
      00000087H   SFRSYM    DATA     BYTE      PCON
      000000A0H.0 SFRSYM    DATA     BIT       P20
      00000090H.1 SFRSYM    DATA     BIT       P11
      00000080H.2 SFRSYM    DATA     BIT       P02
      000000F5H   SFRSYM    DATA     BYTE      I2CMSR
      000000B0H.0 SFRSYM    DATA     BIT       P30
      000000A0H.1 SFRSYM    DATA     BIT       P21
      00000090H.2 SFRSYM    DATA     BIT       P12
      00000080H.3 SFRSYM    DATA     BIT       P03
      000000D4H   SFRSYM    DATA     BYTE      ADCMPL
      000000B0H.1 SFRSYM    DATA     BIT       P31
      000000A0H.2 SFRSYM    DATA     BIT       P22
      00000090H.3 SFRSYM    DATA     BIT       P13
      00000080H.4 SFRSYM    DATA     BIT       P04
      000000B0H.2 SFRSYM    DATA     BIT       P32
      000000A0H.3 SFRSYM    DATA     BIT       P23
      00000090H.4 SFRSYM    DATA     BIT       P14
      00000080H.5 SFRSYM    DATA     BIT       P05
      00000089H   SFRSYM    DATA     BYTE      TMOD
      00000088H   SFRSYM    DATA     BYTE      TCON
      000000B0H.3 SFRSYM    DATA     BIT       P33
      000000A0H.4 SFRSYM    DATA     BIT       P24
      00000090H.5 SFRSYM    DATA     BIT       P15
      00000080H.6 SFRSYM    DATA     BIT       P06
      000000B0H.4 SFRSYM    DATA     BIT       P34
      000000A0H.5 SFRSYM    DATA     BIT       P25
      00000090H.6 SFRSYM    DATA     BIT       P16
      00000080H.7 SFRSYM    DATA     BIT       P07
LX51 LINKER/LOCATER V4.66.97.0                                                        11/09/2024  20:20:28  PAGE 19


      000000B0H.5 SFRSYM    DATA     BIT       P35
      000000A0H.6 SFRSYM    DATA     BIT       P26
      00000090H.7 SFRSYM    DATA     BIT       P17
      000000F2H   SFRSYM    DATA     BYTE      I2CSSR
      000000B0H.6 SFRSYM    DATA     BIT       P36
      000000A0H.7 SFRSYM    DATA     BIT       P27
      000000ECH   SFRSYM    DATA     BYTE      SPCR
      000000DDH   SFRSYM    DATA     BYTE      ADRESH
      000000B0H.7 SFRSYM    DATA     BIT       P37
      000000EEH   SFRSYM    DATA     BYTE      SPDR
      000000EFH   SFRSYM    DATA     BYTE      SSCR
      000000D3H   SFRSYM    DATA     BYTE      ADDLYL
      000000DCH   SFRSYM    DATA     BYTE      ADRESL
      00000088H.1 SFRSYM    DATA     BIT       IE0
      00000088H.3 SFRSYM    DATA     BIT       IE1
      0000008FH   SFRSYM    DATA     BYTE      CLKDIV
      000000F0H   SFRSYM    DATA     BYTE      B
      00000091H   SFRSYM    DATA     BYTE      FUNCCR
      0000009AH   SFRSYM    DATA     BYTE      P0TRIS
      000000A1H   SFRSYM    DATA     BYTE      P1TRIS
      000000A2H   SFRSYM    DATA     BYTE      P2TRIS
      000000E0H   SFRSYM    DATA     BYTE      ACC
      000000A3H   SFRSYM    DATA     BYTE      P3TRIS
      000000A8H.4 SFRSYM    DATA     BIT       ES0
      000000A8H.6 SFRSYM    DATA     BIT       ES1
      000000A8H.1 SFRSYM    DATA     BIT       ET0
      000000EDH   SFRSYM    DATA     BYTE      SPSR
      000000A8H.3 SFRSYM    DATA     BIT       ET1
      00000088H.5 SFRSYM    DATA     BIT       TF0
      000000A8H.5 SFRSYM    DATA     BIT       ET2
      00000098H.0 SFRSYM    DATA     BIT       RI0
      00000088H.7 SFRSYM    DATA     BIT       TF1
      0000008CH   SFRSYM    DATA     BYTE      TH0
      000000A8H.0 SFRSYM    DATA     BIT       EX0
      00000098H.1 SFRSYM    DATA     BIT       TI0
      00000088H.0 SFRSYM    DATA     BIT       IT0
      0000008DH   SFRSYM    DATA     BYTE      TH1
      000000A8H.2 SFRSYM    DATA     BIT       EX1
      00000088H.2 SFRSYM    DATA     BIT       IT1
      000000CDH   SFRSYM    DATA     BYTE      TH2
      000000D0H.0 SFRSYM    DATA     BIT       P
      000000DBH   SFRSYM    DATA     BYTE      TH3
      000000E3H   SFRSYM    DATA     BYTE      TH4
      0000008AH   SFRSYM    DATA     BYTE      TL0
      0000008BH   SFRSYM    DATA     BYTE      TL1
      00000098H.2 SFRSYM    DATA     BIT       U0RB8
      000000CCH   SFRSYM    DATA     BYTE      TL2
      000000B8H.4 SFRSYM    DATA     BIT       PS0
      000000DAH   SFRSYM    DATA     BYTE      TL3
      000000BFH   SFRSYM    DATA     BYTE      BUZCON
      000000B8H.6 SFRSYM    DATA     BIT       PS1
      000000B8H.1 SFRSYM    DATA     BIT       PT0
      00000098H.3 SFRSYM    DATA     BIT       U0TB8
      000000E2H   SFRSYM    DATA     BYTE      TL4
      000000D0H.3 SFRSYM    DATA     BIT       RS0
      000000B8H.3 SFRSYM    DATA     BIT       PT1
      000000D0H.4 SFRSYM    DATA     BIT       RS1
      000000B8H.5 SFRSYM    DATA     BIT       PT2
      00000098H.7 SFRSYM    DATA     BIT       U0SM0
      00000088H.4 SFRSYM    DATA     BIT       TR0
      000000BEH   SFRSYM    DATA     BYTE      BUZDIV
      00000098H.6 SFRSYM    DATA     BIT       U0SM1
      00000088H.6 SFRSYM    DATA     BIT       TR1
      000000B8H.0 SFRSYM    DATA     BIT       PX0
      00000098H.5 SFRSYM    DATA     BIT       U0SM2
LX51 LINKER/LOCATER V4.66.97.0                                                        11/09/2024  20:20:28  PAGE 20


      000000B8H.2 SFRSYM    DATA     BIT       PX1
      000000BDH   SFRSYM    DATA     BYTE      WUTCRH
      00000099H   SFRSYM    DATA     BYTE      SBUF0
      000000EBH   SFRSYM    DATA     BYTE      SBUF1
      000000BCH   SFRSYM    DATA     BYTE      WUTCRL
      00000098H   SFRSYM    DATA     BYTE      SCON0
      000000EAH   SFRSYM    DATA     BYTE      SCON1
      000000C8H   SFRSYM    DATA     BYTE      T2CON
      00000086H   SFRSYM    DATA     BYTE      DPS
      000000FEH   SFRSYM    DATA     BYTE      MDATA
      000000F6H   SFRSYM    DATA     BYTE      I2CMBUF
      000000F1H   SFRSYM    DATA     BYTE      I2CSADR
      00000098H.4 SFRSYM    DATA     BIT       U0REN
      000000C8H.5 SFRSYM    DATA     BIT       CAPES
      000000FDH   SFRSYM    DATA     BYTE      MADRH
      0000008EH   SFRSYM    DATA     BYTE      CKCON
      000000F3H   SFRSYM    DATA     BYTE      I2CSBUF
      000000FCH   SFRSYM    DATA     BYTE      MADRL
      000000D0H.5 SFRSYM    DATA     BIT       F0
      000000FBH   SFRSYM    DATA     BYTE      MLOCK
      000000D0H   SFRSYM    DATA     BYTE      PSW
      00000097H   SFRSYM    DATA     BYTE      WDCON

      01002EEAH   BLOCK     CODE     ---       LVL=0
      01002EEAH   LINE      CODE     ---       #23
      01002EEAH   LINE      CODE     ---       #24
      01002EEAH   LINE      CODE     ---       #26
      01002EEDH   LINE      CODE     ---       #27
      01002EF2H   LINE      CODE     ---       #29
      01002EF5H   LINE      CODE     ---       #30
      01002EF8H   LINE      CODE     ---       #31
      01002EFBH   LINE      CODE     ---       #32
      01002EFEH   LINE      CODE     ---       #33
      01002F01H   LINE      CODE     ---       #34
      01002F04H   LINE      CODE     ---       #35
      01002F07H   LINE      CODE     ---       #36
      01002F0AH   LINE      CODE     ---       #37
      01002F0DH   LINE      CODE     ---       #38
      01002F10H   LINE      CODE     ---       #39
      01002F13H   LINE      CODE     ---       #40
      01002F18H   LINE      CODE     ---       #42
      01002F18H   LINE      CODE     ---       #43
      01002F18H   LINE      CODE     ---       #45
      01002F1BH   LINE      CODE     ---       #46
      01002F1EH   LINE      CODE     ---       #47
      01002F21H   LINE      CODE     ---       #48
      01002F24H   LINE      CODE     ---       #49
      01002F27H   LINE      CODE     ---       #50
      01002F2AH   LINE      CODE     ---       #51
      01002F2DH   LINE      CODE     ---       #53
      01002F30H   LINE      CODE     ---       #54
      01002F32H   LINE      CODE     ---       #55
      01002F35H   LINE      CODE     ---       #56
      01002F38H   LINE      CODE     ---       #57
      01002F3BH   LINE      CODE     ---       #58
      01002F3EH   LINE      CODE     ---       #59
      01002F41H   LINE      CODE     ---       #60
      01002F44H   LINE      CODE     ---       #61
      01002F47H   LINE      CODE     ---       #62
      01002F4AH   LINE      CODE     ---       #63
      01002F4DH   LINE      CODE     ---       #64
      01002F50H   LINE      CODE     ---       #65
      ---         BLOCKEND  ---      ---       LVL=0

      0100322CH   BLOCK     CODE     ---       LVL=0
LX51 LINKER/LOCATER V4.66.97.0                                                        11/09/2024  20:20:28  PAGE 21


      0100322CH   LINE      CODE     ---       #69
      01003249H   LINE      CODE     ---       #72
      01003253H   LINE      CODE     ---       #73
      01003253H   LINE      CODE     ---       #74
      01003256H   LINE      CODE     ---       #75
      0100325DH   LINE      CODE     ---       #76
      0100325DH   LINE      CODE     ---       #77
      ---         BLOCKEND  ---      ---       LVL=0

      ---         MODULE    ---      ---       GPIO
      010032C3H   PUBLIC    CODE     ---       _GPIO_ClearIntFlag
      01003189H   PUBLIC    CODE     ---       _GPIO_GetIntFlag
      01002E0DH   PUBLIC    CODE     ---       _GPIO_SetMUXMode
      01002A82H   PUBLIC    CODE     ---       _GPIO_GetExtIntMode
      01003078H   PUBLIC    CODE     ---       _GPIO_SetExtIntMode
      00000022H.1 PUBLIC    BIT      BIT       ?_GPIO_WriteBit?BIT
      010022B8H   PUBLIC    CODE     ---       _GPIO_WriteBit
      01003748H   PUBLIC    CODE     ---       _GPIO_DisableInt
      010035D8H   PUBLIC    CODE     ---       _GPIO_CheckIfIntEnabled
      0100380EH   PUBLIC    CODE     ---       _GPIO_EnableInt
      01000CDDH   PUBLIC    CODE     ---       _GPIO_ConfigGPIOMode
      000000C8H.0 SFRSYM    DATA     BIT       T2I0
      000000C3H   SFRSYM    DATA     BYTE      CCH1
      00000080H   SFRSYM    DATA     BYTE      P0
      000000C8H.1 SFRSYM    DATA     BIT       T2I1
      000000C5H   SFRSYM    DATA     BYTE      CCH2
      00000090H   SFRSYM    DATA     BYTE      P1
      000000C7H   SFRSYM    DATA     BYTE      CCH3
      000000ACH   SFRSYM    DATA     BYTE      P0EXTIE
      000000A0H   SFRSYM    DATA     BYTE      P2
      000000B4H   SFRSYM    DATA     BYTE      P0EXTIF
      000000B0H   SFRSYM    DATA     BYTE      P3
      000000ADH   SFRSYM    DATA     BYTE      P1EXTIE
      000000D0H.6 SFRSYM    DATA     BIT       AC
      000000FFH   SFRSYM    DATA     BYTE      MCTRL
      000000C2H   SFRSYM    DATA     BYTE      CCL1
      000000B5H   SFRSYM    DATA     BYTE      P1EXTIF
      000000AEH   SFRSYM    DATA     BYTE      P2EXTIE
      000000C4H   SFRSYM    DATA     BYTE      CCL2
      000000B6H   SFRSYM    DATA     BYTE      P2EXTIF
      000000AFH   SFRSYM    DATA     BYTE      P3EXTIE
      000000A8H.7 SFRSYM    DATA     BIT       EA
      000000C6H   SFRSYM    DATA     BYTE      CCL3
      000000B7H   SFRSYM    DATA     BYTE      P3EXTIF
      000000AAH   SFRSYM    DATA     BYTE      EIE2
      000000B2H   SFRSYM    DATA     BYTE      EIF2
      000000C8H.3 SFRSYM    DATA     BIT       T2R0
      000000C8H.4 SFRSYM    DATA     BIT       T2R1
      00000083H   SFRSYM    DATA     BYTE      DPH0
      000000A8H   SFRSYM    DATA     BYTE      IE
      00000085H   SFRSYM    DATA     BYTE      DPH1
      000000B9H   SFRSYM    DATA     BYTE      EIP1
      000000BAH   SFRSYM    DATA     BYTE      EIP2
      00000082H   SFRSYM    DATA     BYTE      DPL0
      00000084H   SFRSYM    DATA     BYTE      DPL1
      000000C8H.6 SFRSYM    DATA     BIT       I3FR
      000000CFH   SFRSYM    DATA     BYTE      T2IE
      00000096H   SFRSYM    DATA     BYTE      TA
      000000C9H   SFRSYM    DATA     BYTE      T2IF
      000000C8H.2 SFRSYM    DATA     BIT       T2CM
      000000DFH   SFRSYM    DATA     BYTE      ADCON0
      000000DEH   SFRSYM    DATA     BYTE      ADCON1
      000000E9H   SFRSYM    DATA     BYTE      ADCON2
      000000B8H   SFRSYM    DATA     BYTE      IP
      000000CEH   SFRSYM    DATA     BYTE      CCEN
LX51 LINKER/LOCATER V4.66.97.0                                                        11/09/2024  20:20:28  PAGE 22


      000000D0H.7 SFRSYM    DATA     BIT       CY
      000000D2H   SFRSYM    DATA     BYTE      T34MOD
      00000093H   SFRSYM    DATA     BYTE      DPX0
      00000095H   SFRSYM    DATA     BYTE      DPX1
      000000F4H   SFRSYM    DATA     BYTE      I2CMSA
      000000F5H   SFRSYM    DATA     BYTE      I2CMCR
      00000081H   SFRSYM    DATA     BYTE      SP
      000000D0H.2 SFRSYM    DATA     BIT       OV
      000000F2H   SFRSYM    DATA     BYTE      I2CSCR
      000000C8H.7 SFRSYM    DATA     BIT       T2PS
      000000D1H   SFRSYM    DATA     BYTE      ADCMPC
      000000CBH   SFRSYM    DATA     BYTE      RLDH
      000000D5H   SFRSYM    DATA     BYTE      ADCMPH
      000000CAH   SFRSYM    DATA     BYTE      RLDL
      00000080H.0 SFRSYM    DATA     BIT       P00
      00000090H.0 SFRSYM    DATA     BIT       P10
      00000080H.1 SFRSYM    DATA     BIT       P01
      000000F7H   SFRSYM    DATA     BYTE      I2CMTP
      00000099H   SFRSYM    DATA     BYTE      SBUF
      00000087H   SFRSYM    DATA     BYTE      PCON
      000000A0H.0 SFRSYM    DATA     BIT       P20
      00000090H.1 SFRSYM    DATA     BIT       P11
      00000080H.2 SFRSYM    DATA     BIT       P02
      000000F5H   SFRSYM    DATA     BYTE      I2CMSR
      000000B0H.0 SFRSYM    DATA     BIT       P30
      000000A0H.1 SFRSYM    DATA     BIT       P21
      00000090H.2 SFRSYM    DATA     BIT       P12
      00000080H.3 SFRSYM    DATA     BIT       P03
      000000D4H   SFRSYM    DATA     BYTE      ADCMPL
      000000B0H.1 SFRSYM    DATA     BIT       P31
      000000A0H.2 SFRSYM    DATA     BIT       P22
      00000090H.3 SFRSYM    DATA     BIT       P13
      00000080H.4 SFRSYM    DATA     BIT       P04
      000000B0H.2 SFRSYM    DATA     BIT       P32
      000000A0H.3 SFRSYM    DATA     BIT       P23
      00000090H.4 SFRSYM    DATA     BIT       P14
      00000080H.5 SFRSYM    DATA     BIT       P05
      00000089H   SFRSYM    DATA     BYTE      TMOD
      00000088H   SFRSYM    DATA     BYTE      TCON
      000000B0H.3 SFRSYM    DATA     BIT       P33
      000000A0H.4 SFRSYM    DATA     BIT       P24
      00000090H.5 SFRSYM    DATA     BIT       P15
      00000080H.6 SFRSYM    DATA     BIT       P06
      000000B0H.4 SFRSYM    DATA     BIT       P34
      000000A0H.5 SFRSYM    DATA     BIT       P25
      00000090H.6 SFRSYM    DATA     BIT       P16
      00000080H.7 SFRSYM    DATA     BIT       P07
      000000B0H.5 SFRSYM    DATA     BIT       P35
      000000A0H.6 SFRSYM    DATA     BIT       P26
      00000090H.7 SFRSYM    DATA     BIT       P17
      000000F2H   SFRSYM    DATA     BYTE      I2CSSR
      000000B0H.6 SFRSYM    DATA     BIT       P36
      000000A0H.7 SFRSYM    DATA     BIT       P27
      000000ECH   SFRSYM    DATA     BYTE      SPCR
      000000DDH   SFRSYM    DATA     BYTE      ADRESH
      000000B0H.7 SFRSYM    DATA     BIT       P37
      000000EEH   SFRSYM    DATA     BYTE      SPDR
      000000EFH   SFRSYM    DATA     BYTE      SSCR
      000000D3H   SFRSYM    DATA     BYTE      ADDLYL
      000000DCH   SFRSYM    DATA     BYTE      ADRESL
      00000088H.1 SFRSYM    DATA     BIT       IE0
      00000088H.3 SFRSYM    DATA     BIT       IE1
      0000008FH   SFRSYM    DATA     BYTE      CLKDIV
      000000F0H   SFRSYM    DATA     BYTE      B
      00000091H   SFRSYM    DATA     BYTE      FUNCCR
LX51 LINKER/LOCATER V4.66.97.0                                                        11/09/2024  20:20:28  PAGE 23


      0000009AH   SFRSYM    DATA     BYTE      P0TRIS
      000000A1H   SFRSYM    DATA     BYTE      P1TRIS
      000000A2H   SFRSYM    DATA     BYTE      P2TRIS
      000000E0H   SFRSYM    DATA     BYTE      ACC
      000000A3H   SFRSYM    DATA     BYTE      P3TRIS
      000000A8H.4 SFRSYM    DATA     BIT       ES0
      000000A8H.6 SFRSYM    DATA     BIT       ES1
      000000A8H.1 SFRSYM    DATA     BIT       ET0
      000000EDH   SFRSYM    DATA     BYTE      SPSR
      000000A8H.3 SFRSYM    DATA     BIT       ET1
      00000088H.5 SFRSYM    DATA     BIT       TF0
      000000A8H.5 SFRSYM    DATA     BIT       ET2
      00000098H.0 SFRSYM    DATA     BIT       RI0
      00000088H.7 SFRSYM    DATA     BIT       TF1
      0000008CH   SFRSYM    DATA     BYTE      TH0
      000000A8H.0 SFRSYM    DATA     BIT       EX0
      00000098H.1 SFRSYM    DATA     BIT       TI0
      00000088H.0 SFRSYM    DATA     BIT       IT0
      0000008DH   SFRSYM    DATA     BYTE      TH1
      000000A8H.2 SFRSYM    DATA     BIT       EX1
      00000088H.2 SFRSYM    DATA     BIT       IT1
      000000CDH   SFRSYM    DATA     BYTE      TH2
      000000D0H.0 SFRSYM    DATA     BIT       P
      000000DBH   SFRSYM    DATA     BYTE      TH3
      000000E3H   SFRSYM    DATA     BYTE      TH4
      0000008AH   SFRSYM    DATA     BYTE      TL0
      0000008BH   SFRSYM    DATA     BYTE      TL1
      00000098H.2 SFRSYM    DATA     BIT       U0RB8
      000000CCH   SFRSYM    DATA     BYTE      TL2
      000000B8H.4 SFRSYM    DATA     BIT       PS0
      000000DAH   SFRSYM    DATA     BYTE      TL3
      000000BFH   SFRSYM    DATA     BYTE      BUZCON
      000000B8H.6 SFRSYM    DATA     BIT       PS1
      000000B8H.1 SFRSYM    DATA     BIT       PT0
      00000098H.3 SFRSYM    DATA     BIT       U0TB8
      000000E2H   SFRSYM    DATA     BYTE      TL4
      000000D0H.3 SFRSYM    DATA     BIT       RS0
      000000B8H.3 SFRSYM    DATA     BIT       PT1
      000000D0H.4 SFRSYM    DATA     BIT       RS1
      000000B8H.5 SFRSYM    DATA     BIT       PT2
      00000098H.7 SFRSYM    DATA     BIT       U0SM0
      00000088H.4 SFRSYM    DATA     BIT       TR0
      000000BEH   SFRSYM    DATA     BYTE      BUZDIV
      00000098H.6 SFRSYM    DATA     BIT       U0SM1
      00000088H.6 SFRSYM    DATA     BIT       TR1
      000000B8H.0 SFRSYM    DATA     BIT       PX0
      00000098H.5 SFRSYM    DATA     BIT       U0SM2
      000000B8H.2 SFRSYM    DATA     BIT       PX1
      000000BDH   SFRSYM    DATA     BYTE      WUTCRH
      00000099H   SFRSYM    DATA     BYTE      SBUF0
      000000EBH   SFRSYM    DATA     BYTE      SBUF1
      000000BCH   SFRSYM    DATA     BYTE      WUTCRL
      00000098H   SFRSYM    DATA     BYTE      SCON0
      000000EAH   SFRSYM    DATA     BYTE      SCON1
      000000C8H   SFRSYM    DATA     BYTE      T2CON
      00000086H   SFRSYM    DATA     BYTE      DPS
      000000FEH   SFRSYM    DATA     BYTE      MDATA
      000000F6H   SFRSYM    DATA     BYTE      I2CMBUF
      000000F1H   SFRSYM    DATA     BYTE      I2CSADR
      00000098H.4 SFRSYM    DATA     BIT       U0REN
      000000C8H.5 SFRSYM    DATA     BIT       CAPES
      000000FDH   SFRSYM    DATA     BYTE      MADRH
      0000008EH   SFRSYM    DATA     BYTE      CKCON
      000000F3H   SFRSYM    DATA     BYTE      I2CSBUF
      000000FCH   SFRSYM    DATA     BYTE      MADRL
LX51 LINKER/LOCATER V4.66.97.0                                                        11/09/2024  20:20:28  PAGE 24


      000000D0H.5 SFRSYM    DATA     BIT       F0
      000000FBH   SFRSYM    DATA     BYTE      MLOCK
      000000D0H   SFRSYM    DATA     BYTE      PSW
      00000097H   SFRSYM    DATA     BYTE      WDCON

      01002420H   BLOCK     CODE     ---       LVL=0
      ---         BLOCKEND  ---      ---       LVL=0

      01000CDDH   BLOCK     CODE     ---       LVL=0
      00000028H   SYMBOL    DATA     BYTE      Port
      00000005H   SYMBOL    DATA     BYTE      PinMSK
      00000001H   SYMBOL    DATA     ---       Cfg
      01000CDFH   BLOCK     CODE     NEAR LAB  LVL=1
      00000029H   SYMBOL    DATA     INT       TRISMSK
      0000002BH   SYMBOL    DATA     INT       ODMSK
      0000002DH   SYMBOL    DATA     INT       UPMSK
      0000002FH   SYMBOL    DATA     INT       RDMSK
      00000006H   SYMBOL    DATA     INT       DRMSK
      00000031H   SYMBOL    DATA     INT       SRMSK
      ---         BLOCKEND  ---      ---       LVL=1
      01000CDDH   LINE      CODE     ---       #77
      01000CDFH   LINE      CODE     ---       #78
      01000CDFH   LINE      CODE     ---       #82
      01000CF3H   LINE      CODE     ---       #83
      01000CF3H   LINE      CODE     ---       #84
      01000CF3H   LINE      CODE     ---       #85
      01000CF3H   LINE      CODE     ---       #86
      01000CF3H   LINE      CODE     ---       #87
      01000CF6H   LINE      CODE     ---       #88
      01000CF9H   LINE      CODE     ---       #89
      01000CFBH   LINE      CODE     ---       #90
      01000CFBH   LINE      CODE     ---       #91
      01000CFBH   LINE      CODE     ---       #92
      01000CFBH   LINE      CODE     ---       #93
      01000D07H   LINE      CODE     ---       #94
      01000D0FH   LINE      CODE     ---       #95
      01000D11H   LINE      CODE     ---       #96
      01000D11H   LINE      CODE     ---       #97
      01000D11H   LINE      CODE     ---       #98
      01000D11H   LINE      CODE     ---       #99
      01000D1DH   LINE      CODE     ---       #100
      01000D27H   LINE      CODE     ---       #101
      01000D29H   LINE      CODE     ---       #102
      01000D29H   LINE      CODE     ---       #103
      01000D29H   LINE      CODE     ---       #104
      01000D2AH   LINE      CODE     ---       #105
      01000D30H   LINE      CODE     ---       #106
      01000D3AH   LINE      CODE     ---       #107
      01000D4FH   LINE      CODE     ---       #108
      01000D4FH   LINE      CODE     ---       #109
      01000D67H   LINE      CODE     ---       #110
      01000D7BH   LINE      CODE     ---       #112
      01000D96H   LINE      CODE     ---       #113
      01000D96H   LINE      CODE     ---       #114
      01000D96H   LINE      CODE     ---       #115
      01000DA9H   LINE      CODE     ---       #116
      01000DC1H   LINE      CODE     ---       #117
      01000DD6H   LINE      CODE     ---       #118
      01000DEBH   LINE      CODE     ---       #119
      01000E01H   LINE      CODE     ---       #120
      01000E18H   LINE      CODE     ---       #121
      01000E19H   LINE      CODE     ---       #122
      01000E19H   LINE      CODE     ---       #123
      01000E2CH   LINE      CODE     ---       #124
      01000E44H   LINE      CODE     ---       #125
LX51 LINKER/LOCATER V4.66.97.0                                                        11/09/2024  20:20:28  PAGE 25


      01000E59H   LINE      CODE     ---       #126
      01000E6EH   LINE      CODE     ---       #127
      01000E84H   LINE      CODE     ---       #128
      01000E9BH   LINE      CODE     ---       #129
      01000E9CH   LINE      CODE     ---       #130
      01000E9CH   LINE      CODE     ---       #131
      01000EAFH   LINE      CODE     ---       #132
      01000EC7H   LINE      CODE     ---       #133
      01000EDCH   LINE      CODE     ---       #134
      01000EF1H   LINE      CODE     ---       #135
      01000F07H   LINE      CODE     ---       #136
      01000F1EH   LINE      CODE     ---       #137
      01000F1FH   LINE      CODE     ---       #138
      01000F1FH   LINE      CODE     ---       #139
      01000F32H   LINE      CODE     ---       #140
      01000F4AH   LINE      CODE     ---       #141
      01000F5FH   LINE      CODE     ---       #142
      01000F74H   LINE      CODE     ---       #143
      01000F8DH   LINE      CODE     ---       #144
      01000FA9H   LINE      CODE     ---       #145
      01000FA9H   LINE      CODE     ---       #146
      01000FA9H   LINE      CODE     ---       #147
      ---         BLOCKEND  ---      ---       LVL=0

      0100380EH   BLOCK     CODE     ---       LVL=0
      00000007H   SYMBOL    DATA     BYTE      Port
      00000005H   SYMBOL    DATA     BYTE      PinMSK
      0100380EH   LINE      CODE     ---       #161
      0100380EH   LINE      CODE     ---       #162
      0100380EH   LINE      CODE     ---       #163
      0100381CH   LINE      CODE     ---       #164
      0100381CH   LINE      CODE     ---       #165
      0100381CH   LINE      CODE     ---       #166
      0100381FH   LINE      CODE     ---       #167
      01003820H   LINE      CODE     ---       #168
      01003820H   LINE      CODE     ---       #169
      01003823H   LINE      CODE     ---       #170
      01003824H   LINE      CODE     ---       #171
      01003824H   LINE      CODE     ---       #172
      01003827H   LINE      CODE     ---       #173
      01003828H   LINE      CODE     ---       #174
      01003828H   LINE      CODE     ---       #175
      0100382BH   LINE      CODE     ---       #176
      0100382BH   LINE      CODE     ---       #177
      0100382BH   LINE      CODE     ---       #178
      0100382BH   LINE      CODE     ---       #179
      0100382BH   LINE      CODE     ---       #180
      ---         BLOCKEND  ---      ---       LVL=0

      010035D8H   BLOCK     CODE     ---       LVL=0
      00000007H   SYMBOL    DATA     BYTE      Port
      00000005H   SYMBOL    DATA     BYTE      PinMSK
      010035D8H   LINE      CODE     ---       #193
      010035D8H   LINE      CODE     ---       #194
      010035D8H   LINE      CODE     ---       #195
      010035E6H   LINE      CODE     ---       #196
      010035E6H   LINE      CODE     ---       #197
      010035E6H   LINE      CODE     ---       #198
      010035EDH   LINE      CODE     ---       #199
      010035EDH   LINE      CODE     ---       #200
      010035EDH   LINE      CODE     ---       #201
      010035F4H   LINE      CODE     ---       #202
      010035F4H   LINE      CODE     ---       #203
      010035F4H   LINE      CODE     ---       #204
      010035FBH   LINE      CODE     ---       #205
LX51 LINKER/LOCATER V4.66.97.0                                                        11/09/2024  20:20:28  PAGE 26


      010035FBH   LINE      CODE     ---       #206
      010035FBH   LINE      CODE     ---       #207
      01003602H   LINE      CODE     ---       #208
      01003602H   LINE      CODE     ---       #209
      01003602H   LINE      CODE     ---       #211
      01003603H   LINE      CODE     ---       #212
      ---         BLOCKEND  ---      ---       LVL=0

      01003748H   BLOCK     CODE     ---       LVL=0
      00000007H   SYMBOL    DATA     BYTE      Port
      00000005H   SYMBOL    DATA     BYTE      PinMSK
      01003748H   LINE      CODE     ---       #225
      01003748H   LINE      CODE     ---       #226
      01003748H   LINE      CODE     ---       #227
      01003756H   LINE      CODE     ---       #228
      01003756H   LINE      CODE     ---       #229
      01003756H   LINE      CODE     ---       #230
      0100375AH   LINE      CODE     ---       #231
      0100375BH   LINE      CODE     ---       #232
      0100375BH   LINE      CODE     ---       #233
      0100375FH   LINE      CODE     ---       #234
      01003760H   LINE      CODE     ---       #235
      01003760H   LINE      CODE     ---       #236
      01003764H   LINE      CODE     ---       #237
      01003765H   LINE      CODE     ---       #238
      01003765H   LINE      CODE     ---       #239
      01003769H   LINE      CODE     ---       #240
      01003769H   LINE      CODE     ---       #241
      01003769H   LINE      CODE     ---       #242
      01003769H   LINE      CODE     ---       #243
      01003769H   LINE      CODE     ---       #244
      ---         BLOCKEND  ---      ---       LVL=0

      010022B8H   BLOCK     CODE     ---       LVL=0
      00000007H   SYMBOL    DATA     BYTE      Port
      00000005H   SYMBOL    DATA     BYTE      PinNum
      00000022H.1 SYMBOL    BIT      BIT       Val
      010022B8H   LINE      CODE     ---       #259
      010022B8H   LINE      CODE     ---       #260
      010022B8H   LINE      CODE     ---       #261
      010022CCH   LINE      CODE     ---       #262
      010022CCH   LINE      CODE     ---       #263
      010022CCH   LINE      CODE     ---       #264
      010022D4H   LINE      CODE     ---       #265
      010022E5H   LINE      CODE     ---       #266
      010022F3H   LINE      CODE     ---       #267
      010022F4H   LINE      CODE     ---       #268
      010022F4H   LINE      CODE     ---       #269
      010022FEH   LINE      CODE     ---       #270
      0100230FH   LINE      CODE     ---       #271
      0100231DH   LINE      CODE     ---       #272
      0100231EH   LINE      CODE     ---       #273
      0100231EH   LINE      CODE     ---       #274
      01002328H   LINE      CODE     ---       #275
      01002339H   LINE      CODE     ---       #276
      01002347H   LINE      CODE     ---       #277
      01002348H   LINE      CODE     ---       #278
      01002348H   LINE      CODE     ---       #279
      0100234EH   LINE      CODE     ---       #280
      0100235FH   LINE      CODE     ---       #281
      0100236BH   LINE      CODE     ---       #282
      0100236BH   LINE      CODE     ---       #283
      0100236BH   LINE      CODE     ---       #284
      0100236BH   LINE      CODE     ---       #285
      ---         BLOCKEND  ---      ---       LVL=0
LX51 LINKER/LOCATER V4.66.97.0                                                        11/09/2024  20:20:28  PAGE 27



      01003078H   BLOCK     CODE     ---       LVL=0
      00000007H   SYMBOL    DATA     BYTE      Port
      00000005H   SYMBOL    DATA     BYTE      PinNum
      00000003H   SYMBOL    DATA     BYTE      Mode
      01003078H   BLOCK     CODE     NEAR LAB  LVL=1
      00000026H   SYMBOL    DATA     ---       PCFG
      ---         BLOCKEND  ---      ---       LVL=1
      01003078H   LINE      CODE     ---       #302
      01003078H   LINE      CODE     ---       #303
      01003078H   LINE      CODE     ---       #306
      0100307FH   LINE      CODE     ---       #308
      0100308DH   LINE      CODE     ---       #309
      0100308DH   LINE      CODE     ---       #310
      0100308DH   LINE      CODE     ---       #311
      01003092H   LINE      CODE     ---       #312
      01003095H   LINE      CODE     ---       #313
      01003097H   LINE      CODE     ---       #314
      01003097H   LINE      CODE     ---       #315
      010030A1H   LINE      CODE     ---       #316
      010030A4H   LINE      CODE     ---       #317
      010030A6H   LINE      CODE     ---       #318
      010030A6H   LINE      CODE     ---       #319
      010030B0H   LINE      CODE     ---       #320
      010030B6H   LINE      CODE     ---       #321
      010030B8H   LINE      CODE     ---       #322
      010030B8H   LINE      CODE     ---       #323
      010030BEH   LINE      CODE     ---       #324
      010030C8H   LINE      CODE     ---       #325
      010030C8H   LINE      CODE     ---       #326
      010030C8H   LINE      CODE     ---       #327
      010030C8H   LINE      CODE     ---       #328
      010030D2H   LINE      CODE     ---       #329
      ---         BLOCKEND  ---      ---       LVL=0

      01002A82H   BLOCK     CODE     ---       LVL=0
      00000007H   SYMBOL    DATA     BYTE      Port
      00000005H   SYMBOL    DATA     BYTE      PinNum
      01002A82H   BLOCK     CODE     NEAR LAB  LVL=1
      00000004H   SYMBOL    DATA     BYTE      flag
      00000002H   SYMBOL    DATA     ---       PCFG
      ---         BLOCKEND  ---      ---       LVL=1
      01002A82H   LINE      CODE     ---       #347
      01002A82H   LINE      CODE     ---       #348
      01002A82H   LINE      CODE     ---       #352
      01002A90H   LINE      CODE     ---       #353
      01002A90H   LINE      CODE     ---       #354
      01002A90H   LINE      CODE     ---       #355
      01002A97H   LINE      CODE     ---       #356
      01002A9AH   LINE      CODE     ---       #357
      01002AA6H   LINE      CODE     ---       #358
      01002AA8H   LINE      CODE     ---       #359
      01002AA8H   LINE      CODE     ---       #360
      01002AB4H   LINE      CODE     ---       #361
      01002AB7H   LINE      CODE     ---       #362
      01002AC3H   LINE      CODE     ---       #363
      01002AC5H   LINE      CODE     ---       #364
      01002AC5H   LINE      CODE     ---       #365
      01002AD1H   LINE      CODE     ---       #366
      01002AD4H   LINE      CODE     ---       #367
      01002AE0H   LINE      CODE     ---       #368
      01002AE2H   LINE      CODE     ---       #369
      01002AE2H   LINE      CODE     ---       #370
      01002AEAH   LINE      CODE     ---       #371
      01002AF2H   LINE      CODE     ---       #372
LX51 LINKER/LOCATER V4.66.97.0                                                        11/09/2024  20:20:28  PAGE 28


      01002AFEH   LINE      CODE     ---       #373
      01002B00H   LINE      CODE     ---       #374
      01002B04H   LINE      CODE     ---       #375
      01002B04H   LINE      CODE     ---       #377
      01002B0AH   LINE      CODE     ---       #378
      01002B14H   LINE      CODE     ---       #379
      ---         BLOCKEND  ---      ---       LVL=0

      01002E0DH   BLOCK     CODE     ---       LVL=0
      00000007H   SYMBOL    DATA     BYTE      Port
      00000005H   SYMBOL    DATA     BYTE      PinNum
      00000003H   SYMBOL    DATA     BYTE      Mode
      01002E0DH   BLOCK     CODE     NEAR LAB  LVL=1
      00000028H   SYMBOL    DATA     ---       PCFG
      ---         BLOCKEND  ---      ---       LVL=1
      01002E0DH   LINE      CODE     ---       #418
      01002E0DH   LINE      CODE     ---       #419
      01002E0DH   LINE      CODE     ---       #422
      01002E1AH   LINE      CODE     ---       #423
      01002E2BH   LINE      CODE     ---       #425
      01002E39H   LINE      CODE     ---       #426
      01002E39H   LINE      CODE     ---       #427
      01002E39H   LINE      CODE     ---       #428
      01002E3EH   LINE      CODE     ---       #429
      01002E41H   LINE      CODE     ---       #430
      01002E43H   LINE      CODE     ---       #431
      01002E43H   LINE      CODE     ---       #432
      01002E4DH   LINE      CODE     ---       #433
      01002E50H   LINE      CODE     ---       #434
      01002E52H   LINE      CODE     ---       #435
      01002E52H   LINE      CODE     ---       #436
      01002E5CH   LINE      CODE     ---       #437
      01002E62H   LINE      CODE     ---       #438
      01002E64H   LINE      CODE     ---       #439
      01002E64H   LINE      CODE     ---       #440
      01002E6AH   LINE      CODE     ---       #441
      01002E74H   LINE      CODE     ---       #442
      01002E74H   LINE      CODE     ---       #443
      01002E74H   LINE      CODE     ---       #444
      01002E74H   LINE      CODE     ---       #445
      01002E7EH   LINE      CODE     ---       #446
      ---         BLOCKEND  ---      ---       LVL=0

      01003189H   BLOCK     CODE     ---       LVL=0
      00000007H   SYMBOL    DATA     BYTE      Port
      00000005H   SYMBOL    DATA     BYTE      PinNum
      01003189H   BLOCK     CODE     NEAR LAB  LVL=1
      00000006H   SYMBOL    DATA     BYTE      PinIntFlag
      ---         BLOCKEND  ---      ---       LVL=1
      01003189H   LINE      CODE     ---       #461
      01003189H   LINE      CODE     ---       #462
      01003189H   LINE      CODE     ---       #463
      0100318BH   LINE      CODE     ---       #464
      01003199H   LINE      CODE     ---       #465
      01003199H   LINE      CODE     ---       #466
      01003199H   LINE      CODE     ---       #467
      010031A7H   LINE      CODE     ---       #468
      010031A9H   LINE      CODE     ---       #469
      010031A9H   LINE      CODE     ---       #470
      010031B7H   LINE      CODE     ---       #471
      010031B9H   LINE      CODE     ---       #472
      010031B9H   LINE      CODE     ---       #473
      010031C7H   LINE      CODE     ---       #474
      010031C9H   LINE      CODE     ---       #475
      010031C9H   LINE      CODE     ---       #476
LX51 LINKER/LOCATER V4.66.97.0                                                        11/09/2024  20:20:28  PAGE 29


      010031D5H   LINE      CODE     ---       #477
      010031D5H   LINE      CODE     ---       #478
      010031D5H   LINE      CODE     ---       #479
      010031D5H   LINE      CODE     ---       #480
      010031D5H   LINE      CODE     ---       #481
      010031DCH   LINE      CODE     ---       #482
      ---         BLOCKEND  ---      ---       LVL=0

      010032C3H   BLOCK     CODE     ---       LVL=0
      00000007H   SYMBOL    DATA     BYTE      Port
      00000005H   SYMBOL    DATA     BYTE      PinNum
      010032C3H   LINE      CODE     ---       #495
      010032C3H   LINE      CODE     ---       #496
      010032C3H   LINE      CODE     ---       #497
      010032D1H   LINE      CODE     ---       #498
      010032D1H   LINE      CODE     ---       #499
      010032D1H   LINE      CODE     ---       #500
      010032DFH   LINE      CODE     ---       #501
      010032E0H   LINE      CODE     ---       #502
      010032E0H   LINE      CODE     ---       #503
      010032EEH   LINE      CODE     ---       #504
      010032EFH   LINE      CODE     ---       #505
      010032EFH   LINE      CODE     ---       #506
      010032FDH   LINE      CODE     ---       #507
      010032FEH   LINE      CODE     ---       #508
      010032FEH   LINE      CODE     ---       #509
      0100330AH   LINE      CODE     ---       #510
      0100330AH   LINE      CODE     ---       #511
      0100330AH   LINE      CODE     ---       #512
      0100330AH   LINE      CODE     ---       #513
      0100330AH   LINE      CODE     ---       #514
      ---         BLOCKEND  ---      ---       LVL=0

      ---         MODULE    ---      ---       ADCCFG
      00000009H   PUBLIC    DATA     ---       Data
      02000045H   PUBLIC    XDATA    BYTE      IsNotAllowAsync
      01003BCDH   PUBLIC    CONST    ---       ADCChQueue
      01002773H   PUBLIC    CODE     ---       ADC_Init
      010024CDH   PUBLIC    CODE     ---       ADC_DeInit
      01003948H   PUBLIC    CODE     ---       SystemTelemHandler
      000000C8H.0 SFRSYM    DATA     BIT       T2I0
      000000C3H   SFRSYM    DATA     BYTE      CCH1
      00000080H   SFRSYM    DATA     BYTE      P0
      000000C8H.1 SFRSYM    DATA     BIT       T2I1
      000000C5H   SFRSYM    DATA     BYTE      CCH2
      00000090H   SFRSYM    DATA     BYTE      P1
      000000C7H   SFRSYM    DATA     BYTE      CCH3
      000000ACH   SFRSYM    DATA     BYTE      P0EXTIE
      000000A0H   SFRSYM    DATA     BYTE      P2
      000000B4H   SFRSYM    DATA     BYTE      P0EXTIF
      000000B0H   SFRSYM    DATA     BYTE      P3
      000000ADH   SFRSYM    DATA     BYTE      P1EXTIE
      000000D0H.6 SFRSYM    DATA     BIT       AC
      000000FFH   SFRSYM    DATA     BYTE      MCTRL
      000000C2H   SFRSYM    DATA     BYTE      CCL1
      000000B5H   SFRSYM    DATA     BYTE      P1EXTIF
      000000AEH   SFRSYM    DATA     BYTE      P2EXTIE
      000000C4H   SFRSYM    DATA     BYTE      CCL2
      000000B6H   SFRSYM    DATA     BYTE      P2EXTIF
      000000AFH   SFRSYM    DATA     BYTE      P3EXTIE
      000000A8H.7 SFRSYM    DATA     BIT       EA
      000000C6H   SFRSYM    DATA     BYTE      CCL3
      000000B7H   SFRSYM    DATA     BYTE      P3EXTIF
      000000AAH   SFRSYM    DATA     BYTE      EIE2
      000000B2H   SFRSYM    DATA     BYTE      EIF2
LX51 LINKER/LOCATER V4.66.97.0                                                        11/09/2024  20:20:28  PAGE 30


      000000C8H.3 SFRSYM    DATA     BIT       T2R0
      000000C8H.4 SFRSYM    DATA     BIT       T2R1
      00000083H   SFRSYM    DATA     BYTE      DPH0
      000000A8H   SFRSYM    DATA     BYTE      IE
      00000085H   SFRSYM    DATA     BYTE      DPH1
      000000B9H   SFRSYM    DATA     BYTE      EIP1
      000000BAH   SFRSYM    DATA     BYTE      EIP2
      00000082H   SFRSYM    DATA     BYTE      DPL0
      00000084H   SFRSYM    DATA     BYTE      DPL1
      000000C8H.6 SFRSYM    DATA     BIT       I3FR
      000000CFH   SFRSYM    DATA     BYTE      T2IE
      00000096H   SFRSYM    DATA     BYTE      TA
      000000C9H   SFRSYM    DATA     BYTE      T2IF
      000000C8H.2 SFRSYM    DATA     BIT       T2CM
      000000DFH   SFRSYM    DATA     BYTE      ADCON0
      000000DEH   SFRSYM    DATA     BYTE      ADCON1
      000000E9H   SFRSYM    DATA     BYTE      ADCON2
      000000B8H   SFRSYM    DATA     BYTE      IP
      000000CEH   SFRSYM    DATA     BYTE      CCEN
      000000D0H.7 SFRSYM    DATA     BIT       CY
      000000D2H   SFRSYM    DATA     BYTE      T34MOD
      00000093H   SFRSYM    DATA     BYTE      DPX0
      00000095H   SFRSYM    DATA     BYTE      DPX1
      000000F4H   SFRSYM    DATA     BYTE      I2CMSA
      000000F5H   SFRSYM    DATA     BYTE      I2CMCR
      00000081H   SFRSYM    DATA     BYTE      SP
      000000D0H.2 SFRSYM    DATA     BIT       OV
      000000F2H   SFRSYM    DATA     BYTE      I2CSCR
      000000C8H.7 SFRSYM    DATA     BIT       T2PS
      000000D1H   SFRSYM    DATA     BYTE      ADCMPC
      000000CBH   SFRSYM    DATA     BYTE      RLDH
      000000D5H   SFRSYM    DATA     BYTE      ADCMPH
      000000CAH   SFRSYM    DATA     BYTE      RLDL
      00000080H.0 SFRSYM    DATA     BIT       P00
      00000090H.0 SFRSYM    DATA     BIT       P10
      00000080H.1 SFRSYM    DATA     BIT       P01
      000000F7H   SFRSYM    DATA     BYTE      I2CMTP
      00000099H   SFRSYM    DATA     BYTE      SBUF
      00000087H   SFRSYM    DATA     BYTE      PCON
      000000A0H.0 SFRSYM    DATA     BIT       P20
      00000090H.1 SFRSYM    DATA     BIT       P11
      00000080H.2 SFRSYM    DATA     BIT       P02
      000000F5H   SFRSYM    DATA     BYTE      I2CMSR
      000000B0H.0 SFRSYM    DATA     BIT       P30
      000000A0H.1 SFRSYM    DATA     BIT       P21
      00000090H.2 SFRSYM    DATA     BIT       P12
      00000080H.3 SFRSYM    DATA     BIT       P03
      000000D4H   SFRSYM    DATA     BYTE      ADCMPL
      000000B0H.1 SFRSYM    DATA     BIT       P31
      000000A0H.2 SFRSYM    DATA     BIT       P22
      00000090H.3 SFRSYM    DATA     BIT       P13
      00000080H.4 SFRSYM    DATA     BIT       P04
      000000B0H.2 SFRSYM    DATA     BIT       P32
      000000A0H.3 SFRSYM    DATA     BIT       P23
      00000090H.4 SFRSYM    DATA     BIT       P14
      00000080H.5 SFRSYM    DATA     BIT       P05
      00000089H   SFRSYM    DATA     BYTE      TMOD
      00000088H   SFRSYM    DATA     BYTE      TCON
      000000B0H.3 SFRSYM    DATA     BIT       P33
      000000A0H.4 SFRSYM    DATA     BIT       P24
      00000090H.5 SFRSYM    DATA     BIT       P15
      00000080H.6 SFRSYM    DATA     BIT       P06
      000000B0H.4 SFRSYM    DATA     BIT       P34
      000000A0H.5 SFRSYM    DATA     BIT       P25
      00000090H.6 SFRSYM    DATA     BIT       P16
LX51 LINKER/LOCATER V4.66.97.0                                                        11/09/2024  20:20:28  PAGE 31


      00000080H.7 SFRSYM    DATA     BIT       P07
      000000B0H.5 SFRSYM    DATA     BIT       P35
      000000A0H.6 SFRSYM    DATA     BIT       P26
      00000090H.7 SFRSYM    DATA     BIT       P17
      000000F2H   SFRSYM    DATA     BYTE      I2CSSR
      000000B0H.6 SFRSYM    DATA     BIT       P36
      000000A0H.7 SFRSYM    DATA     BIT       P27
      000000ECH   SFRSYM    DATA     BYTE      SPCR
      000000DDH   SFRSYM    DATA     BYTE      ADRESH
      000000B0H.7 SFRSYM    DATA     BIT       P37
      000000EEH   SFRSYM    DATA     BYTE      SPDR
      000000EFH   SFRSYM    DATA     BYTE      SSCR
      000000D3H   SFRSYM    DATA     BYTE      ADDLYL
      000000DCH   SFRSYM    DATA     BYTE      ADRESL
      00000088H.1 SFRSYM    DATA     BIT       IE0
      00000088H.3 SFRSYM    DATA     BIT       IE1
      0000008FH   SFRSYM    DATA     BYTE      CLKDIV
      000000F0H   SFRSYM    DATA     BYTE      B
      00000091H   SFRSYM    DATA     BYTE      FUNCCR
      0000009AH   SFRSYM    DATA     BYTE      P0TRIS
      000000A1H   SFRSYM    DATA     BYTE      P1TRIS
      000000A2H   SFRSYM    DATA     BYTE      P2TRIS
      000000E0H   SFRSYM    DATA     BYTE      ACC
      000000A3H   SFRSYM    DATA     BYTE      P3TRIS
      000000A8H.4 SFRSYM    DATA     BIT       ES0
      000000A8H.6 SFRSYM    DATA     BIT       ES1
      000000A8H.1 SFRSYM    DATA     BIT       ET0
      000000EDH   SFRSYM    DATA     BYTE      SPSR
      000000A8H.3 SFRSYM    DATA     BIT       ET1
      00000088H.5 SFRSYM    DATA     BIT       TF0
      000000A8H.5 SFRSYM    DATA     BIT       ET2
      00000098H.0 SFRSYM    DATA     BIT       RI0
      00000088H.7 SFRSYM    DATA     BIT       TF1
      0000008CH   SFRSYM    DATA     BYTE      TH0
      000000A8H.0 SFRSYM    DATA     BIT       EX0
      00000098H.1 SFRSYM    DATA     BIT       TI0
      00000088H.0 SFRSYM    DATA     BIT       IT0
      0000008DH   SFRSYM    DATA     BYTE      TH1
      000000A8H.2 SFRSYM    DATA     BIT       EX1
      00000088H.2 SFRSYM    DATA     BIT       IT1
      000000CDH   SFRSYM    DATA     BYTE      TH2
      000000D0H.0 SFRSYM    DATA     BIT       P
      000000DBH   SFRSYM    DATA     BYTE      TH3
      000000E3H   SFRSYM    DATA     BYTE      TH4
      0000008AH   SFRSYM    DATA     BYTE      TL0
      0000008BH   SFRSYM    DATA     BYTE      TL1
      00000098H.2 SFRSYM    DATA     BIT       U0RB8
      000000CCH   SFRSYM    DATA     BYTE      TL2
      000000B8H.4 SFRSYM    DATA     BIT       PS0
      000000DAH   SFRSYM    DATA     BYTE      TL3
      000000BFH   SFRSYM    DATA     BYTE      BUZCON
      000000B8H.6 SFRSYM    DATA     BIT       PS1
      000000B8H.1 SFRSYM    DATA     BIT       PT0
      00000098H.3 SFRSYM    DATA     BIT       U0TB8
      000000E2H   SFRSYM    DATA     BYTE      TL4
      000000D0H.3 SFRSYM    DATA     BIT       RS0
      000000B8H.3 SFRSYM    DATA     BIT       PT1
      000000D0H.4 SFRSYM    DATA     BIT       RS1
      000000B8H.5 SFRSYM    DATA     BIT       PT2
      00000098H.7 SFRSYM    DATA     BIT       U0SM0
      00000088H.4 SFRSYM    DATA     BIT       TR0
      000000BEH   SFRSYM    DATA     BYTE      BUZDIV
      00000098H.6 SFRSYM    DATA     BIT       U0SM1
      00000088H.6 SFRSYM    DATA     BIT       TR1
      000000B8H.0 SFRSYM    DATA     BIT       PX0
LX51 LINKER/LOCATER V4.66.97.0                                                        11/09/2024  20:20:28  PAGE 32


      00000098H.5 SFRSYM    DATA     BIT       U0SM2
      000000B8H.2 SFRSYM    DATA     BIT       PX1
      000000BDH   SFRSYM    DATA     BYTE      WUTCRH
      00000099H   SFRSYM    DATA     BYTE      SBUF0
      000000EBH   SFRSYM    DATA     BYTE      SBUF1
      000000BCH   SFRSYM    DATA     BYTE      WUTCRL
      00000098H   SFRSYM    DATA     BYTE      SCON0
      000000EAH   SFRSYM    DATA     BYTE      SCON1
      000000C8H   SFRSYM    DATA     BYTE      T2CON
      00000086H   SFRSYM    DATA     BYTE      DPS
      000000FEH   SFRSYM    DATA     BYTE      MDATA
      000000F6H   SFRSYM    DATA     BYTE      I2CMBUF
      000000F1H   SFRSYM    DATA     BYTE      I2CSADR
      00000098H.4 SFRSYM    DATA     BIT       U0REN
      000000C8H.5 SFRSYM    DATA     BIT       CAPES
      000000FDH   SFRSYM    DATA     BYTE      MADRH
      0000008EH   SFRSYM    DATA     BYTE      CKCON
      000000F3H   SFRSYM    DATA     BYTE      I2CSBUF
      000000FCH   SFRSYM    DATA     BYTE      MADRL
      000000D0H.5 SFRSYM    DATA     BIT       F0
      000000FBH   SFRSYM    DATA     BYTE      MLOCK
      000000D0H   SFRSYM    DATA     BYTE      PSW
      00000097H   SFRSYM    DATA     BYTE      WDCON
      0100388DH   SYMBOL    CODE     ---       ADC_SetVREF
      01002626H   SYMBOL    CODE     ---       _ADC_ReadBackResult
      010031DDH   SYMBOL    CODE     ---       _ADC_SubmitMisson
      02000039H   SYMBOL    XDATA    ---       ADCConvertQueue
      00000008H   SYMBOL    DATA     BYTE      ADCState
      0200003DH   SYMBOL    XDATA    ---       ADCTemp
      01001B45H   SYMBOL    CODE     ---       ADCEngineHandler
      010017B1H   SYMBOL    CODE     ---       _ADC_WriteOutputBuf

      0100301AH   BLOCK     CODE     ---       LVL=0
      ---         BLOCKEND  ---      ---       LVL=0

      010031DDH   BLOCK     CODE     ---       LVL=0
      00000003H   SYMBOL    DATA     CHAR      Ch
      010031DDH   LINE      CODE     ---       #18
      010031DFH   LINE      CODE     ---       #19
      010031DFH   LINE      CODE     ---       #21
      010031E5H   LINE      CODE     ---       #22
      010031FAH   LINE      CODE     ---       #24
      01003204H   LINE      CODE     ---       #25
      01003204H   LINE      CODE     ---       #26
      01003209H   LINE      CODE     ---       #27
      0100320DH   LINE      CODE     ---       #29
      01003216H   LINE      CODE     ---       #30
      01003219H   LINE      CODE     ---       #31
      0100321CH   LINE      CODE     ---       #32
      01003221H   LINE      CODE     ---       #34
      01003228H   LINE      CODE     ---       #35
      0100322BH   LINE      CODE     ---       #36
      ---         BLOCKEND  ---      ---       LVL=0

      01002626H   BLOCK     CODE     ---       LVL=0
      00000034H   SYMBOL    DATA     ---       Result
      00000037H   SYMBOL    DATA     ---       Queue
      01002626H   LINE      CODE     ---       #39
      0100262CH   LINE      CODE     ---       #40
      0100262CH   LINE      CODE     ---       #42
      01002633H   LINE      CODE     ---       #44
      01002641H   LINE      CODE     ---       #45
      0100266FH   LINE      CODE     ---       #46
      01002680H   LINE      CODE     ---       #47
      01002680H   LINE      CODE     ---       #48
LX51 LINKER/LOCATER V4.66.97.0                                                        11/09/2024  20:20:28  PAGE 33


      01002683H   LINE      CODE     ---       #49
      01002687H   LINE      CODE     ---       #50
      01002687H   LINE      CODE     ---       #52
      010026A4H   LINE      CODE     ---       #53
      010026B9H   LINE      CODE     ---       #54
      010026C6H   LINE      CODE     ---       #55
      010026CBH   LINE      CODE     ---       #56
      010026CEH   LINE      CODE     ---       #57
      ---         BLOCKEND  ---      ---       LVL=0

      0100388DH   BLOCK     CODE     ---       LVL=0
      00000022H.1 SYMBOL    BIT      BIT       IsUsingVDD
      0100388DH   LINE      CODE     ---       #60
      0100388DH   LINE      CODE     ---       #61
      0100388DH   LINE      CODE     ---       #62
      01003890H   LINE      CODE     ---       #63
      01003891H   LINE      CODE     ---       #64
      0100389DH   LINE      CODE     ---       #65
      0100389EH   LINE      CODE     ---       #66
      010038A1H   LINE      CODE     ---       #67
      ---         BLOCKEND  ---      ---       LVL=0

      010017B1H   BLOCK     CODE     ---       LVL=0
      00000034H   SYMBOL    DATA     INT       ADCResult
      00000036H   SYMBOL    DATA     CHAR      Ch
      010017B7H   BLOCK     CODE     NEAR LAB  LVL=1
      00000037H   SYMBOL    DATA     FLOAT     Buf
      0000003BH   SYMBOL    DATA     FLOAT     Rt
      0000003FH   SYMBOL    DATA     FLOAT     Vadc
      00000004H   SYMBOL    DATA     DWORD     NTCRES
      ---         BLOCKEND  ---      ---       LVL=1
      010017B1H   LINE      CODE     ---       #71
      010017B7H   LINE      CODE     ---       #72
      010017B7H   LINE      CODE     ---       #76
      010017D1H   LINE      CODE     ---       #77
      01001806H   LINE      CODE     ---       #79
      0100181FH   LINE      CODE     ---       #80
      0100181FH   LINE      CODE     ---       #82
      0100181FH   LINE      CODE     ---       #83
      01001842H   LINE      CODE     ---       #84
      0100184AH   LINE      CODE     ---       #85
      0100184BH   LINE      CODE     ---       #87
      0100184BH   LINE      CODE     ---       #88
      01001854H   LINE      CODE     ---       #89
      0100185FH   LINE      CODE     ---       #90
      0100187FH   LINE      CODE     ---       #91
      01001899H   LINE      CODE     ---       #92
      0100189AH   LINE      CODE     ---       #94
      0100189AH   LINE      CODE     ---       #95
      010018A3H   LINE      CODE     ---       #96
      010018AEH   LINE      CODE     ---       #97
      010018CEH   LINE      CODE     ---       #98
      010018CFH   LINE      CODE     ---       #100
      010018CFH   LINE      CODE     ---       #101
      0100190AH   LINE      CODE     ---       #102
      01001917H   LINE      CODE     ---       #103
      0100191AH   LINE      CODE     ---       #104
      01001925H   LINE      CODE     ---       #105
      01001925H   LINE      CODE     ---       #106
      01001925H   LINE      CODE     ---       #107
      ---         BLOCKEND  ---      ---       LVL=0

      01001B45H   BLOCK     CODE     ---       LVL=0
      01001B45H   BLOCK     CODE     NEAR LAB  LVL=1
      0000002FH   SYMBOL    DATA     INT       i
LX51 LINKER/LOCATER V4.66.97.0                                                        11/09/2024  20:20:28  PAGE 34


      00000031H   SYMBOL    DATA     INT       result
      00000033H   SYMBOL    DATA     CHAR      Ch
      ---         BLOCKEND  ---      ---       LVL=1
      01001B45H   LINE      CODE     ---       #110
      01001B45H   LINE      CODE     ---       #111
      01001B45H   LINE      CODE     ---       #116
      01001B45H   LINE      CODE     ---       #117
      01001B4DH   LINE      CODE     ---       #118
      01001B65H   LINE      CODE     ---       #119
      01001B65H   LINE      CODE     ---       #121
      01001B65H   LINE      CODE     ---       #122
      01001B6AH   LINE      CODE     ---       #123
      01001B91H   LINE      CODE     ---       #124
      01001B91H   LINE      CODE     ---       #125
      01001B94H   LINE      CODE     ---       #127
      01001B94H   LINE      CODE     ---       #128
      01001B99H   LINE      CODE     ---       #129
      01001B99H   LINE      CODE     ---       #130
      01001B99H   LINE      CODE     ---       #131
      01001BB2H   LINE      CODE     ---       #132
      01001BBAH   LINE      CODE     ---       #133
      01001BC0H   LINE      CODE     ---       #135
      01001BCDH   LINE      CODE     ---       #136
      01001BCDH   LINE      CODE     ---       #137
      01001BD3H   LINE      CODE     ---       #138
      01001BE6H   LINE      CODE     ---       #139
      01001BEBH   LINE      CODE     ---       #140
      01001BEEH   LINE      CODE     ---       #141
      01001BF0H   LINE      CODE     ---       #143
      01001BF3H   LINE      CODE     ---       #144
      01001BF5H   LINE      CODE     ---       #146
      01001BF5H   LINE      CODE     ---       #147
      01001C0BH   LINE      CODE     ---       #148
      01001C14H   LINE      CODE     ---       #149
      01001C34H   LINE      CODE     ---       #150
      01001C37H   LINE      CODE     ---       #151
      01001C39H   LINE      CODE     ---       #153
      01001C39H   LINE      CODE     ---       #155
      01001C3CH   LINE      CODE     ---       #156
      01001C3CH   LINE      CODE     ---       #157
      01001C3CH   LINE      CODE     ---       #158
      01001C4BH   LINE      CODE     ---       #159
      ---         BLOCKEND  ---      ---       LVL=0

      01003948H   BLOCK     CODE     ---       LVL=0
      01003948H   LINE      CODE     ---       #169
      01003948H   LINE      CODE     ---       #170
      01003948H   LINE      CODE     ---       #172
      ---         BLOCKEND  ---      ---       LVL=0

      010024CDH   BLOCK     CODE     ---       LVL=0
      010024CDH   BLOCK     CODE     NEAR LAB  LVL=1
      00000025H   SYMBOL    DATA     ---       ADCDeInitCfg
      00000007H   SYMBOL    DATA     CHAR      i
      ---         BLOCKEND  ---      ---       LVL=1
      010024CDH   LINE      CODE     ---       #176
      010024CDH   LINE      CODE     ---       #177
      010024CDH   LINE      CODE     ---       #181
      010024D0H   LINE      CODE     ---       #182
      010024D4H   LINE      CODE     ---       #184
      010024D9H   LINE      CODE     ---       #185
      010024DCH   LINE      CODE     ---       #186
      01002503H   LINE      CODE     ---       #187
      0100250DH   LINE      CODE     ---       #188
      0100250DH   LINE      CODE     ---       #189
LX51 LINKER/LOCATER V4.66.97.0                                                        11/09/2024  20:20:28  PAGE 35


      01002511H   LINE      CODE     ---       #190
      01002513H   LINE      CODE     ---       #192
      0100251BH   LINE      CODE     ---       #193
      01002524H   LINE      CODE     ---       #194
      0100252BH   LINE      CODE     ---       #196
      0100252EH   LINE      CODE     ---       #197
      01002531H   LINE      CODE     ---       #198
      01002533H   LINE      CODE     ---       #199
      01002538H   LINE      CODE     ---       #200
      0100253FH   LINE      CODE     ---       #201
      0100254DH   LINE      CODE     ---       #203
      01002556H   LINE      CODE     ---       #204
      0100255FH   LINE      CODE     ---       #205
      01002567H   LINE      CODE     ---       #206
      01002570H   LINE      CODE     ---       #207
      ---         BLOCKEND  ---      ---       LVL=0

      01002773H   BLOCK     CODE     ---       LVL=0
      01002773H   BLOCK     CODE     NEAR LAB  LVL=1
      00000025H   SYMBOL    DATA     ---       ADCInitCfg
      ---         BLOCKEND  ---      ---       LVL=1
      01002773H   LINE      CODE     ---       #210
      01002773H   LINE      CODE     ---       #211
      01002773H   LINE      CODE     ---       #214
      01002776H   LINE      CODE     ---       #215
      01002778H   LINE      CODE     ---       #216
      0100277AH   LINE      CODE     ---       #218
      01002786H   LINE      CODE     ---       #219
      01002793H   LINE      CODE     ---       #220
      01002798H   LINE      CODE     ---       #222
      010027A1H   LINE      CODE     ---       #223
      010027AAH   LINE      CODE     ---       #224
      010027B2H   LINE      CODE     ---       #226
      010027B5H   LINE      CODE     ---       #227
      010027B8H   LINE      CODE     ---       #228
      010027BBH   LINE      CODE     ---       #230
      010027C2H   LINE      CODE     ---       #231
      010027C7H   LINE      CODE     ---       #232
      010027D0H   LINE      CODE     ---       #234
      010027D3H   LINE      CODE     ---       #235
      010027D6H   LINE      CODE     ---       #236
      010027D9H   LINE      CODE     ---       #237
      010027DBH   LINE      CODE     ---       #238
      010027DDH   LINE      CODE     ---       #239
      010027E0H   LINE      CODE     ---       #240
      010027E3H   LINE      CODE     ---       #241
      010027E9H   LINE      CODE     ---       #243
      010027ECH   LINE      CODE     ---       #244
      010027F6H   LINE      CODE     ---       #245
      010027F6H   LINE      CODE     ---       #246
      010027FAH   LINE      CODE     ---       #247
      010027FCH   LINE      CODE     ---       #248
      010027FFH   LINE      CODE     ---       #250
      01002802H   LINE      CODE     ---       #251
      01002805H   LINE      CODE     ---       #252
      ---         BLOCKEND  ---      ---       LVL=0

      ---         MODULE    ---      ---       DELAY
      00000020H.7 PUBLIC    BIT      BIT       StrobeFlag
      00000020H.6 PUBLIC    BIT      BIT       SysHBFlag
      00000020H.5 PUBLIC    BIT      BIT       IsT0OVF
      0000001FH   PUBLIC    DATA     CHAR      HBcounter
      0100214DH   PUBLIC    CODE     ---       _delay_ms
      01003419H   PUBLIC    CODE     ---       _delay_us
      010038A2H   PUBLIC    CODE     ---       delay_init
LX51 LINKER/LOCATER V4.66.97.0                                                        11/09/2024  20:20:28  PAGE 36


      01003942H   PUBLIC    CODE     ---       Timer0_IRQHandler
      01003278H   PUBLIC    CODE     ---       Timer2_IRQHandler
      01003725H   PUBLIC    CODE     ---       CheckIfHBTIMIsReady
      00000022H.1 PUBLIC    BIT      BIT       ?SetSystemHBTimer?BIT
      010036FEH   PUBLIC    CODE     ---       SetSystemHBTimer
      000000C8H.0 SFRSYM    DATA     BIT       T2I0
      000000C3H   SFRSYM    DATA     BYTE      CCH1
      00000080H   SFRSYM    DATA     BYTE      P0
      000000C8H.1 SFRSYM    DATA     BIT       T2I1
      000000C5H   SFRSYM    DATA     BYTE      CCH2
      00000090H   SFRSYM    DATA     BYTE      P1
      000000C7H   SFRSYM    DATA     BYTE      CCH3
      000000ACH   SFRSYM    DATA     BYTE      P0EXTIE
      000000A0H   SFRSYM    DATA     BYTE      P2
      000000B4H   SFRSYM    DATA     BYTE      P0EXTIF
      000000B0H   SFRSYM    DATA     BYTE      P3
      000000ADH   SFRSYM    DATA     BYTE      P1EXTIE
      000000D0H.6 SFRSYM    DATA     BIT       AC
      000000FFH   SFRSYM    DATA     BYTE      MCTRL
      000000C2H   SFRSYM    DATA     BYTE      CCL1
      000000B5H   SFRSYM    DATA     BYTE      P1EXTIF
      000000AEH   SFRSYM    DATA     BYTE      P2EXTIE
      000000C4H   SFRSYM    DATA     BYTE      CCL2
      000000B6H   SFRSYM    DATA     BYTE      P2EXTIF
      000000AFH   SFRSYM    DATA     BYTE      P3EXTIE
      000000A8H.7 SFRSYM    DATA     BIT       EA
      000000C6H   SFRSYM    DATA     BYTE      CCL3
      000000B7H   SFRSYM    DATA     BYTE      P3EXTIF
      000000AAH   SFRSYM    DATA     BYTE      EIE2
      000000B2H   SFRSYM    DATA     BYTE      EIF2
      000000C8H.3 SFRSYM    DATA     BIT       T2R0
      000000C8H.4 SFRSYM    DATA     BIT       T2R1
      00000083H   SFRSYM    DATA     BYTE      DPH0
      000000A8H   SFRSYM    DATA     BYTE      IE
      00000085H   SFRSYM    DATA     BYTE      DPH1
      000000B9H   SFRSYM    DATA     BYTE      EIP1
      000000BAH   SFRSYM    DATA     BYTE      EIP2
      00000082H   SFRSYM    DATA     BYTE      DPL0
      00000084H   SFRSYM    DATA     BYTE      DPL1
      000000C8H.6 SFRSYM    DATA     BIT       I3FR
      000000CFH   SFRSYM    DATA     BYTE      T2IE
      00000096H   SFRSYM    DATA     BYTE      TA
      000000C9H   SFRSYM    DATA     BYTE      T2IF
      000000C8H.2 SFRSYM    DATA     BIT       T2CM
      000000DFH   SFRSYM    DATA     BYTE      ADCON0
      000000DEH   SFRSYM    DATA     BYTE      ADCON1
      000000E9H   SFRSYM    DATA     BYTE      ADCON2
      000000B8H   SFRSYM    DATA     BYTE      IP
      000000CEH   SFRSYM    DATA     BYTE      CCEN
      000000D0H.7 SFRSYM    DATA     BIT       CY
      000000D2H   SFRSYM    DATA     BYTE      T34MOD
      00000093H   SFRSYM    DATA     BYTE      DPX0
      00000095H   SFRSYM    DATA     BYTE      DPX1
      000000F4H   SFRSYM    DATA     BYTE      I2CMSA
      000000F5H   SFRSYM    DATA     BYTE      I2CMCR
      00000081H   SFRSYM    DATA     BYTE      SP
      000000D0H.2 SFRSYM    DATA     BIT       OV
      000000F2H   SFRSYM    DATA     BYTE      I2CSCR
      000000C8H.7 SFRSYM    DATA     BIT       T2PS
      000000D1H   SFRSYM    DATA     BYTE      ADCMPC
      000000CBH   SFRSYM    DATA     BYTE      RLDH
      000000D5H   SFRSYM    DATA     BYTE      ADCMPH
      000000CAH   SFRSYM    DATA     BYTE      RLDL
      00000080H.0 SFRSYM    DATA     BIT       P00
      00000090H.0 SFRSYM    DATA     BIT       P10
LX51 LINKER/LOCATER V4.66.97.0                                                        11/09/2024  20:20:28  PAGE 37


      00000080H.1 SFRSYM    DATA     BIT       P01
      000000F7H   SFRSYM    DATA     BYTE      I2CMTP
      00000099H   SFRSYM    DATA     BYTE      SBUF
      00000087H   SFRSYM    DATA     BYTE      PCON
      000000A0H.0 SFRSYM    DATA     BIT       P20
      00000090H.1 SFRSYM    DATA     BIT       P11
      00000080H.2 SFRSYM    DATA     BIT       P02
      000000F5H   SFRSYM    DATA     BYTE      I2CMSR
      000000B0H.0 SFRSYM    DATA     BIT       P30
      000000A0H.1 SFRSYM    DATA     BIT       P21
      00000090H.2 SFRSYM    DATA     BIT       P12
      00000080H.3 SFRSYM    DATA     BIT       P03
      000000D4H   SFRSYM    DATA     BYTE      ADCMPL
      000000B0H.1 SFRSYM    DATA     BIT       P31
      000000A0H.2 SFRSYM    DATA     BIT       P22
      00000090H.3 SFRSYM    DATA     BIT       P13
      00000080H.4 SFRSYM    DATA     BIT       P04
      000000B0H.2 SFRSYM    DATA     BIT       P32
      000000A0H.3 SFRSYM    DATA     BIT       P23
      00000090H.4 SFRSYM    DATA     BIT       P14
      00000080H.5 SFRSYM    DATA     BIT       P05
      00000089H   SFRSYM    DATA     BYTE      TMOD
      00000088H   SFRSYM    DATA     BYTE      TCON
      000000B0H.3 SFRSYM    DATA     BIT       P33
      000000A0H.4 SFRSYM    DATA     BIT       P24
      00000090H.5 SFRSYM    DATA     BIT       P15
      00000080H.6 SFRSYM    DATA     BIT       P06
      000000B0H.4 SFRSYM    DATA     BIT       P34
      000000A0H.5 SFRSYM    DATA     BIT       P25
      00000090H.6 SFRSYM    DATA     BIT       P16
      00000080H.7 SFRSYM    DATA     BIT       P07
      000000B0H.5 SFRSYM    DATA     BIT       P35
      000000A0H.6 SFRSYM    DATA     BIT       P26
      00000090H.7 SFRSYM    DATA     BIT       P17
      000000F2H   SFRSYM    DATA     BYTE      I2CSSR
      000000B0H.6 SFRSYM    DATA     BIT       P36
      000000A0H.7 SFRSYM    DATA     BIT       P27
      000000ECH   SFRSYM    DATA     BYTE      SPCR
      000000DDH   SFRSYM    DATA     BYTE      ADRESH
      000000B0H.7 SFRSYM    DATA     BIT       P37
      000000EEH   SFRSYM    DATA     BYTE      SPDR
      000000EFH   SFRSYM    DATA     BYTE      SSCR
      000000D3H   SFRSYM    DATA     BYTE      ADDLYL
      000000DCH   SFRSYM    DATA     BYTE      ADRESL
      00000088H.1 SFRSYM    DATA     BIT       IE0
      00000088H.3 SFRSYM    DATA     BIT       IE1
      0000008FH   SFRSYM    DATA     BYTE      CLKDIV
      000000F0H   SFRSYM    DATA     BYTE      B
      00000091H   SFRSYM    DATA     BYTE      FUNCCR
      0000009AH   SFRSYM    DATA     BYTE      P0TRIS
      000000A1H   SFRSYM    DATA     BYTE      P1TRIS
      000000A2H   SFRSYM    DATA     BYTE      P2TRIS
      000000E0H   SFRSYM    DATA     BYTE      ACC
      000000A3H   SFRSYM    DATA     BYTE      P3TRIS
      000000A8H.4 SFRSYM    DATA     BIT       ES0
      000000A8H.6 SFRSYM    DATA     BIT       ES1
      000000A8H.1 SFRSYM    DATA     BIT       ET0
      000000EDH   SFRSYM    DATA     BYTE      SPSR
      000000A8H.3 SFRSYM    DATA     BIT       ET1
      00000088H.5 SFRSYM    DATA     BIT       TF0
      000000A8H.5 SFRSYM    DATA     BIT       ET2
      00000098H.0 SFRSYM    DATA     BIT       RI0
      00000088H.7 SFRSYM    DATA     BIT       TF1
      0000008CH   SFRSYM    DATA     BYTE      TH0
      000000A8H.0 SFRSYM    DATA     BIT       EX0
LX51 LINKER/LOCATER V4.66.97.0                                                        11/09/2024  20:20:28  PAGE 38


      00000098H.1 SFRSYM    DATA     BIT       TI0
      00000088H.0 SFRSYM    DATA     BIT       IT0
      0000008DH   SFRSYM    DATA     BYTE      TH1
      000000A8H.2 SFRSYM    DATA     BIT       EX1
      00000088H.2 SFRSYM    DATA     BIT       IT1
      000000CDH   SFRSYM    DATA     BYTE      TH2
      000000D0H.0 SFRSYM    DATA     BIT       P
      000000DBH   SFRSYM    DATA     BYTE      TH3
      000000E3H   SFRSYM    DATA     BYTE      TH4
      0000008AH   SFRSYM    DATA     BYTE      TL0
      0000008BH   SFRSYM    DATA     BYTE      TL1
      00000098H.2 SFRSYM    DATA     BIT       U0RB8
      000000CCH   SFRSYM    DATA     BYTE      TL2
      000000B8H.4 SFRSYM    DATA     BIT       PS0
      000000DAH   SFRSYM    DATA     BYTE      TL3
      000000BFH   SFRSYM    DATA     BYTE      BUZCON
      000000B8H.6 SFRSYM    DATA     BIT       PS1
      000000B8H.1 SFRSYM    DATA     BIT       PT0
      00000098H.3 SFRSYM    DATA     BIT       U0TB8
      000000E2H   SFRSYM    DATA     BYTE      TL4
      000000D0H.3 SFRSYM    DATA     BIT       RS0
      000000B8H.3 SFRSYM    DATA     BIT       PT1
      000000D0H.4 SFRSYM    DATA     BIT       RS1
      000000B8H.5 SFRSYM    DATA     BIT       PT2
      00000098H.7 SFRSYM    DATA     BIT       U0SM0
      00000088H.4 SFRSYM    DATA     BIT       TR0
      000000BEH   SFRSYM    DATA     BYTE      BUZDIV
      00000098H.6 SFRSYM    DATA     BIT       U0SM1
      00000088H.6 SFRSYM    DATA     BIT       TR1
      000000B8H.0 SFRSYM    DATA     BIT       PX0
      00000098H.5 SFRSYM    DATA     BIT       U0SM2
      000000B8H.2 SFRSYM    DATA     BIT       PX1
      000000BDH   SFRSYM    DATA     BYTE      WUTCRH
      00000099H   SFRSYM    DATA     BYTE      SBUF0
      000000EBH   SFRSYM    DATA     BYTE      SBUF1
      000000BCH   SFRSYM    DATA     BYTE      WUTCRL
      00000098H   SFRSYM    DATA     BYTE      SCON0
      000000EAH   SFRSYM    DATA     BYTE      SCON1
      000000C8H   SFRSYM    DATA     BYTE      T2CON
      00000086H   SFRSYM    DATA     BYTE      DPS
      000000FEH   SFRSYM    DATA     BYTE      MDATA
      000000F6H   SFRSYM    DATA     BYTE      I2CMBUF
      000000F1H   SFRSYM    DATA     BYTE      I2CSADR
      00000098H.4 SFRSYM    DATA     BIT       U0REN
      000000C8H.5 SFRSYM    DATA     BIT       CAPES
      000000FDH   SFRSYM    DATA     BYTE      MADRH
      0000008EH   SFRSYM    DATA     BYTE      CKCON
      000000F3H   SFRSYM    DATA     BYTE      I2CSBUF
      000000FCH   SFRSYM    DATA     BYTE      MADRL
      000000D0H.5 SFRSYM    DATA     BIT       F0
      000000FBH   SFRSYM    DATA     BYTE      MLOCK
      000000D0H   SFRSYM    DATA     BYTE      PSW
      00000097H   SFRSYM    DATA     BYTE      WDCON

      010036FEH   BLOCK     CODE     ---       LVL=0
      00000022H.1 SYMBOL    BIT      BIT       IsEnable
      010036FEH   LINE      CODE     ---       #13
      010036FEH   LINE      CODE     ---       #14
      010036FEH   LINE      CODE     ---       #15
      01003702H   LINE      CODE     ---       #16
      01003702H   LINE      CODE     ---       #17
      01003704H   LINE      CODE     ---       #18
      01003708H   LINE      CODE     ---       #20
      01003708H   LINE      CODE     ---       #22
      0100370AH   LINE      CODE     ---       #23
LX51 LINKER/LOCATER V4.66.97.0                                                        11/09/2024  20:20:28  PAGE 39


      0100370DH   LINE      CODE     ---       #24
      01003710H   LINE      CODE     ---       #25
      01003713H   LINE      CODE     ---       #26
      01003716H   LINE      CODE     ---       #28
      01003719H   LINE      CODE     ---       #29
      0100371BH   LINE      CODE     ---       #30
      0100371EH   LINE      CODE     ---       #32
      01003721H   LINE      CODE     ---       #33
      01003724H   LINE      CODE     ---       #34
      ---         BLOCKEND  ---      ---       LVL=0

      01003725H   BLOCK     CODE     ---       LVL=0
      01003725H   BLOCK     CODE     NEAR LAB  LVL=1
      00000023H   SYMBOL    DATA     INT       retry
      ---         BLOCKEND  ---      ---       LVL=1
      01003725H   LINE      CODE     ---       #37
      01003725H   LINE      CODE     ---       #38
      01003725H   LINE      CODE     ---       #39
      0100372BH   LINE      CODE     ---       #40
      0100372DH   LINE      CODE     ---       #42
      0100372DH   LINE      CODE     ---       #43
      01003734H   LINE      CODE     ---       #44
      01003737H   LINE      CODE     ---       #45
      0100373FH   LINE      CODE     ---       #46
      0100373FH   LINE      CODE     ---       #47
      01003745H   LINE      CODE     ---       #49
      01003747H   LINE      CODE     ---       #50
      ---         BLOCKEND  ---      ---       LVL=0

      01003278H   BLOCK     CODE     ---       LVL=0
      01003278H   LINE      CODE     ---       #53
      01003295H   LINE      CODE     ---       #55
      01003298H   LINE      CODE     ---       #57
      0100329AH   LINE      CODE     ---       #58
      0100329CH   LINE      CODE     ---       #59
      010032A0H   LINE      CODE     ---       #60
      010032A3H   LINE      CODE     ---       #62
      010032A5H   LINE      CODE     ---       #63
      010032A8H   LINE      CODE     ---       #64
      ---         BLOCKEND  ---      ---       LVL=0

      01003942H   BLOCK     CODE     ---       LVL=0
      01003942H   LINE      CODE     ---       #67
      01003942H   LINE      CODE     ---       #69
      01003945H   LINE      CODE     ---       #70
      01003947H   LINE      CODE     ---       #71
      ---         BLOCKEND  ---      ---       LVL=0

      010038A2H   BLOCK     CODE     ---       LVL=0
      010038A2H   LINE      CODE     ---       #74
      010038A2H   LINE      CODE     ---       #75
      010038A2H   LINE      CODE     ---       #76
      010038A5H   LINE      CODE     ---       #77
      010038A8H   LINE      CODE     ---       #78
      010038ABH   LINE      CODE     ---       #79
      010038AEH   LINE      CODE     ---       #80
      010038B0H   LINE      CODE     ---       #81
      010038B3H   LINE      CODE     ---       #82
      010038B6H   LINE      CODE     ---       #83
      ---         BLOCKEND  ---      ---       LVL=0

      01003419H   BLOCK     CODE     ---       LVL=0
      00000004H   SYMBOL    DATA     INT       us
      0100341DH   BLOCK     CODE     NEAR LAB  LVL=1
      00000022H.1 SYMBOL    BIT      BIT       IsEA
LX51 LINKER/LOCATER V4.66.97.0                                                        11/09/2024  20:20:28  PAGE 40


      ---         BLOCKEND  ---      ---       LVL=1
      01003419H   LINE      CODE     ---       #85
      0100341DH   LINE      CODE     ---       #86
      0100341DH   LINE      CODE     ---       #87
      01003421H   LINE      CODE     ---       #88
      0100342EH   LINE      CODE     ---       #89
      01003436H   LINE      CODE     ---       #91
      0100343AH   LINE      CODE     ---       #92
      0100343FH   LINE      CODE     ---       #93
      01003442H   LINE      CODE     ---       #95
      01003445H   LINE      CODE     ---       #96
      0100344AH   LINE      CODE     ---       #98
      0100344DH   LINE      CODE     ---       #99
      01003454H   LINE      CODE     ---       #100
      01003457H   LINE      CODE     ---       #101
      ---         BLOCKEND  ---      ---       LVL=0

      0100214DH   BLOCK     CODE     ---       LVL=0
      0000002FH   SYMBOL    DATA     INT       ms
      01002151H   BLOCK     CODE     NEAR LAB  LVL=1
      00000031H   SYMBOL    DATA     DWORD     CNT
      00000035H   SYMBOL    DATA     INT       repcounter
      ---         BLOCKEND  ---      ---       LVL=1
      0100214DH   LINE      CODE     ---       #104
      01002151H   LINE      CODE     ---       #105
      01002151H   LINE      CODE     ---       #107
      01002156H   LINE      CODE     ---       #109
      0100215FH   LINE      CODE     ---       #111
      0100215FH   LINE      CODE     ---       #112
      01002167H   LINE      CODE     ---       #113
      01002183H   LINE      CODE     ---       #114
      010021A4H   LINE      CODE     ---       #115
      010021A4H   LINE      CODE     ---       #116
      010021B9H   LINE      CODE     ---       #117
      010021D0H   LINE      CODE     ---       #120
      010021D0H   LINE      CODE     ---       #122
      010021DFH   LINE      CODE     ---       #123
      010021E4H   LINE      CODE     ---       #124
      010021E6H   LINE      CODE     ---       #126
      010021E9H   LINE      CODE     ---       #127
      010021F1H   LINE      CODE     ---       #129
      010021F4H   LINE      CODE     ---       #130
      010021FCH   LINE      CODE     ---       #131
      010021FCH   LINE      CODE     ---       #132
      01002202H   LINE      CODE     ---       #133
      ---         BLOCKEND  ---      ---       LVL=0

      ---         MODULE    ---      ---       NTC
      01003A77H   PUBLIC    CONST    ---       NTCTableBottom
      0100394BH   PUBLIC    CONST    ---       NTCTableTop
      01001E34H   PUBLIC    CODE     ---       _CalcNTCTemp

      0100376AH   BLOCK     CODE     ---       LVL=0
      ---         BLOCKEND  ---      ---       LVL=0

      01001E34H   BLOCK     CODE     ---       LVL=0
      00000043H   SYMBOL    DATA     ---       IsNTCOK
      00000046H   SYMBOL    DATA     DWORD     NTCRes
      01001E42H   BLOCK     CODE     NEAR LAB  LVL=1
      0000004AH   SYMBOL    DATA     INT       i
      0000004CH   SYMBOL    DATA     DWORD     NTCTableValue
      ---         BLOCKEND  ---      ---       LVL=1
      01001E34H   LINE      CODE     ---       #64
      01001E42H   LINE      CODE     ---       #68
      01001E50H   LINE      CODE     ---       #69
LX51 LINKER/LOCATER V4.66.97.0                                                        11/09/2024  20:20:28  PAGE 41


      01001E50H   LINE      CODE     ---       #70
      01001E53H   LINE      CODE     ---       #71
      01001E56H   LINE      CODE     ---       #72
      01001E56H   LINE      CODE     ---       #74
      01001E61H   LINE      CODE     ---       #75
      01001E61H   LINE      CODE     ---       #76
      01001E64H   LINE      CODE     ---       #77
      01001E67H   LINE      CODE     ---       #78
      01001E67H   LINE      CODE     ---       #80
      01001E6CH   LINE      CODE     ---       #81
      01001EAFH   LINE      CODE     ---       #82
      01001EB4H   LINE      CODE     ---       #83
      01001EB4H   LINE      CODE     ---       #84
      01001ED7H   LINE      CODE     ---       #85
      01001EE4H   LINE      CODE     ---       #86
      01001F00H   LINE      CODE     ---       #87
      01001F0EH   LINE      CODE     ---       #89
      01001F11H   LINE      CODE     ---       #90
      01001F12H   LINE      CODE     ---       #91
      ---         BLOCKEND  ---      ---       LVL=0

      ---         MODULE    ---      ---       SIDEKEY
      02000056H   PUBLIC    XDATA    BYTE      KeyState
      00000050H   PUBLIC    DATA     INT       SleepTimer
      01003934H   PUBLIC    CODE     ---       getSideKeyClickAndHoldEvent
      0100392DH   PUBLIC    CODE     ---       getSideKeyHoldEvent
      01003919H   PUBLIC    CODE     ---       getSideKeyLongPressEvent
      00000022H.1 PUBLIC    BIT      BIT       ?getSideKeyShortPressCount?BIT
      010037EFH   PUBLIC    CODE     ---       getSideKeyShortPressCount
      01002811H   PUBLIC    CODE     ---       SideKey_LogicHandler
      010037CFH   PUBLIC    CODE     ---       MarkAsKeyPressed
      01002F52H   PUBLIC    CODE     ---       SideKey_Int_Callback
      01003549H   PUBLIC    CODE     ---       SideKey_TIM_Callback
      010038B7H   PUBLIC    CODE     ---       IsKeyEventOccurred
      0100330BH   PUBLIC    CODE     ---       SideKeyInit
      000000C8H.0 SFRSYM    DATA     BIT       T2I0
      000000C3H   SFRSYM    DATA     BYTE      CCH1
      00000080H   SFRSYM    DATA     BYTE      P0
      000000C8H.1 SFRSYM    DATA     BIT       T2I1
      000000C5H   SFRSYM    DATA     BYTE      CCH2
      00000090H   SFRSYM    DATA     BYTE      P1
      000000C7H   SFRSYM    DATA     BYTE      CCH3
      000000ACH   SFRSYM    DATA     BYTE      P0EXTIE
      000000A0H   SFRSYM    DATA     BYTE      P2
      000000B4H   SFRSYM    DATA     BYTE      P0EXTIF
      000000B0H   SFRSYM    DATA     BYTE      P3
      000000ADH   SFRSYM    DATA     BYTE      P1EXTIE
      000000D0H.6 SFRSYM    DATA     BIT       AC
      000000FFH   SFRSYM    DATA     BYTE      MCTRL
      000000C2H   SFRSYM    DATA     BYTE      CCL1
      000000B5H   SFRSYM    DATA     BYTE      P1EXTIF
      000000AEH   SFRSYM    DATA     BYTE      P2EXTIE
      000000C4H   SFRSYM    DATA     BYTE      CCL2
      000000B6H   SFRSYM    DATA     BYTE      P2EXTIF
      000000AFH   SFRSYM    DATA     BYTE      P3EXTIE
      000000A8H.7 SFRSYM    DATA     BIT       EA
      000000C6H   SFRSYM    DATA     BYTE      CCL3
      000000B7H   SFRSYM    DATA     BYTE      P3EXTIF
      000000AAH   SFRSYM    DATA     BYTE      EIE2
      000000B2H   SFRSYM    DATA     BYTE      EIF2
      000000C8H.3 SFRSYM    DATA     BIT       T2R0
      000000C8H.4 SFRSYM    DATA     BIT       T2R1
      00000083H   SFRSYM    DATA     BYTE      DPH0
      000000A8H   SFRSYM    DATA     BYTE      IE
      00000085H   SFRSYM    DATA     BYTE      DPH1
LX51 LINKER/LOCATER V4.66.97.0                                                        11/09/2024  20:20:28  PAGE 42


      000000B9H   SFRSYM    DATA     BYTE      EIP1
      000000BAH   SFRSYM    DATA     BYTE      EIP2
      00000082H   SFRSYM    DATA     BYTE      DPL0
      00000084H   SFRSYM    DATA     BYTE      DPL1
      000000C8H.6 SFRSYM    DATA     BIT       I3FR
      000000CFH   SFRSYM    DATA     BYTE      T2IE
      00000096H   SFRSYM    DATA     BYTE      TA
      000000C9H   SFRSYM    DATA     BYTE      T2IF
      000000C8H.2 SFRSYM    DATA     BIT       T2CM
      000000DFH   SFRSYM    DATA     BYTE      ADCON0
      000000DEH   SFRSYM    DATA     BYTE      ADCON1
      000000E9H   SFRSYM    DATA     BYTE      ADCON2
      000000B8H   SFRSYM    DATA     BYTE      IP
      000000CEH   SFRSYM    DATA     BYTE      CCEN
      000000D0H.7 SFRSYM    DATA     BIT       CY
      000000D2H   SFRSYM    DATA     BYTE      T34MOD
      00000093H   SFRSYM    DATA     BYTE      DPX0
      00000095H   SFRSYM    DATA     BYTE      DPX1
      000000F4H   SFRSYM    DATA     BYTE      I2CMSA
      000000F5H   SFRSYM    DATA     BYTE      I2CMCR
      00000081H   SFRSYM    DATA     BYTE      SP
      000000D0H.2 SFRSYM    DATA     BIT       OV
      000000F2H   SFRSYM    DATA     BYTE      I2CSCR
      000000C8H.7 SFRSYM    DATA     BIT       T2PS
      000000D1H   SFRSYM    DATA     BYTE      ADCMPC
      000000CBH   SFRSYM    DATA     BYTE      RLDH
      000000D5H   SFRSYM    DATA     BYTE      ADCMPH
      000000CAH   SFRSYM    DATA     BYTE      RLDL
      00000080H.0 SFRSYM    DATA     BIT       P00
      00000090H.0 SFRSYM    DATA     BIT       P10
      00000080H.1 SFRSYM    DATA     BIT       P01
      000000F7H   SFRSYM    DATA     BYTE      I2CMTP
      00000099H   SFRSYM    DATA     BYTE      SBUF
      00000087H   SFRSYM    DATA     BYTE      PCON
      000000A0H.0 SFRSYM    DATA     BIT       P20
      00000090H.1 SFRSYM    DATA     BIT       P11
      00000080H.2 SFRSYM    DATA     BIT       P02
      000000F5H   SFRSYM    DATA     BYTE      I2CMSR
      000000B0H.0 SFRSYM    DATA     BIT       P30
      000000A0H.1 SFRSYM    DATA     BIT       P21
      00000090H.2 SFRSYM    DATA     BIT       P12
      00000080H.3 SFRSYM    DATA     BIT       P03
      000000D4H   SFRSYM    DATA     BYTE      ADCMPL
      000000B0H.1 SFRSYM    DATA     BIT       P31
      000000A0H.2 SFRSYM    DATA     BIT       P22
      00000090H.3 SFRSYM    DATA     BIT       P13
      00000080H.4 SFRSYM    DATA     BIT       P04
      000000B0H.2 SFRSYM    DATA     BIT       P32
      000000A0H.3 SFRSYM    DATA     BIT       P23
      00000090H.4 SFRSYM    DATA     BIT       P14
      00000080H.5 SFRSYM    DATA     BIT       P05
      00000089H   SFRSYM    DATA     BYTE      TMOD
      00000088H   SFRSYM    DATA     BYTE      TCON
      000000B0H.3 SFRSYM    DATA     BIT       P33
      000000A0H.4 SFRSYM    DATA     BIT       P24
      00000090H.5 SFRSYM    DATA     BIT       P15
      00000080H.6 SFRSYM    DATA     BIT       P06
      000000B0H.4 SFRSYM    DATA     BIT       P34
      000000A0H.5 SFRSYM    DATA     BIT       P25
      00000090H.6 SFRSYM    DATA     BIT       P16
      00000080H.7 SFRSYM    DATA     BIT       P07
      000000B0H.5 SFRSYM    DATA     BIT       P35
      000000A0H.6 SFRSYM    DATA     BIT       P26
      00000090H.7 SFRSYM    DATA     BIT       P17
      000000F2H   SFRSYM    DATA     BYTE      I2CSSR
LX51 LINKER/LOCATER V4.66.97.0                                                        11/09/2024  20:20:28  PAGE 43


      000000B0H.6 SFRSYM    DATA     BIT       P36
      000000A0H.7 SFRSYM    DATA     BIT       P27
      000000ECH   SFRSYM    DATA     BYTE      SPCR
      000000DDH   SFRSYM    DATA     BYTE      ADRESH
      000000B0H.7 SFRSYM    DATA     BIT       P37
      000000EEH   SFRSYM    DATA     BYTE      SPDR
      000000A0H.3 SFRSYM    DATA     BIT       KeyPress
      000000EFH   SFRSYM    DATA     BYTE      SSCR
      000000D3H   SFRSYM    DATA     BYTE      ADDLYL
      000000DCH   SFRSYM    DATA     BYTE      ADRESL
      00000088H.1 SFRSYM    DATA     BIT       IE0
      00000088H.3 SFRSYM    DATA     BIT       IE1
      0000008FH   SFRSYM    DATA     BYTE      CLKDIV
      000000F0H   SFRSYM    DATA     BYTE      B
      00000091H   SFRSYM    DATA     BYTE      FUNCCR
      0000009AH   SFRSYM    DATA     BYTE      P0TRIS
      000000A1H   SFRSYM    DATA     BYTE      P1TRIS
      000000A2H   SFRSYM    DATA     BYTE      P2TRIS
      000000E0H   SFRSYM    DATA     BYTE      ACC
      000000A3H   SFRSYM    DATA     BYTE      P3TRIS
      000000A8H.4 SFRSYM    DATA     BIT       ES0
      000000A8H.6 SFRSYM    DATA     BIT       ES1
      000000A8H.1 SFRSYM    DATA     BIT       ET0
      000000EDH   SFRSYM    DATA     BYTE      SPSR
      000000A8H.3 SFRSYM    DATA     BIT       ET1
      00000088H.5 SFRSYM    DATA     BIT       TF0
      000000A8H.5 SFRSYM    DATA     BIT       ET2
      00000098H.0 SFRSYM    DATA     BIT       RI0
      00000088H.7 SFRSYM    DATA     BIT       TF1
      0000008CH   SFRSYM    DATA     BYTE      TH0
      000000A8H.0 SFRSYM    DATA     BIT       EX0
      00000098H.1 SFRSYM    DATA     BIT       TI0
      00000088H.0 SFRSYM    DATA     BIT       IT0
      0000008DH   SFRSYM    DATA     BYTE      TH1
      000000A8H.2 SFRSYM    DATA     BIT       EX1
      00000088H.2 SFRSYM    DATA     BIT       IT1
      000000CDH   SFRSYM    DATA     BYTE      TH2
      000000D0H.0 SFRSYM    DATA     BIT       P
      000000DBH   SFRSYM    DATA     BYTE      TH3
      000000E3H   SFRSYM    DATA     BYTE      TH4
      0000008AH   SFRSYM    DATA     BYTE      TL0
      0000008BH   SFRSYM    DATA     BYTE      TL1
      00000098H.2 SFRSYM    DATA     BIT       U0RB8
      000000CCH   SFRSYM    DATA     BYTE      TL2
      000000B8H.4 SFRSYM    DATA     BIT       PS0
      000000DAH   SFRSYM    DATA     BYTE      TL3
      000000BFH   SFRSYM    DATA     BYTE      BUZCON
      000000B8H.6 SFRSYM    DATA     BIT       PS1
      000000B8H.1 SFRSYM    DATA     BIT       PT0
      00000098H.3 SFRSYM    DATA     BIT       U0TB8
      000000E2H   SFRSYM    DATA     BYTE      TL4
      000000D0H.3 SFRSYM    DATA     BIT       RS0
      000000B8H.3 SFRSYM    DATA     BIT       PT1
      000000D0H.4 SFRSYM    DATA     BIT       RS1
      000000B8H.5 SFRSYM    DATA     BIT       PT2
      00000098H.7 SFRSYM    DATA     BIT       U0SM0
      00000088H.4 SFRSYM    DATA     BIT       TR0
      000000BEH   SFRSYM    DATA     BYTE      BUZDIV
      00000098H.6 SFRSYM    DATA     BIT       U0SM1
      00000088H.6 SFRSYM    DATA     BIT       TR1
      000000B8H.0 SFRSYM    DATA     BIT       PX0
      00000098H.5 SFRSYM    DATA     BIT       U0SM2
      000000B8H.2 SFRSYM    DATA     BIT       PX1
      000000BDH   SFRSYM    DATA     BYTE      WUTCRH
      00000099H   SFRSYM    DATA     BYTE      SBUF0
LX51 LINKER/LOCATER V4.66.97.0                                                        11/09/2024  20:20:28  PAGE 44


      000000EBH   SFRSYM    DATA     BYTE      SBUF1
      000000BCH   SFRSYM    DATA     BYTE      WUTCRL
      00000098H   SFRSYM    DATA     BYTE      SCON0
      000000EAH   SFRSYM    DATA     BYTE      SCON1
      000000C8H   SFRSYM    DATA     BYTE      T2CON
      00000086H   SFRSYM    DATA     BYTE      DPS
      000000FEH   SFRSYM    DATA     BYTE      MDATA
      000000F6H   SFRSYM    DATA     BYTE      I2CMBUF
      000000F1H   SFRSYM    DATA     BYTE      I2CSADR
      00000098H.4 SFRSYM    DATA     BIT       U0REN
      000000C8H.5 SFRSYM    DATA     BIT       CAPES
      000000FDH   SFRSYM    DATA     BYTE      MADRH
      0000008EH   SFRSYM    DATA     BYTE      CKCON
      000000F3H   SFRSYM    DATA     BYTE      I2CSBUF
      000000FCH   SFRSYM    DATA     BYTE      MADRL
      000000D0H.5 SFRSYM    DATA     BIT       F0
      000000FBH   SFRSYM    DATA     BYTE      MLOCK
      000000D0H   SFRSYM    DATA     BYTE      PSW
      00000097H   SFRSYM    DATA     BYTE      WDCON
      00000052H   SYMBOL    DATA     ---       KeyTimer
      00000022H.2 SYMBOL    BIT      BIT       IsKeyPressed
      00000054H   SYMBOL    DATA     ---       Keyevent
      0100385EH   SYMBOL    CODE     ---       _ClickAndHoldEventHandler

      01000003H   BLOCK     CODE     ---       LVL=0
      ---         BLOCKEND  ---      ---       LVL=0

      0100330BH   BLOCK     CODE     ---       LVL=0
      0100330BH   BLOCK     CODE     NEAR LAB  LVL=1
      00000023H   SYMBOL    DATA     ---       KeyInitCfg
      ---         BLOCKEND  ---      ---       LVL=1
      0100330BH   LINE      CODE     ---       #19
      0100330BH   LINE      CODE     ---       #20
      0100330BH   LINE      CODE     ---       #23
      0100330EH   LINE      CODE     ---       #24
      01003311H   LINE      CODE     ---       #25
      01003313H   LINE      CODE     ---       #27
      0100331BH   LINE      CODE     ---       #28
      01003328H   LINE      CODE     ---       #29
      0100332FH   LINE      CODE     ---       #30
      01003338H   LINE      CODE     ---       #32
      0100333EH   LINE      CODE     ---       #33
      01003344H   LINE      CODE     ---       #34
      01003347H   LINE      CODE     ---       #35
      01003349H   LINE      CODE     ---       #36
      0100334BH   LINE      CODE     ---       #37
      0100334DH   LINE      CODE     ---       #38
      0100334FH   LINE      CODE     ---       #39
      01003351H   LINE      CODE     ---       #40
      ---         BLOCKEND  ---      ---       LVL=0

      010038B7H   BLOCK     CODE     ---       LVL=0
      010038B7H   LINE      CODE     ---       #43
      010038B7H   LINE      CODE     ---       #44
      010038B7H   LINE      CODE     ---       #45
      010038BDH   LINE      CODE     ---       #46
      010038C3H   LINE      CODE     ---       #47
      010038C9H   LINE      CODE     ---       #49
      010038C9H   LINE      CODE     ---       #50
      ---         BLOCKEND  ---      ---       LVL=0

      01003549H   BLOCK     CODE     ---       LVL=0
      01003549H   BLOCK     CODE     NEAR LAB  LVL=1
      00000007H   SYMBOL    DATA     BYTE      buf
      ---         BLOCKEND  ---      ---       LVL=1
LX51 LINKER/LOCATER V4.66.97.0                                                        11/09/2024  20:20:28  PAGE 45


      01003549H   LINE      CODE     ---       #53
      01003549H   LINE      CODE     ---       #54
      01003549H   LINE      CODE     ---       #57
      0100354EH   LINE      CODE     ---       #58
      0100354EH   LINE      CODE     ---       #59
      01003551H   LINE      CODE     ---       #60
      01003557H   LINE      CODE     ---       #61
      0100355AH   LINE      CODE     ---       #62
      0100355DH   LINE      CODE     ---       #63
      0100355FH   LINE      CODE     ---       #64
      01003562H   LINE      CODE     ---       #66
      01003567H   LINE      CODE     ---       #67
      01003567H   LINE      CODE     ---       #68
      0100356AH   LINE      CODE     ---       #69
      01003570H   LINE      CODE     ---       #70
      01003573H   LINE      CODE     ---       #71
      01003576H   LINE      CODE     ---       #72
      01003577H   LINE      CODE     ---       #73
      0100357AH   LINE      CODE     ---       #74
      ---         BLOCKEND  ---      ---       LVL=0

      01002F52H   BLOCK     CODE     ---       LVL=0
      01002F52H   BLOCK     CODE     NEAR LAB  LVL=1
      00000007H   SYMBOL    DATA     BYTE      time
      ---         BLOCKEND  ---      ---       LVL=1
      01002F52H   LINE      CODE     ---       #77
      01002F52H   LINE      CODE     ---       #78
      01002F52H   LINE      CODE     ---       #81
      01002F5FH   LINE      CODE     ---       #82
      01002F5FH   LINE      CODE     ---       #83
      01002F61H   LINE      CODE     ---       #84
      01002F66H   LINE      CODE     ---       #85
      01002F69H   LINE      CODE     ---       #86
      01002F71H   LINE      CODE     ---       #87
      01002F71H   LINE      CODE     ---       #88
      01002F74H   LINE      CODE     ---       #89
      01002F76H   LINE      CODE     ---       #90
      01002F78H   LINE      CODE     ---       #91
      01002F7EH   LINE      CODE     ---       #92
      01002F7EH   LINE      CODE     ---       #93
      01002F8EH   LINE      CODE     ---       #94
      01002F91H   LINE      CODE     ---       #95
      01002F91H   LINE      CODE     ---       #96
      01002F93H   LINE      CODE     ---       #99
      01002F93H   LINE      CODE     ---       #100
      01002F95H   LINE      CODE     ---       #101
      01002F9BH   LINE      CODE     ---       #102
      01002FA3H   LINE      CODE     ---       #103
      01002FABH   LINE      CODE     ---       #104
      01002FABH   LINE      CODE     ---       #106
      01002FB2H   LINE      CODE     ---       #107
      01002FB8H   LINE      CODE     ---       #108
      ---         BLOCKEND  ---      ---       LVL=0

      010037CFH   BLOCK     CODE     ---       LVL=0
      010037CFH   LINE      CODE     ---       #111
      010037CFH   LINE      CODE     ---       #112
      010037CFH   LINE      CODE     ---       #114
      010037D6H   LINE      CODE     ---       #115
      010037DCH   LINE      CODE     ---       #117
      010037DEH   LINE      CODE     ---       #118
      010037E6H   LINE      CODE     ---       #119
      010037EEH   LINE      CODE     ---       #120
      ---         BLOCKEND  ---      ---       LVL=0

LX51 LINKER/LOCATER V4.66.97.0                                                        11/09/2024  20:20:28  PAGE 46


      0100385EH   BLOCK     CODE     ---       LVL=0
      00000006H   SYMBOL    DATA     INT       PressCount
      0100385EH   LINE      CODE     ---       #123
      0100385EH   LINE      CODE     ---       #124
      0100385EH   LINE      CODE     ---       #125
      01003861H   LINE      CODE     ---       #126
      01003863H   LINE      CODE     ---       #127
      01003865H   LINE      CODE     ---       #128
      01003867H   LINE      CODE     ---       #129
      01003869H   LINE      CODE     ---       #131
      01003875H   LINE      CODE     ---       #132
      ---         BLOCKEND  ---      ---       LVL=0

      01002811H   BLOCK     CODE     ---       LVL=0
      01002811H   LINE      CODE     ---       #134
      01002811H   LINE      CODE     ---       #135
      01002811H   LINE      CODE     ---       #137
      0100281AH   LINE      CODE     ---       #138
      0100281AH   LINE      CODE     ---       #139
      01002821H   LINE      CODE     ---       #140
      0100282AH   LINE      CODE     ---       #141
      01002831H   LINE      CODE     ---       #143
      0100283EH   LINE      CODE     ---       #144
      0100283EH   LINE      CODE     ---       #145
      01002841H   LINE      CODE     ---       #146
      0100284AH   LINE      CODE     ---       #147
      0100285CH   LINE      CODE     ---       #148
      01002863H   LINE      CODE     ---       #149
      01002863H   LINE      CODE     ---       #150
      01002863H   LINE      CODE     ---       #152
      0100286EH   LINE      CODE     ---       #154
      01002877H   LINE      CODE     ---       #155
      01002877H   LINE      CODE     ---       #157
      0100288AH   LINE      CODE     ---       #159
      0100288AH   LINE      CODE     ---       #160
      0100288DH   LINE      CODE     ---       #161
      0100288FH   LINE      CODE     ---       #162
      01002892H   LINE      CODE     ---       #163
      01002895H   LINE      CODE     ---       #164
      01002895H   LINE      CODE     ---       #165
      01002898H   LINE      CODE     ---       #166
      01002898H   LINE      CODE     ---       #168
      010028A1H   LINE      CODE     ---       #169
      010028A1H   LINE      CODE     ---       #170
      010028A3H   LINE      CODE     ---       #171
      010028A7H   LINE      CODE     ---       #172
      010028ABH   LINE      CODE     ---       #174
      010028AEH   LINE      CODE     ---       #175
      010028AEH   LINE      CODE     ---       #176
      ---         BLOCKEND  ---      ---       LVL=0

      010037EFH   BLOCK     CODE     ---       LVL=0
      00000022H.1 SYMBOL    BIT      BIT       IsRemoveResult
      010037EFH   BLOCK     CODE     NEAR LAB  LVL=1
      00000006H   SYMBOL    DATA     INT       buf
      ---         BLOCKEND  ---      ---       LVL=1
      010037EFH   LINE      CODE     ---       #178
      010037EFH   LINE      CODE     ---       #179
      010037EFH   LINE      CODE     ---       #181
      010037FBH   LINE      CODE     ---       #182
      01003802H   LINE      CODE     ---       #183
      01003805H   LINE      CODE     ---       #184
      01003808H   LINE      CODE     ---       #185
      01003808H   LINE      CODE     ---       #186
      0100380BH   LINE      CODE     ---       #187
LX51 LINKER/LOCATER V4.66.97.0                                                        11/09/2024  20:20:28  PAGE 47


      0100380DH   LINE      CODE     ---       #188
      0100380DH   LINE      CODE     ---       #189
      0100380DH   LINE      CODE     ---       #190
      ---         BLOCKEND  ---      ---       LVL=0

      01003919H   BLOCK     CODE     ---       LVL=0
      01003919H   LINE      CODE     ---       #192
      01003919H   LINE      CODE     ---       #193
      01003919H   LINE      CODE     ---       #194
      0100391FH   LINE      CODE     ---       #195
      01003922H   LINE      CODE     ---       #196
      01003923H   LINE      CODE     ---       #197
      ---         BLOCKEND  ---      ---       LVL=0

      0100392DH   BLOCK     CODE     ---       LVL=0
      0100392DH   LINE      CODE     ---       #199
      0100392DH   LINE      CODE     ---       #200
      0100392DH   LINE      CODE     ---       #201
      01003933H   LINE      CODE     ---       #202
      ---         BLOCKEND  ---      ---       LVL=0

      01003934H   BLOCK     CODE     ---       LVL=0
      01003934H   LINE      CODE     ---       #204
      01003934H   LINE      CODE     ---       #205
      01003934H   LINE      CODE     ---       #206
      0100393AH   LINE      CODE     ---       #207
      ---         BLOCKEND  ---      ---       LVL=0

      ---         MODULE    ---      ---       LEDMGMT
      00000061H   PUBLIC    DATA     BYTE      LEDMode
      01003684H   PUBLIC    CODE     ---       _MakeFastStrobe
      01001A3CH   PUBLIC    CODE     ---       LEDControlHandler
      010036D6H   PUBLIC    CODE     ---       LED_Init
      000000C8H.0 SFRSYM    DATA     BIT       T2I0
      000000C3H   SFRSYM    DATA     BYTE      CCH1
      00000080H   SFRSYM    DATA     BYTE      P0
      000000C8H.1 SFRSYM    DATA     BIT       T2I1
      000000C5H   SFRSYM    DATA     BYTE      CCH2
      00000090H   SFRSYM    DATA     BYTE      P1
      000000C7H   SFRSYM    DATA     BYTE      CCH3
      000000ACH   SFRSYM    DATA     BYTE      P0EXTIE
      000000A0H   SFRSYM    DATA     BYTE      P2
      000000B4H   SFRSYM    DATA     BYTE      P0EXTIF
      000000B0H   SFRSYM    DATA     BYTE      P3
      000000ADH   SFRSYM    DATA     BYTE      P1EXTIE
      000000D0H.6 SFRSYM    DATA     BIT       AC
      000000FFH   SFRSYM    DATA     BYTE      MCTRL
      000000C2H   SFRSYM    DATA     BYTE      CCL1
      000000B5H   SFRSYM    DATA     BYTE      P1EXTIF
      000000AEH   SFRSYM    DATA     BYTE      P2EXTIE
      000000C4H   SFRSYM    DATA     BYTE      CCL2
      000000B6H   SFRSYM    DATA     BYTE      P2EXTIF
      000000AFH   SFRSYM    DATA     BYTE      P3EXTIE
      000000A8H.7 SFRSYM    DATA     BIT       EA
      000000C6H   SFRSYM    DATA     BYTE      CCL3
      000000B7H   SFRSYM    DATA     BYTE      P3EXTIF
      000000AAH   SFRSYM    DATA     BYTE      EIE2
      000000B2H   SFRSYM    DATA     BYTE      EIF2
      000000C8H.3 SFRSYM    DATA     BIT       T2R0
      000000C8H.4 SFRSYM    DATA     BIT       T2R1
      00000083H   SFRSYM    DATA     BYTE      DPH0
      000000A8H   SFRSYM    DATA     BYTE      IE
      00000085H   SFRSYM    DATA     BYTE      DPH1
      000000B9H   SFRSYM    DATA     BYTE      EIP1
      000000BAH   SFRSYM    DATA     BYTE      EIP2
LX51 LINKER/LOCATER V4.66.97.0                                                        11/09/2024  20:20:28  PAGE 48


      00000082H   SFRSYM    DATA     BYTE      DPL0
      00000084H   SFRSYM    DATA     BYTE      DPL1
      000000C8H.6 SFRSYM    DATA     BIT       I3FR
      000000CFH   SFRSYM    DATA     BYTE      T2IE
      00000096H   SFRSYM    DATA     BYTE      TA
      000000C9H   SFRSYM    DATA     BYTE      T2IF
      000000C8H.2 SFRSYM    DATA     BIT       T2CM
      000000DFH   SFRSYM    DATA     BYTE      ADCON0
      000000DEH   SFRSYM    DATA     BYTE      ADCON1
      000000E9H   SFRSYM    DATA     BYTE      ADCON2
      000000B8H   SFRSYM    DATA     BYTE      IP
      000000CEH   SFRSYM    DATA     BYTE      CCEN
      000000D0H.7 SFRSYM    DATA     BIT       CY
      000000A0H.5 SFRSYM    DATA     BIT       GLED
      000000D2H   SFRSYM    DATA     BYTE      T34MOD
      00000093H   SFRSYM    DATA     BYTE      DPX0
      00000095H   SFRSYM    DATA     BYTE      DPX1
      000000F4H   SFRSYM    DATA     BYTE      I2CMSA
      000000F5H   SFRSYM    DATA     BYTE      I2CMCR
      00000081H   SFRSYM    DATA     BYTE      SP
      000000D0H.2 SFRSYM    DATA     BIT       OV
      000000A0H.4 SFRSYM    DATA     BIT       RLED
      000000F2H   SFRSYM    DATA     BYTE      I2CSCR
      000000C8H.7 SFRSYM    DATA     BIT       T2PS
      000000D1H   SFRSYM    DATA     BYTE      ADCMPC
      000000CBH   SFRSYM    DATA     BYTE      RLDH
      000000D5H   SFRSYM    DATA     BYTE      ADCMPH
      000000CAH   SFRSYM    DATA     BYTE      RLDL
      00000080H.0 SFRSYM    DATA     BIT       P00
      00000090H.0 SFRSYM    DATA     BIT       P10
      00000080H.1 SFRSYM    DATA     BIT       P01
      000000F7H   SFRSYM    DATA     BYTE      I2CMTP
      00000099H   SFRSYM    DATA     BYTE      SBUF
      00000087H   SFRSYM    DATA     BYTE      PCON
      000000A0H.0 SFRSYM    DATA     BIT       P20
      00000090H.1 SFRSYM    DATA     BIT       P11
      00000080H.2 SFRSYM    DATA     BIT       P02
      000000F5H   SFRSYM    DATA     BYTE      I2CMSR
      000000B0H.0 SFRSYM    DATA     BIT       P30
      000000A0H.1 SFRSYM    DATA     BIT       P21
      00000090H.2 SFRSYM    DATA     BIT       P12
      00000080H.3 SFRSYM    DATA     BIT       P03
      000000D4H   SFRSYM    DATA     BYTE      ADCMPL
      000000B0H.1 SFRSYM    DATA     BIT       P31
      000000A0H.2 SFRSYM    DATA     BIT       P22
      00000090H.3 SFRSYM    DATA     BIT       P13
      00000080H.4 SFRSYM    DATA     BIT       P04
      000000B0H.2 SFRSYM    DATA     BIT       P32
      000000A0H.3 SFRSYM    DATA     BIT       P23
      00000090H.4 SFRSYM    DATA     BIT       P14
      00000080H.5 SFRSYM    DATA     BIT       P05
      00000089H   SFRSYM    DATA     BYTE      TMOD
      00000088H   SFRSYM    DATA     BYTE      TCON
      000000B0H.3 SFRSYM    DATA     BIT       P33
      000000A0H.4 SFRSYM    DATA     BIT       P24
      00000090H.5 SFRSYM    DATA     BIT       P15
      00000080H.6 SFRSYM    DATA     BIT       P06
      000000B0H.4 SFRSYM    DATA     BIT       P34
      000000A0H.5 SFRSYM    DATA     BIT       P25
      00000090H.6 SFRSYM    DATA     BIT       P16
      00000080H.7 SFRSYM    DATA     BIT       P07
      000000B0H.5 SFRSYM    DATA     BIT       P35
      000000A0H.6 SFRSYM    DATA     BIT       P26
      00000090H.7 SFRSYM    DATA     BIT       P17
      000000F2H   SFRSYM    DATA     BYTE      I2CSSR
LX51 LINKER/LOCATER V4.66.97.0                                                        11/09/2024  20:20:28  PAGE 49


      000000B0H.6 SFRSYM    DATA     BIT       P36
      000000A0H.7 SFRSYM    DATA     BIT       P27
      000000ECH   SFRSYM    DATA     BYTE      SPCR
      000000DDH   SFRSYM    DATA     BYTE      ADRESH
      000000B0H.7 SFRSYM    DATA     BIT       P37
      000000EEH   SFRSYM    DATA     BYTE      SPDR
      000000EFH   SFRSYM    DATA     BYTE      SSCR
      000000D3H   SFRSYM    DATA     BYTE      ADDLYL
      000000DCH   SFRSYM    DATA     BYTE      ADRESL
      00000088H.1 SFRSYM    DATA     BIT       IE0
      00000088H.3 SFRSYM    DATA     BIT       IE1
      0000008FH   SFRSYM    DATA     BYTE      CLKDIV
      000000F0H   SFRSYM    DATA     BYTE      B
      00000091H   SFRSYM    DATA     BYTE      FUNCCR
      0000009AH   SFRSYM    DATA     BYTE      P0TRIS
      000000A1H   SFRSYM    DATA     BYTE      P1TRIS
      000000A2H   SFRSYM    DATA     BYTE      P2TRIS
      000000E0H   SFRSYM    DATA     BYTE      ACC
      000000A3H   SFRSYM    DATA     BYTE      P3TRIS
      000000A8H.4 SFRSYM    DATA     BIT       ES0
      000000A8H.6 SFRSYM    DATA     BIT       ES1
      000000A8H.1 SFRSYM    DATA     BIT       ET0
      000000EDH   SFRSYM    DATA     BYTE      SPSR
      000000A8H.3 SFRSYM    DATA     BIT       ET1
      00000088H.5 SFRSYM    DATA     BIT       TF0
      000000A8H.5 SFRSYM    DATA     BIT       ET2
      00000098H.0 SFRSYM    DATA     BIT       RI0
      00000088H.7 SFRSYM    DATA     BIT       TF1
      0000008CH   SFRSYM    DATA     BYTE      TH0
      000000A8H.0 SFRSYM    DATA     BIT       EX0
      00000098H.1 SFRSYM    DATA     BIT       TI0
      00000088H.0 SFRSYM    DATA     BIT       IT0
      0000008DH   SFRSYM    DATA     BYTE      TH1
      000000A8H.2 SFRSYM    DATA     BIT       EX1
      00000088H.2 SFRSYM    DATA     BIT       IT1
      000000CDH   SFRSYM    DATA     BYTE      TH2
      000000D0H.0 SFRSYM    DATA     BIT       P
      000000DBH   SFRSYM    DATA     BYTE      TH3
      000000E3H   SFRSYM    DATA     BYTE      TH4
      0000008AH   SFRSYM    DATA     BYTE      TL0
      0000008BH   SFRSYM    DATA     BYTE      TL1
      00000098H.2 SFRSYM    DATA     BIT       U0RB8
      000000CCH   SFRSYM    DATA     BYTE      TL2
      000000B8H.4 SFRSYM    DATA     BIT       PS0
      000000DAH   SFRSYM    DATA     BYTE      TL3
      000000BFH   SFRSYM    DATA     BYTE      BUZCON
      000000B8H.6 SFRSYM    DATA     BIT       PS1
      000000B8H.1 SFRSYM    DATA     BIT       PT0
      00000098H.3 SFRSYM    DATA     BIT       U0TB8
      000000E2H   SFRSYM    DATA     BYTE      TL4
      000000D0H.3 SFRSYM    DATA     BIT       RS0
      000000B8H.3 SFRSYM    DATA     BIT       PT1
      000000D0H.4 SFRSYM    DATA     BIT       RS1
      000000B8H.5 SFRSYM    DATA     BIT       PT2
      00000098H.7 SFRSYM    DATA     BIT       U0SM0
      00000088H.4 SFRSYM    DATA     BIT       TR0
      000000BEH   SFRSYM    DATA     BYTE      BUZDIV
      00000098H.6 SFRSYM    DATA     BIT       U0SM1
      00000088H.6 SFRSYM    DATA     BIT       TR1
      000000B8H.0 SFRSYM    DATA     BIT       PX0
      00000098H.5 SFRSYM    DATA     BIT       U0SM2
      000000B8H.2 SFRSYM    DATA     BIT       PX1
      000000BDH   SFRSYM    DATA     BYTE      WUTCRH
      00000099H   SFRSYM    DATA     BYTE      SBUF0
      000000EBH   SFRSYM    DATA     BYTE      SBUF1
LX51 LINKER/LOCATER V4.66.97.0                                                        11/09/2024  20:20:28  PAGE 50


      000000BCH   SFRSYM    DATA     BYTE      WUTCRL
      00000098H   SFRSYM    DATA     BYTE      SCON0
      000000EAH   SFRSYM    DATA     BYTE      SCON1
      000000C8H   SFRSYM    DATA     BYTE      T2CON
      00000086H   SFRSYM    DATA     BYTE      DPS
      000000FEH   SFRSYM    DATA     BYTE      MDATA
      000000F6H   SFRSYM    DATA     BYTE      I2CMBUF
      000000F1H   SFRSYM    DATA     BYTE      I2CSADR
      00000098H.4 SFRSYM    DATA     BIT       U0REN
      000000C8H.5 SFRSYM    DATA     BIT       CAPES
      000000FDH   SFRSYM    DATA     BYTE      MADRH
      0000008EH   SFRSYM    DATA     BYTE      CKCON
      000000F3H   SFRSYM    DATA     BYTE      I2CSBUF
      000000FCH   SFRSYM    DATA     BYTE      MADRL
      000000D0H.5 SFRSYM    DATA     BIT       F0
      000000FBH   SFRSYM    DATA     BYTE      MLOCK
      000000D0H   SFRSYM    DATA     BYTE      PSW
      00000097H   SFRSYM    DATA     BYTE      WDCON
      00000060H   SYMBOL    DATA     CHAR      timer
      02000057H   SYMBOL    XDATA    CHAR      StepDownTIM

      01003876H   BLOCK     CODE     ---       LVL=0
      ---         BLOCKEND  ---      ---       LVL=0

      010036D6H   BLOCK     CODE     ---       LVL=0
      010036D6H   BLOCK     CODE     NEAR LAB  LVL=1
      00000025H   SYMBOL    DATA     ---       LEDInitCfg
      ---         BLOCKEND  ---      ---       LVL=1
      010036D6H   LINE      CODE     ---       #15
      010036D6H   LINE      CODE     ---       #16
      010036D6H   LINE      CODE     ---       #19
      010036D9H   LINE      CODE     ---       #20
      010036DCH   LINE      CODE     ---       #21
      010036DFH   LINE      CODE     ---       #23
      010036E1H   LINE      CODE     ---       #24
      010036E3H   LINE      CODE     ---       #26
      010036E9H   LINE      CODE     ---       #27
      010036F0H   LINE      CODE     ---       #29
      010036F3H   LINE      CODE     ---       #30
      ---         BLOCKEND  ---      ---       LVL=0

      01001A3CH   BLOCK     CODE     ---       LVL=0
      01001A3CH   BLOCK     CODE     NEAR LAB  LVL=1
      00000007H   SYMBOL    DATA     CHAR      buf
      00000022H.0 SYMBOL    BIT      BIT       IsLEDON
      ---         BLOCKEND  ---      ---       LVL=1
      01001A3CH   LINE      CODE     ---       #36
      01001A3CH   LINE      CODE     ---       #37
      01001A3CH   LINE      CODE     ---       #43
      01001A46H   LINE      CODE     ---       #44
      01001A5AH   LINE      CODE     ---       #45
      01001A5AH   LINE      CODE     ---       #46
      01001A5CH   LINE      CODE     ---       #47
      01001A5EH   LINE      CODE     ---       #48
      01001A61H   LINE      CODE     ---       #49
      01001A63H   LINE      CODE     ---       #51
      01001A63H   LINE      CODE     ---       #52
      01001A69H   LINE      CODE     ---       #55
      01001A98H   LINE      CODE     ---       #56
      01001A98H   LINE      CODE     ---       #57
      01001AA0H   LINE      CODE     ---       #58
      01001AA5H   LINE      CODE     ---       #59
      01001AAAH   LINE      CODE     ---       #60
      01001AAFH   LINE      CODE     ---       #61
      01001AAFH   LINE      CODE     ---       #62
LX51 LINKER/LOCATER V4.66.97.0                                                        11/09/2024  20:20:28  PAGE 51


      01001AAFH   LINE      CODE     ---       #63
      01001AB1H   LINE      CODE     ---       #64
      01001AB6H   LINE      CODE     ---       #65
      01001ACCH   LINE      CODE     ---       #66
      01001ACCH   LINE      CODE     ---       #67
      01001ACDH   LINE      CODE     ---       #68
      01001AD0H   LINE      CODE     ---       #69
      01001AD3H   LINE      CODE     ---       #70
      01001AD5H   LINE      CODE     ---       #71
      01001AE0H   LINE      CODE     ---       #72
      01001AE9H   LINE      CODE     ---       #73
      01001AEAH   LINE      CODE     ---       #74
      01001AEAH   LINE      CODE     ---       #75
      01001AEAH   LINE      CODE     ---       #76
      01001AECH   LINE      CODE     ---       #77
      01001AEFH   LINE      CODE     ---       #78
      01001B06H   LINE      CODE     ---       #79
      01001B06H   LINE      CODE     ---       #80
      01001B08H   LINE      CODE     ---       #81
      01001B08H   LINE      CODE     ---       #82
      01001B0AH   LINE      CODE     ---       #84
      01001B0AH   LINE      CODE     ---       #85
      01001B12H   LINE      CODE     ---       #86
      01001B16H   LINE      CODE     ---       #87
      01001B18H   LINE      CODE     ---       #88
      01001B18H   LINE      CODE     ---       #89
      01001B19H   LINE      CODE     ---       #90
      01001B19H   LINE      CODE     ---       #91
      01001B1BH   LINE      CODE     ---       #92
      01001B1EH   LINE      CODE     ---       #93
      01001B30H   LINE      CODE     ---       #94
      01001B30H   LINE      CODE     ---       #95
      01001B32H   LINE      CODE     ---       #96
      01001B35H   LINE      CODE     ---       #97
      01001B36H   LINE      CODE     ---       #99
      01001B36H   LINE      CODE     ---       #100
      01001B3EH   LINE      CODE     ---       #101
      01001B42H   LINE      CODE     ---       #102
      01001B44H   LINE      CODE     ---       #103
      01001B44H   LINE      CODE     ---       #104
      01001B44H   LINE      CODE     ---       #105
      01001B44H   LINE      CODE     ---       #106
      ---         BLOCKEND  ---      ---       LVL=0

      01003684H   BLOCK     CODE     ---       LVL=0
      00000007H   SYMBOL    DATA     BYTE      LEDMode
      01003684H   LINE      CODE     ---       #109
      01003684H   LINE      CODE     ---       #110
      01003684H   LINE      CODE     ---       #112
      01003691H   LINE      CODE     ---       #113
      01003691H   LINE      CODE     ---       #114
      01003697H   LINE      CODE     ---       #115
      0100369DH   LINE      CODE     ---       #116
      010036A1H   LINE      CODE     ---       #117
      010036A1H   LINE      CODE     ---       #118
      010036A8H   LINE      CODE     ---       #120
      010036AAH   LINE      CODE     ---       #121
      010036ACH   LINE      CODE     ---       #122
      ---         BLOCKEND  ---      ---       LVL=0

      ---         MODULE    ---      ---       PWM
      00000021H.0 PUBLIC    BIT      BIT       IsNeedToUploadPWM
      0200004EH   PUBLIC    XDATA    FLOAT     PWMDuty
      0100236CH   PUBLIC    CODE     ---       PWM_OutputCtrlHandler
      00000022H.0 PUBLIC    BIT      BIT       ?PWM_ForceSetDuty?BIT
LX51 LINKER/LOCATER V4.66.97.0                                                        11/09/2024  20:20:28  PAGE 52


      0100365AH   PUBLIC    CODE     ---       PWM_ForceSetDuty
      01002BA1H   PUBLIC    CODE     ---       PWM_Init
      0100002EH   PUBLIC    CODE     ---       PWM_DeInit
      000000C8H.0 SFRSYM    DATA     BIT       T2I0
      000000C3H   SFRSYM    DATA     BYTE      CCH1
      00000080H   SFRSYM    DATA     BYTE      P0
      000000C8H.1 SFRSYM    DATA     BIT       T2I1
      000000C5H   SFRSYM    DATA     BYTE      CCH2
      00000090H   SFRSYM    DATA     BYTE      P1
      000000C7H   SFRSYM    DATA     BYTE      CCH3
      000000ACH   SFRSYM    DATA     BYTE      P0EXTIE
      000000A0H   SFRSYM    DATA     BYTE      P2
      000000B4H   SFRSYM    DATA     BYTE      P0EXTIF
      000000B0H   SFRSYM    DATA     BYTE      P3
      000000ADH   SFRSYM    DATA     BYTE      P1EXTIE
      000000D0H.6 SFRSYM    DATA     BIT       AC
      000000FFH   SFRSYM    DATA     BYTE      MCTRL
      000000C2H   SFRSYM    DATA     BYTE      CCL1
      000000B5H   SFRSYM    DATA     BYTE      P1EXTIF
      000000AEH   SFRSYM    DATA     BYTE      P2EXTIE
      000000C4H   SFRSYM    DATA     BYTE      CCL2
      000000B6H   SFRSYM    DATA     BYTE      P2EXTIF
      000000AFH   SFRSYM    DATA     BYTE      P3EXTIE
      000000A8H.7 SFRSYM    DATA     BIT       EA
      000000C6H   SFRSYM    DATA     BYTE      CCL3
      000000B7H   SFRSYM    DATA     BYTE      P3EXTIF
      000000AAH   SFRSYM    DATA     BYTE      EIE2
      000000B2H   SFRSYM    DATA     BYTE      EIF2
      000000C8H.3 SFRSYM    DATA     BIT       T2R0
      000000C8H.4 SFRSYM    DATA     BIT       T2R1
      00000083H   SFRSYM    DATA     BYTE      DPH0
      000000A8H   SFRSYM    DATA     BYTE      IE
      00000085H   SFRSYM    DATA     BYTE      DPH1
      000000B9H   SFRSYM    DATA     BYTE      EIP1
      000000BAH   SFRSYM    DATA     BYTE      EIP2
      00000082H   SFRSYM    DATA     BYTE      DPL0
      00000084H   SFRSYM    DATA     BYTE      DPL1
      000000C8H.6 SFRSYM    DATA     BIT       I3FR
      000000CFH   SFRSYM    DATA     BYTE      T2IE
      00000096H   SFRSYM    DATA     BYTE      TA
      000000C9H   SFRSYM    DATA     BYTE      T2IF
      000000C8H.2 SFRSYM    DATA     BIT       T2CM
      000000DFH   SFRSYM    DATA     BYTE      ADCON0
      000000DEH   SFRSYM    DATA     BYTE      ADCON1
      000000E9H   SFRSYM    DATA     BYTE      ADCON2
      000000B8H   SFRSYM    DATA     BYTE      IP
      000000CEH   SFRSYM    DATA     BYTE      CCEN
      000000D0H.7 SFRSYM    DATA     BIT       CY
      000000D2H   SFRSYM    DATA     BYTE      T34MOD
      00000093H   SFRSYM    DATA     BYTE      DPX0
      00000095H   SFRSYM    DATA     BYTE      DPX1
      000000F4H   SFRSYM    DATA     BYTE      I2CMSA
      000000F5H   SFRSYM    DATA     BYTE      I2CMCR
      00000081H   SFRSYM    DATA     BYTE      SP
      000000D0H.2 SFRSYM    DATA     BIT       OV
      000000F2H   SFRSYM    DATA     BYTE      I2CSCR
      000000C8H.7 SFRSYM    DATA     BIT       T2PS
      000000D1H   SFRSYM    DATA     BYTE      ADCMPC
      000000CBH   SFRSYM    DATA     BYTE      RLDH
      000000D5H   SFRSYM    DATA     BYTE      ADCMPH
      000000CAH   SFRSYM    DATA     BYTE      RLDL
      00000080H.0 SFRSYM    DATA     BIT       P00
      00000090H.0 SFRSYM    DATA     BIT       P10
      00000080H.1 SFRSYM    DATA     BIT       P01
      000000F7H   SFRSYM    DATA     BYTE      I2CMTP
LX51 LINKER/LOCATER V4.66.97.0                                                        11/09/2024  20:20:28  PAGE 53


      00000099H   SFRSYM    DATA     BYTE      SBUF
      00000087H   SFRSYM    DATA     BYTE      PCON
      000000A0H.0 SFRSYM    DATA     BIT       P20
      00000090H.1 SFRSYM    DATA     BIT       P11
      00000080H.2 SFRSYM    DATA     BIT       P02
      000000F5H   SFRSYM    DATA     BYTE      I2CMSR
      000000B0H.0 SFRSYM    DATA     BIT       P30
      000000A0H.1 SFRSYM    DATA     BIT       P21
      00000090H.2 SFRSYM    DATA     BIT       P12
      00000080H.3 SFRSYM    DATA     BIT       P03
      000000D4H   SFRSYM    DATA     BYTE      ADCMPL
      000000B0H.1 SFRSYM    DATA     BIT       P31
      000000A0H.2 SFRSYM    DATA     BIT       P22
      00000090H.3 SFRSYM    DATA     BIT       P13
      00000080H.4 SFRSYM    DATA     BIT       P04
      000000B0H.2 SFRSYM    DATA     BIT       P32
      000000A0H.3 SFRSYM    DATA     BIT       P23
      00000090H.4 SFRSYM    DATA     BIT       P14
      00000080H.5 SFRSYM    DATA     BIT       P05
      00000089H   SFRSYM    DATA     BYTE      TMOD
      00000088H   SFRSYM    DATA     BYTE      TCON
      000000B0H.3 SFRSYM    DATA     BIT       P33
      000000A0H.4 SFRSYM    DATA     BIT       P24
      00000090H.5 SFRSYM    DATA     BIT       P15
      00000080H.6 SFRSYM    DATA     BIT       P06
      000000B0H.4 SFRSYM    DATA     BIT       P34
      000000A0H.5 SFRSYM    DATA     BIT       P25
      00000090H.6 SFRSYM    DATA     BIT       P16
      00000080H.7 SFRSYM    DATA     BIT       P07
      000000B0H.5 SFRSYM    DATA     BIT       P35
      000000A0H.6 SFRSYM    DATA     BIT       P26
      00000090H.7 SFRSYM    DATA     BIT       P17
      000000F2H   SFRSYM    DATA     BYTE      I2CSSR
      000000B0H.6 SFRSYM    DATA     BIT       P36
      000000A0H.7 SFRSYM    DATA     BIT       P27
      000000ECH   SFRSYM    DATA     BYTE      SPCR
      000000DDH   SFRSYM    DATA     BYTE      ADRESH
      000000B0H.7 SFRSYM    DATA     BIT       P37
      000000EEH   SFRSYM    DATA     BYTE      SPDR
      000000EFH   SFRSYM    DATA     BYTE      SSCR
      000000D3H   SFRSYM    DATA     BYTE      ADDLYL
      000000DCH   SFRSYM    DATA     BYTE      ADRESL
      00000088H.1 SFRSYM    DATA     BIT       IE0
      00000088H.3 SFRSYM    DATA     BIT       IE1
      0000008FH   SFRSYM    DATA     BYTE      CLKDIV
      000000F0H   SFRSYM    DATA     BYTE      B
      00000091H   SFRSYM    DATA     BYTE      FUNCCR
      0000009AH   SFRSYM    DATA     BYTE      P0TRIS
      000000A1H   SFRSYM    DATA     BYTE      P1TRIS
      000000A2H   SFRSYM    DATA     BYTE      P2TRIS
      000000E0H   SFRSYM    DATA     BYTE      ACC
      000000A3H   SFRSYM    DATA     BYTE      P3TRIS
      000000A8H.4 SFRSYM    DATA     BIT       ES0
      000000A8H.6 SFRSYM    DATA     BIT       ES1
      000000A8H.1 SFRSYM    DATA     BIT       ET0
      000000EDH   SFRSYM    DATA     BYTE      SPSR
      000000A8H.3 SFRSYM    DATA     BIT       ET1
      00000088H.5 SFRSYM    DATA     BIT       TF0
      000000A8H.5 SFRSYM    DATA     BIT       ET2
      00000098H.0 SFRSYM    DATA     BIT       RI0
      00000088H.7 SFRSYM    DATA     BIT       TF1
      0000008CH   SFRSYM    DATA     BYTE      TH0
      000000A8H.0 SFRSYM    DATA     BIT       EX0
      00000098H.1 SFRSYM    DATA     BIT       TI0
      00000088H.0 SFRSYM    DATA     BIT       IT0
LX51 LINKER/LOCATER V4.66.97.0                                                        11/09/2024  20:20:28  PAGE 54


      0000008DH   SFRSYM    DATA     BYTE      TH1
      000000A8H.2 SFRSYM    DATA     BIT       EX1
      00000088H.2 SFRSYM    DATA     BIT       IT1
      000000CDH   SFRSYM    DATA     BYTE      TH2
      000000D0H.0 SFRSYM    DATA     BIT       P
      000000DBH   SFRSYM    DATA     BYTE      TH3
      000000E3H   SFRSYM    DATA     BYTE      TH4
      0000008AH   SFRSYM    DATA     BYTE      TL0
      0000008BH   SFRSYM    DATA     BYTE      TL1
      00000098H.2 SFRSYM    DATA     BIT       U0RB8
      000000CCH   SFRSYM    DATA     BYTE      TL2
      000000B8H.4 SFRSYM    DATA     BIT       PS0
      000000DAH   SFRSYM    DATA     BYTE      TL3
      000000BFH   SFRSYM    DATA     BYTE      BUZCON
      000000B8H.6 SFRSYM    DATA     BIT       PS1
      000000B8H.1 SFRSYM    DATA     BIT       PT0
      00000098H.3 SFRSYM    DATA     BIT       U0TB8
      000000E2H   SFRSYM    DATA     BYTE      TL4
      000000D0H.3 SFRSYM    DATA     BIT       RS0
      000000B8H.3 SFRSYM    DATA     BIT       PT1
      000000D0H.4 SFRSYM    DATA     BIT       RS1
      000000B8H.5 SFRSYM    DATA     BIT       PT2
      00000098H.7 SFRSYM    DATA     BIT       U0SM0
      00000088H.4 SFRSYM    DATA     BIT       TR0
      000000BEH   SFRSYM    DATA     BYTE      BUZDIV
      00000098H.6 SFRSYM    DATA     BIT       U0SM1
      00000088H.6 SFRSYM    DATA     BIT       TR1
      000000B8H.0 SFRSYM    DATA     BIT       PX0
      00000098H.5 SFRSYM    DATA     BIT       U0SM2
      000000B8H.2 SFRSYM    DATA     BIT       PX1
      000000BDH   SFRSYM    DATA     BYTE      WUTCRH
      00000099H   SFRSYM    DATA     BYTE      SBUF0
      000000EBH   SFRSYM    DATA     BYTE      SBUF1
      000000BCH   SFRSYM    DATA     BYTE      WUTCRL
      00000098H   SFRSYM    DATA     BYTE      SCON0
      000000EAH   SFRSYM    DATA     BYTE      SCON1
      000000C8H   SFRSYM    DATA     BYTE      T2CON
      00000086H   SFRSYM    DATA     BYTE      DPS
      000000FEH   SFRSYM    DATA     BYTE      MDATA
      000000F6H   SFRSYM    DATA     BYTE      I2CMBUF
      000000F1H   SFRSYM    DATA     BYTE      I2CSADR
      00000098H.4 SFRSYM    DATA     BIT       U0REN
      000000C8H.5 SFRSYM    DATA     BIT       CAPES
      000000FDH   SFRSYM    DATA     BYTE      MADRH
      0000008EH   SFRSYM    DATA     BYTE      CKCON
      000000F3H   SFRSYM    DATA     BYTE      I2CSBUF
      000000FCH   SFRSYM    DATA     BYTE      MADRL
      000000D0H.5 SFRSYM    DATA     BIT       F0
      000000FBH   SFRSYM    DATA     BYTE      MLOCK
      000000D0H   SFRSYM    DATA     BYTE      PSW
      00000097H   SFRSYM    DATA     BYTE      WDCON
      00000021H.1 SYMBOL    BIT      BIT       IsNeedToEnableOutput
      00000021H.2 SYMBOL    BIT      BIT       IsPWMLoading

      0100390AH   BLOCK     CODE     ---       LVL=0
      ---         BLOCKEND  ---      ---       LVL=0

      0100002EH   BLOCK     CODE     ---       LVL=0
      0100002EH   LINE      CODE     ---       #13
      0100002EH   LINE      CODE     ---       #14
      0100002EH   LINE      CODE     ---       #16
      01000036H   LINE      CODE     ---       #18
      0100003FH   LINE      CODE     ---       #20
      01000044H   LINE      CODE     ---       #21
      01000048H   LINE      CODE     ---       #22
LX51 LINKER/LOCATER V4.66.97.0                                                        11/09/2024  20:20:28  PAGE 55


      ---         BLOCKEND  ---      ---       LVL=0

      01002BA1H   BLOCK     CODE     ---       LVL=0
      01002BA1H   BLOCK     CODE     NEAR LAB  LVL=1
      00000025H   SYMBOL    DATA     ---       PWMInitCfg
      ---         BLOCKEND  ---      ---       LVL=1
      01002BA1H   LINE      CODE     ---       #25
      01002BA1H   LINE      CODE     ---       #26
      01002BA1H   LINE      CODE     ---       #29
      01002BA4H   LINE      CODE     ---       #30
      01002BA7H   LINE      CODE     ---       #31
      01002BAAH   LINE      CODE     ---       #33
      01002BB2H   LINE      CODE     ---       #34
      01002BBFH   LINE      CODE     ---       #36
      01002BC8H   LINE      CODE     ---       #38
      01002BCDH   LINE      CODE     ---       #39
      01002BD0H   LINE      CODE     ---       #40
      01002BD4H   LINE      CODE     ---       #41
      01002BDAH   LINE      CODE     ---       #42
      01002BDFH   LINE      CODE     ---       #43
      01002BE4H   LINE      CODE     ---       #44
      01002BE6H   LINE      CODE     ---       #45
      01002BEBH   LINE      CODE     ---       #46
      01002BEFH   LINE      CODE     ---       #47
      01002BF4H   LINE      CODE     ---       #49
      01002BFAH   LINE      CODE     ---       #50
      01002C00H   LINE      CODE     ---       #52
      01002C05H   LINE      CODE     ---       #53
      01002C09H   LINE      CODE     ---       #55
      01002C13H   LINE      CODE     ---       #56
      01002C15H   LINE      CODE     ---       #57
      01002C17H   LINE      CODE     ---       #59
      01002C1DH   LINE      CODE     ---       #60
      01002C21H   LINE      CODE     ---       #61
      01002C27H   LINE      CODE     ---       #62
      ---         BLOCKEND  ---      ---       LVL=0

      0100365AH   BLOCK     CODE     ---       LVL=0
      00000022H.0 SYMBOL    BIT      BIT       IsEnable
      0100365AH   LINE      CODE     ---       #65
      0100365AH   LINE      CODE     ---       #66
      0100365AH   LINE      CODE     ---       #67
      01003660H   LINE      CODE     ---       #68
      0100366CH   LINE      CODE     ---       #69
      01003672H   LINE      CODE     ---       #70
      01003678H   LINE      CODE     ---       #71
      01003683H   LINE      CODE     ---       #72
      ---         BLOCKEND  ---      ---       LVL=0

      0100236CH   BLOCK     CODE     ---       LVL=0
      0100236CH   BLOCK     CODE     NEAR LAB  LVL=1
      00000004H   SYMBOL    DATA     INT       value
      00000023H   SYMBOL    DATA     FLOAT     buf
      ---         BLOCKEND  ---      ---       LVL=1
      0100236CH   LINE      CODE     ---       #75
      0100236CH   LINE      CODE     ---       #76
      0100236CH   LINE      CODE     ---       #80
      01002372H   LINE      CODE     ---       #81
      01002375H   LINE      CODE     ---       #82
      01002375H   LINE      CODE     ---       #83
      0100237EH   LINE      CODE     ---       #84
      0100237EH   LINE      CODE     ---       #85
      01002389H   LINE      CODE     ---       #86
      0100238BH   LINE      CODE     ---       #87
      0100238DH   LINE      CODE     ---       #88
LX51 LINKER/LOCATER V4.66.97.0                                                        11/09/2024  20:20:28  PAGE 56


      0100238EH   LINE      CODE     ---       #90
      0100238EH   LINE      CODE     ---       #92
      010023A9H   LINE      CODE     ---       #93
      010023C0H   LINE      CODE     ---       #95
      010023D2H   LINE      CODE     ---       #96
      010023F2H   LINE      CODE     ---       #97
      01002404H   LINE      CODE     ---       #98
      0100240BH   LINE      CODE     ---       #99
      01002412H   LINE      CODE     ---       #100
      01002417H   LINE      CODE     ---       #102
      01002419H   LINE      CODE     ---       #103
      0100241FH   LINE      CODE     ---       #104
      ---         BLOCKEND  ---      ---       LVL=0

      ---         MODULE    ---      ---       OUTPUTCHANNEL
      02000054H   PUBLIC    XDATA    INT       Current
      0100257AH   PUBLIC    CODE     ---       OutputChannel_Calc
      0100393BH   PUBLIC    CODE     ---       OutputChannel_DeInit
      010011FCH   PUBLIC    CODE     ---       OutputChannel_TestRun
      0100350FH   PUBLIC    CODE     ---       OutputChannel_Init
      000000C8H.0 SFRSYM    DATA     BIT       T2I0
      000000C3H   SFRSYM    DATA     BYTE      CCH1
      00000080H   SFRSYM    DATA     BYTE      P0
      000000C8H.1 SFRSYM    DATA     BIT       T2I1
      000000C5H   SFRSYM    DATA     BYTE      CCH2
      00000090H   SFRSYM    DATA     BYTE      P1
      000000C7H   SFRSYM    DATA     BYTE      CCH3
      000000ACH   SFRSYM    DATA     BYTE      P0EXTIE
      000000A0H   SFRSYM    DATA     BYTE      P2
      00000080H.1 SFRSYM    DATA     BIT       RevPGate
      000000B4H   SFRSYM    DATA     BYTE      P0EXTIF
      000000B0H   SFRSYM    DATA     BYTE      P3
      000000ADH   SFRSYM    DATA     BYTE      P1EXTIE
      000000D0H.6 SFRSYM    DATA     BIT       AC
      000000FFH   SFRSYM    DATA     BYTE      MCTRL
      000000C2H   SFRSYM    DATA     BYTE      CCL1
      000000B5H   SFRSYM    DATA     BYTE      P1EXTIF
      000000AEH   SFRSYM    DATA     BYTE      P2EXTIE
      000000C4H   SFRSYM    DATA     BYTE      CCL2
      000000B6H   SFRSYM    DATA     BYTE      P2EXTIF
      000000AFH   SFRSYM    DATA     BYTE      P3EXTIE
      000000A8H.7 SFRSYM    DATA     BIT       EA
      000000C6H   SFRSYM    DATA     BYTE      CCL3
      000000B7H   SFRSYM    DATA     BYTE      P3EXTIF
      000000AAH   SFRSYM    DATA     BYTE      EIE2
      000000B2H   SFRSYM    DATA     BYTE      EIF2
      000000C8H.3 SFRSYM    DATA     BIT       T2R0
      000000C8H.4 SFRSYM    DATA     BIT       T2R1
      00000083H   SFRSYM    DATA     BYTE      DPH0
      000000A8H   SFRSYM    DATA     BYTE      IE
      00000085H   SFRSYM    DATA     BYTE      DPH1
      000000B9H   SFRSYM    DATA     BYTE      EIP1
      000000BAH   SFRSYM    DATA     BYTE      EIP2
      00000082H   SFRSYM    DATA     BYTE      DPL0
      00000084H   SFRSYM    DATA     BYTE      DPL1
      000000C8H.6 SFRSYM    DATA     BIT       I3FR
      000000CFH   SFRSYM    DATA     BYTE      T2IE
      00000096H   SFRSYM    DATA     BYTE      TA
      000000C9H   SFRSYM    DATA     BYTE      T2IF
      000000C8H.2 SFRSYM    DATA     BIT       T2CM
      000000DFH   SFRSYM    DATA     BYTE      ADCON0
      000000DEH   SFRSYM    DATA     BYTE      ADCON1
      000000E9H   SFRSYM    DATA     BYTE      ADCON2
      000000B8H   SFRSYM    DATA     BYTE      IP
      000000CEH   SFRSYM    DATA     BYTE      CCEN
LX51 LINKER/LOCATER V4.66.97.0                                                        11/09/2024  20:20:28  PAGE 57


      000000D0H.7 SFRSYM    DATA     BIT       CY
      000000D2H   SFRSYM    DATA     BYTE      T34MOD
      00000093H   SFRSYM    DATA     BYTE      DPX0
      00000095H   SFRSYM    DATA     BYTE      DPX1
      000000F4H   SFRSYM    DATA     BYTE      I2CMSA
      000000F5H   SFRSYM    DATA     BYTE      I2CMCR
      00000080H.4 SFRSYM    DATA     BIT       DCDCEN
      00000081H   SFRSYM    DATA     BYTE      SP
      000000D0H.2 SFRSYM    DATA     BIT       OV
      000000F2H   SFRSYM    DATA     BYTE      I2CSCR
      000000C8H.7 SFRSYM    DATA     BIT       T2PS
      000000D1H   SFRSYM    DATA     BYTE      ADCMPC
      000000CBH   SFRSYM    DATA     BYTE      RLDH
      000000D5H   SFRSYM    DATA     BYTE      ADCMPH
      000000CAH   SFRSYM    DATA     BYTE      RLDL
      00000080H.0 SFRSYM    DATA     BIT       P00
      00000090H.0 SFRSYM    DATA     BIT       P10
      00000080H.1 SFRSYM    DATA     BIT       P01
      000000F7H   SFRSYM    DATA     BYTE      I2CMTP
      00000099H   SFRSYM    DATA     BYTE      SBUF
      00000087H   SFRSYM    DATA     BYTE      PCON
      000000A0H.0 SFRSYM    DATA     BIT       P20
      00000090H.1 SFRSYM    DATA     BIT       P11
      00000080H.2 SFRSYM    DATA     BIT       P02
      000000F5H   SFRSYM    DATA     BYTE      I2CMSR
      000000B0H.0 SFRSYM    DATA     BIT       P30
      000000A0H.1 SFRSYM    DATA     BIT       P21
      00000090H.2 SFRSYM    DATA     BIT       P12
      00000080H.3 SFRSYM    DATA     BIT       P03
      000000D4H   SFRSYM    DATA     BYTE      ADCMPL
      000000B0H.1 SFRSYM    DATA     BIT       P31
      000000A0H.2 SFRSYM    DATA     BIT       P22
      00000090H.3 SFRSYM    DATA     BIT       P13
      00000080H.4 SFRSYM    DATA     BIT       P04
      000000B0H.2 SFRSYM    DATA     BIT       P32
      000000A0H.3 SFRSYM    DATA     BIT       P23
      00000090H.4 SFRSYM    DATA     BIT       P14
      00000080H.5 SFRSYM    DATA     BIT       P05
      00000089H   SFRSYM    DATA     BYTE      TMOD
      00000088H   SFRSYM    DATA     BYTE      TCON
      000000B0H.3 SFRSYM    DATA     BIT       P33
      000000A0H.4 SFRSYM    DATA     BIT       P24
      00000090H.5 SFRSYM    DATA     BIT       P15
      00000080H.6 SFRSYM    DATA     BIT       P06
      000000B0H.4 SFRSYM    DATA     BIT       P34
      000000A0H.5 SFRSYM    DATA     BIT       P25
      00000090H.6 SFRSYM    DATA     BIT       P16
      00000080H.7 SFRSYM    DATA     BIT       P07
      000000B0H.5 SFRSYM    DATA     BIT       P35
      000000A0H.6 SFRSYM    DATA     BIT       P26
      00000090H.7 SFRSYM    DATA     BIT       P17
      000000F2H   SFRSYM    DATA     BYTE      I2CSSR
      000000B0H.6 SFRSYM    DATA     BIT       P36
      000000A0H.7 SFRSYM    DATA     BIT       P27
      000000ECH   SFRSYM    DATA     BYTE      SPCR
      000000DDH   SFRSYM    DATA     BYTE      ADRESH
      000000B0H.7 SFRSYM    DATA     BIT       P37
      000000EEH   SFRSYM    DATA     BYTE      SPDR
      000000EFH   SFRSYM    DATA     BYTE      SSCR
      000000D3H   SFRSYM    DATA     BYTE      ADDLYL
      000000DCH   SFRSYM    DATA     BYTE      ADRESL
      00000088H.1 SFRSYM    DATA     BIT       IE0
      00000088H.3 SFRSYM    DATA     BIT       IE1
      0000008FH   SFRSYM    DATA     BYTE      CLKDIV
      000000F0H   SFRSYM    DATA     BYTE      B
LX51 LINKER/LOCATER V4.66.97.0                                                        11/09/2024  20:20:28  PAGE 58


      00000080H.5 SFRSYM    DATA     BIT       HShuntSEL
      00000091H   SFRSYM    DATA     BYTE      FUNCCR
      0000009AH   SFRSYM    DATA     BYTE      P0TRIS
      000000A1H   SFRSYM    DATA     BYTE      P1TRIS
      000000A2H   SFRSYM    DATA     BYTE      P2TRIS
      00000080H.3 SFRSYM    DATA     BIT       LShuntSEL
      000000E0H   SFRSYM    DATA     BYTE      ACC
      000000A3H   SFRSYM    DATA     BYTE      P3TRIS
      000000A8H.4 SFRSYM    DATA     BIT       ES0
      000000A8H.6 SFRSYM    DATA     BIT       ES1
      000000A8H.1 SFRSYM    DATA     BIT       ET0
      000000EDH   SFRSYM    DATA     BYTE      SPSR
      000000A8H.3 SFRSYM    DATA     BIT       ET1
      00000088H.5 SFRSYM    DATA     BIT       TF0
      000000A8H.5 SFRSYM    DATA     BIT       ET2
      00000098H.0 SFRSYM    DATA     BIT       RI0
      00000088H.7 SFRSYM    DATA     BIT       TF1
      0000008CH   SFRSYM    DATA     BYTE      TH0
      000000A8H.0 SFRSYM    DATA     BIT       EX0
      00000098H.1 SFRSYM    DATA     BIT       TI0
      00000088H.0 SFRSYM    DATA     BIT       IT0
      0000008DH   SFRSYM    DATA     BYTE      TH1
      000000A8H.2 SFRSYM    DATA     BIT       EX1
      00000088H.2 SFRSYM    DATA     BIT       IT1
      000000CDH   SFRSYM    DATA     BYTE      TH2
      000000D0H.0 SFRSYM    DATA     BIT       P
      000000DBH   SFRSYM    DATA     BYTE      TH3
      000000E3H   SFRSYM    DATA     BYTE      TH4
      0000008AH   SFRSYM    DATA     BYTE      TL0
      0000008BH   SFRSYM    DATA     BYTE      TL1
      00000098H.2 SFRSYM    DATA     BIT       U0RB8
      000000CCH   SFRSYM    DATA     BYTE      TL2
      000000B8H.4 SFRSYM    DATA     BIT       PS0
      000000DAH   SFRSYM    DATA     BYTE      TL3
      000000BFH   SFRSYM    DATA     BYTE      BUZCON
      000000B8H.6 SFRSYM    DATA     BIT       PS1
      000000B8H.1 SFRSYM    DATA     BIT       PT0
      00000098H.3 SFRSYM    DATA     BIT       U0TB8
      000000E2H   SFRSYM    DATA     BYTE      TL4
      000000D0H.3 SFRSYM    DATA     BIT       RS0
      000000B8H.3 SFRSYM    DATA     BIT       PT1
      000000D0H.4 SFRSYM    DATA     BIT       RS1
      000000B8H.5 SFRSYM    DATA     BIT       PT2
      00000098H.7 SFRSYM    DATA     BIT       U0SM0
      00000088H.4 SFRSYM    DATA     BIT       TR0
      000000BEH   SFRSYM    DATA     BYTE      BUZDIV
      00000098H.6 SFRSYM    DATA     BIT       U0SM1
      00000088H.6 SFRSYM    DATA     BIT       TR1
      000000B8H.0 SFRSYM    DATA     BIT       PX0
      00000098H.5 SFRSYM    DATA     BIT       U0SM2
      000000B8H.2 SFRSYM    DATA     BIT       PX1
      000000BDH   SFRSYM    DATA     BYTE      WUTCRH
      00000099H   SFRSYM    DATA     BYTE      SBUF0
      000000EBH   SFRSYM    DATA     BYTE      SBUF1
      000000BCH   SFRSYM    DATA     BYTE      WUTCRL
      00000098H   SFRSYM    DATA     BYTE      SCON0
      000000EAH   SFRSYM    DATA     BYTE      SCON1
      000000C8H   SFRSYM    DATA     BYTE      T2CON
      00000086H   SFRSYM    DATA     BYTE      DPS
      000000FEH   SFRSYM    DATA     BYTE      MDATA
      000000F6H   SFRSYM    DATA     BYTE      I2CMBUF
      000000F1H   SFRSYM    DATA     BYTE      I2CSADR
      00000098H.4 SFRSYM    DATA     BIT       U0REN
      000000C8H.5 SFRSYM    DATA     BIT       CAPES
      000000FDH   SFRSYM    DATA     BYTE      MADRH
LX51 LINKER/LOCATER V4.66.97.0                                                        11/09/2024  20:20:28  PAGE 59


      0000008EH   SFRSYM    DATA     BYTE      CKCON
      000000F3H   SFRSYM    DATA     BYTE      I2CSBUF
      000000FCH   SFRSYM    DATA     BYTE      MADRL
      000000D0H.5 SFRSYM    DATA     BIT       F0
      000000FBH   SFRSYM    DATA     BYTE      MLOCK
      000000D0H   SFRSYM    DATA     BYTE      PSW
      00000097H   SFRSYM    DATA     BYTE      WDCON
      02000052H   SYMBOL    XDATA    INT       CurrentBuf
      01003BB9H   SYMBOL    CONST    ---       _?ix1000
      010028AFH   SYMBOL    CODE     ---       _Duty_Calc

      010026CFH   BLOCK     CODE     ---       LVL=0
      ---         BLOCKEND  ---      ---       LVL=0

      0100350FH   BLOCK     CODE     ---       LVL=0
      0100350FH   BLOCK     CODE     NEAR LAB  LVL=1
      00000025H   SYMBOL    DATA     ---       OCInitCfg
      ---         BLOCKEND  ---      ---       LVL=1
      0100350FH   LINE      CODE     ---       #22
      0100350FH   LINE      CODE     ---       #23
      0100350FH   LINE      CODE     ---       #26
      01003512H   LINE      CODE     ---       #27
      01003515H   LINE      CODE     ---       #28
      01003518H   LINE      CODE     ---       #30
      01003518H   LINE      CODE     ---       #31
      01003518H   LINE      CODE     ---       #32
      01003518H   LINE      CODE     ---       #33
      0100351BH   LINE      CODE     ---       #35
      0100351DH   LINE      CODE     ---       #36
      01003527H   LINE      CODE     ---       #37
      01003529H   LINE      CODE     ---       #38
      01003533H   LINE      CODE     ---       #40
      01003533H   LINE      CODE     ---       #41
      01003536H   LINE      CODE     ---       #42
      ---         BLOCKEND  ---      ---       LVL=0

      010011FCH   BLOCK     CODE     ---       LVL=0
      010011FCH   BLOCK     CODE     NEAR LAB  LVL=1
      00000023H   SYMBOL    DATA     INT       retry
      00000025H   SYMBOL    DATA     INT       i
      02000017H   SYMBOL    XDATA    ---       LastOutput
      00000027H   SYMBOL    DATA     FLOAT     buf
      0000002BH   SYMBOL    DATA     FLOAT     Err
      ---         BLOCKEND  ---      ---       LVL=1
      010011FCH   LINE      CODE     ---       #45
      010011FCH   LINE      CODE     ---       #46
      010011FCH   LINE      CODE     ---       #47
      01001202H   LINE      CODE     ---       #48
      01001215H   LINE      CODE     ---       #51
      0100121AH   LINE      CODE     ---       #52
      0100121AH   LINE      CODE     ---       #53
      0100121CH   LINE      CODE     ---       #54
      01001227H   LINE      CODE     ---       #56
      01001227H   LINE      CODE     ---       #58
      0100123EH   LINE      CODE     ---       #59
      01001240H   LINE      CODE     ---       #60
      01001242H   LINE      CODE     ---       #61
      01001244H   LINE      CODE     ---       #62
      01001249H   LINE      CODE     ---       #63
      0100124BH   LINE      CODE     ---       #66
      0100124BH   LINE      CODE     ---       #67
      01001252H   LINE      CODE     ---       #68
      01001255H   LINE      CODE     ---       #69
      0100126CH   LINE      CODE     ---       #70
      01001274H   LINE      CODE     ---       #71
LX51 LINKER/LOCATER V4.66.97.0                                                        11/09/2024  20:20:28  PAGE 60


      01001274H   LINE      CODE     ---       #72
      01001279H   LINE      CODE     ---       #74
      0100127FH   LINE      CODE     ---       #75
      0100127FH   LINE      CODE     ---       #76
      01001281H   LINE      CODE     ---       #77
      01001282H   LINE      CODE     ---       #78
      0100128DH   LINE      CODE     ---       #80
      0100128DH   LINE      CODE     ---       #82
      01001293H   LINE      CODE     ---       #83
      01001295H   LINE      CODE     ---       #84
      0100129CH   LINE      CODE     ---       #85
      010012A1H   LINE      CODE     ---       #87
      010012A1H   LINE      CODE     ---       #88
      010012A4H   LINE      CODE     ---       #89
      010012ABH   LINE      CODE     ---       #91
      010012F8H   LINE      CODE     ---       #92
      01001306H   LINE      CODE     ---       #94
      0100130FH   LINE      CODE     ---       #95
      0100134CH   LINE      CODE     ---       #96
      01001361H   LINE      CODE     ---       #98
      0100136AH   LINE      CODE     ---       #99
      010013F9H   LINE      CODE     ---       #100
      01001418H   LINE      CODE     ---       #101
      01001420H   LINE      CODE     ---       #102
      01001420H   LINE      CODE     ---       #103
      01001428H   LINE      CODE     ---       #105
      0100142EH   LINE      CODE     ---       #106
      0100142EH   LINE      CODE     ---       #107
      01001433H   LINE      CODE     ---       #108
      0100143DH   LINE      CODE     ---       #109
      0100143DH   LINE      CODE     ---       #110
      ---         BLOCKEND  ---      ---       LVL=0

      0100393BH   BLOCK     CODE     ---       LVL=0
      0100393BH   LINE      CODE     ---       #113
      0100393BH   LINE      CODE     ---       #114
      0100393BH   LINE      CODE     ---       #116
      0100393BH   LINE      CODE     ---       #117
      0100393EH   LINE      CODE     ---       #119
      0100393EH   LINE      CODE     ---       #120
      0100393EH   LINE      CODE     ---       #121
      0100393EH   LINE      CODE     ---       #122
      01003941H   LINE      CODE     ---       #123
      ---         BLOCKEND  ---      ---       LVL=0

      010028AFH   BLOCK     CODE     ---       LVL=0
      00000023H   SYMBOL    DATA     FLOAT     ShuntmOhm
      00000027H   SYMBOL    DATA     INT       Current
      00000029H   SYMBOL    DATA     FLOAT     Offset
      010028B7H   BLOCK     CODE     NEAR LAB  LVL=1
      0000002DH   SYMBOL    DATA     FLOAT     buf
      ---         BLOCKEND  ---      ---       LVL=1
      010028AFH   LINE      CODE     ---       #126
      010028B7H   LINE      CODE     ---       #127
      010028B7H   LINE      CODE     ---       #129
      010028D8H   LINE      CODE     ---       #130
      010028E2H   LINE      CODE     ---       #131
      010028EDH   LINE      CODE     ---       #132
      0100290AH   LINE      CODE     ---       #133
      01002917H   LINE      CODE     ---       #135
      01002930H   LINE      CODE     ---       #136
      01002943H   LINE      CODE     ---       #137
      0100294BH   LINE      CODE     ---       #138
      ---         BLOCKEND  ---      ---       LVL=0

LX51 LINKER/LOCATER V4.66.97.0                                                        11/09/2024  20:20:28  PAGE 61


      0100257AH   BLOCK     CODE     ---       LVL=0
      0100257AH   LINE      CODE     ---       #141
      0100257AH   LINE      CODE     ---       #142
      0100257AH   LINE      CODE     ---       #144
      01002591H   LINE      CODE     ---       #145
      01002599H   LINE      CODE     ---       #147
      010025A3H   LINE      CODE     ---       #148
      010025A3H   LINE      CODE     ---       #149
      010025ADH   LINE      CODE     ---       #150
      010025BFH   LINE      CODE     ---       #151
      010025BFH   LINE      CODE     ---       #152
      010025BFH   LINE      CODE     ---       #153
      010025C2H   LINE      CODE     ---       #154
      010025C4H   LINE      CODE     ---       #156
      010025D6H   LINE      CODE     ---       #157
      010025D6H   LINE      CODE     ---       #158
      010025E4H   LINE      CODE     ---       #159
      010025F5H   LINE      CODE     ---       #160
      010025F7H   LINE      CODE     ---       #161
      010025F9H   LINE      CODE     ---       #162
      010025FBH   LINE      CODE     ---       #163
      010025FDH   LINE      CODE     ---       #166
      010025FDH   LINE      CODE     ---       #167
      01002611H   LINE      CODE     ---       #168
      01002613H   LINE      CODE     ---       #169
      01002615H   LINE      CODE     ---       #170
      01002617H   LINE      CODE     ---       #171
      01002619H   LINE      CODE     ---       #172
      01002619H   LINE      CODE     ---       #174
      0100261BH   LINE      CODE     ---       #175
      ---         BLOCKEND  ---      ---       LVL=0

      ---         MODULE    ---      ---       WATCHDOG
      0100382CH   PUBLIC    CODE     ---       GetIfWDogCauseRST
      010038DAH   PUBLIC    CODE     ---       WDog_Feed
      010038CAH   PUBLIC    CODE     ---       WDog_DeInit
      0100000EH   PUBLIC    CODE     ---       WDog_Init
      000000C8H.0 SFRSYM    DATA     BIT       T2I0
      000000C3H   SFRSYM    DATA     BYTE      CCH1
      00000080H   SFRSYM    DATA     BYTE      P0
      000000C8H.1 SFRSYM    DATA     BIT       T2I1
      000000C5H   SFRSYM    DATA     BYTE      CCH2
      00000090H   SFRSYM    DATA     BYTE      P1
      000000C7H   SFRSYM    DATA     BYTE      CCH3
      000000ACH   SFRSYM    DATA     BYTE      P0EXTIE
      000000A0H   SFRSYM    DATA     BYTE      P2
      000000B4H   SFRSYM    DATA     BYTE      P0EXTIF
      000000B0H   SFRSYM    DATA     BYTE      P3
      000000ADH   SFRSYM    DATA     BYTE      P1EXTIE
      000000D0H.6 SFRSYM    DATA     BIT       AC
      000000FFH   SFRSYM    DATA     BYTE      MCTRL
      000000C2H   SFRSYM    DATA     BYTE      CCL1
      000000B5H   SFRSYM    DATA     BYTE      P1EXTIF
      000000AEH   SFRSYM    DATA     BYTE      P2EXTIE
      000000C4H   SFRSYM    DATA     BYTE      CCL2
      000000B6H   SFRSYM    DATA     BYTE      P2EXTIF
      000000AFH   SFRSYM    DATA     BYTE      P3EXTIE
      000000A8H.7 SFRSYM    DATA     BIT       EA
      000000C6H   SFRSYM    DATA     BYTE      CCL3
      000000B7H   SFRSYM    DATA     BYTE      P3EXTIF
      000000AAH   SFRSYM    DATA     BYTE      EIE2
      000000B2H   SFRSYM    DATA     BYTE      EIF2
      000000C8H.3 SFRSYM    DATA     BIT       T2R0
      000000C8H.4 SFRSYM    DATA     BIT       T2R1
      00000083H   SFRSYM    DATA     BYTE      DPH0
LX51 LINKER/LOCATER V4.66.97.0                                                        11/09/2024  20:20:28  PAGE 62


      000000A8H   SFRSYM    DATA     BYTE      IE
      00000085H   SFRSYM    DATA     BYTE      DPH1
      000000B9H   SFRSYM    DATA     BYTE      EIP1
      000000BAH   SFRSYM    DATA     BYTE      EIP2
      00000082H   SFRSYM    DATA     BYTE      DPL0
      00000084H   SFRSYM    DATA     BYTE      DPL1
      000000C8H.6 SFRSYM    DATA     BIT       I3FR
      000000CFH   SFRSYM    DATA     BYTE      T2IE
      00000096H   SFRSYM    DATA     BYTE      TA
      000000C9H   SFRSYM    DATA     BYTE      T2IF
      000000C8H.2 SFRSYM    DATA     BIT       T2CM
      000000DFH   SFRSYM    DATA     BYTE      ADCON0
      000000DEH   SFRSYM    DATA     BYTE      ADCON1
      000000E9H   SFRSYM    DATA     BYTE      ADCON2
      000000B8H   SFRSYM    DATA     BYTE      IP
      000000CEH   SFRSYM    DATA     BYTE      CCEN
      000000D0H.7 SFRSYM    DATA     BIT       CY
      000000D2H   SFRSYM    DATA     BYTE      T34MOD
      00000093H   SFRSYM    DATA     BYTE      DPX0
      00000095H   SFRSYM    DATA     BYTE      DPX1
      000000F4H   SFRSYM    DATA     BYTE      I2CMSA
      000000F5H   SFRSYM    DATA     BYTE      I2CMCR
      00000081H   SFRSYM    DATA     BYTE      SP
      000000D0H.2 SFRSYM    DATA     BIT       OV
      000000F2H   SFRSYM    DATA     BYTE      I2CSCR
      000000C8H.7 SFRSYM    DATA     BIT       T2PS
      000000D1H   SFRSYM    DATA     BYTE      ADCMPC
      000000CBH   SFRSYM    DATA     BYTE      RLDH
      000000D5H   SFRSYM    DATA     BYTE      ADCMPH
      000000CAH   SFRSYM    DATA     BYTE      RLDL
      00000080H.0 SFRSYM    DATA     BIT       P00
      00000090H.0 SFRSYM    DATA     BIT       P10
      00000080H.1 SFRSYM    DATA     BIT       P01
      000000F7H   SFRSYM    DATA     BYTE      I2CMTP
      00000099H   SFRSYM    DATA     BYTE      SBUF
      00000087H   SFRSYM    DATA     BYTE      PCON
      000000A0H.0 SFRSYM    DATA     BIT       P20
      00000090H.1 SFRSYM    DATA     BIT       P11
      00000080H.2 SFRSYM    DATA     BIT       P02
      000000F5H   SFRSYM    DATA     BYTE      I2CMSR
      000000B0H.0 SFRSYM    DATA     BIT       P30
      000000A0H.1 SFRSYM    DATA     BIT       P21
      00000090H.2 SFRSYM    DATA     BIT       P12
      00000080H.3 SFRSYM    DATA     BIT       P03
      000000D4H   SFRSYM    DATA     BYTE      ADCMPL
      000000B0H.1 SFRSYM    DATA     BIT       P31
      000000A0H.2 SFRSYM    DATA     BIT       P22
      00000090H.3 SFRSYM    DATA     BIT       P13
      00000080H.4 SFRSYM    DATA     BIT       P04
      000000B0H.2 SFRSYM    DATA     BIT       P32
      000000A0H.3 SFRSYM    DATA     BIT       P23
      00000090H.4 SFRSYM    DATA     BIT       P14
      00000080H.5 SFRSYM    DATA     BIT       P05
      00000089H   SFRSYM    DATA     BYTE      TMOD
      00000088H   SFRSYM    DATA     BYTE      TCON
      000000B0H.3 SFRSYM    DATA     BIT       P33
      000000A0H.4 SFRSYM    DATA     BIT       P24
      00000090H.5 SFRSYM    DATA     BIT       P15
      00000080H.6 SFRSYM    DATA     BIT       P06
      000000B0H.4 SFRSYM    DATA     BIT       P34
      000000A0H.5 SFRSYM    DATA     BIT       P25
      00000090H.6 SFRSYM    DATA     BIT       P16
      00000080H.7 SFRSYM    DATA     BIT       P07
      000000B0H.5 SFRSYM    DATA     BIT       P35
      000000A0H.6 SFRSYM    DATA     BIT       P26
LX51 LINKER/LOCATER V4.66.97.0                                                        11/09/2024  20:20:28  PAGE 63


      00000090H.7 SFRSYM    DATA     BIT       P17
      000000F2H   SFRSYM    DATA     BYTE      I2CSSR
      000000B0H.6 SFRSYM    DATA     BIT       P36
      000000A0H.7 SFRSYM    DATA     BIT       P27
      000000ECH   SFRSYM    DATA     BYTE      SPCR
      000000DDH   SFRSYM    DATA     BYTE      ADRESH
      000000B0H.7 SFRSYM    DATA     BIT       P37
      000000EEH   SFRSYM    DATA     BYTE      SPDR
      000000EFH   SFRSYM    DATA     BYTE      SSCR
      000000D3H   SFRSYM    DATA     BYTE      ADDLYL
      000000DCH   SFRSYM    DATA     BYTE      ADRESL
      00000088H.1 SFRSYM    DATA     BIT       IE0
      00000088H.3 SFRSYM    DATA     BIT       IE1
      0000008FH   SFRSYM    DATA     BYTE      CLKDIV
      000000F0H   SFRSYM    DATA     BYTE      B
      00000091H   SFRSYM    DATA     BYTE      FUNCCR
      0000009AH   SFRSYM    DATA     BYTE      P0TRIS
      000000A1H   SFRSYM    DATA     BYTE      P1TRIS
      000000A2H   SFRSYM    DATA     BYTE      P2TRIS
      000000E0H   SFRSYM    DATA     BYTE      ACC
      000000A3H   SFRSYM    DATA     BYTE      P3TRIS
      000000A8H.4 SFRSYM    DATA     BIT       ES0
      000000A8H.6 SFRSYM    DATA     BIT       ES1
      000000A8H.1 SFRSYM    DATA     BIT       ET0
      000000EDH   SFRSYM    DATA     BYTE      SPSR
      000000A8H.3 SFRSYM    DATA     BIT       ET1
      00000088H.5 SFRSYM    DATA     BIT       TF0
      000000A8H.5 SFRSYM    DATA     BIT       ET2
      00000098H.0 SFRSYM    DATA     BIT       RI0
      00000088H.7 SFRSYM    DATA     BIT       TF1
      0000008CH   SFRSYM    DATA     BYTE      TH0
      000000A8H.0 SFRSYM    DATA     BIT       EX0
      00000098H.1 SFRSYM    DATA     BIT       TI0
      00000088H.0 SFRSYM    DATA     BIT       IT0
      0000008DH   SFRSYM    DATA     BYTE      TH1
      000000A8H.2 SFRSYM    DATA     BIT       EX1
      00000088H.2 SFRSYM    DATA     BIT       IT1
      000000CDH   SFRSYM    DATA     BYTE      TH2
      000000D0H.0 SFRSYM    DATA     BIT       P
      000000DBH   SFRSYM    DATA     BYTE      TH3
      000000E3H   SFRSYM    DATA     BYTE      TH4
      0000008AH   SFRSYM    DATA     BYTE      TL0
      0000008BH   SFRSYM    DATA     BYTE      TL1
      00000098H.2 SFRSYM    DATA     BIT       U0RB8
      000000CCH   SFRSYM    DATA     BYTE      TL2
      000000B8H.4 SFRSYM    DATA     BIT       PS0
      000000DAH   SFRSYM    DATA     BYTE      TL3
      000000BFH   SFRSYM    DATA     BYTE      BUZCON
      000000B8H.6 SFRSYM    DATA     BIT       PS1
      000000B8H.1 SFRSYM    DATA     BIT       PT0
      00000098H.3 SFRSYM    DATA     BIT       U0TB8
      000000E2H   SFRSYM    DATA     BYTE      TL4
      000000D0H.3 SFRSYM    DATA     BIT       RS0
      000000B8H.3 SFRSYM    DATA     BIT       PT1
      000000D0H.4 SFRSYM    DATA     BIT       RS1
      000000B8H.5 SFRSYM    DATA     BIT       PT2
      00000098H.7 SFRSYM    DATA     BIT       U0SM0
      00000088H.4 SFRSYM    DATA     BIT       TR0
      000000BEH   SFRSYM    DATA     BYTE      BUZDIV
      00000098H.6 SFRSYM    DATA     BIT       U0SM1
      00000088H.6 SFRSYM    DATA     BIT       TR1
      000000B8H.0 SFRSYM    DATA     BIT       PX0
      00000098H.5 SFRSYM    DATA     BIT       U0SM2
      000000B8H.2 SFRSYM    DATA     BIT       PX1
      000000BDH   SFRSYM    DATA     BYTE      WUTCRH
LX51 LINKER/LOCATER V4.66.97.0                                                        11/09/2024  20:20:28  PAGE 64


      00000099H   SFRSYM    DATA     BYTE      SBUF0
      000000EBH   SFRSYM    DATA     BYTE      SBUF1
      000000BCH   SFRSYM    DATA     BYTE      WUTCRL
      00000098H   SFRSYM    DATA     BYTE      SCON0
      000000EAH   SFRSYM    DATA     BYTE      SCON1
      000000C8H   SFRSYM    DATA     BYTE      T2CON
      00000086H   SFRSYM    DATA     BYTE      DPS
      000000FEH   SFRSYM    DATA     BYTE      MDATA
      000000F6H   SFRSYM    DATA     BYTE      I2CMBUF
      000000F1H   SFRSYM    DATA     BYTE      I2CSADR
      00000098H.4 SFRSYM    DATA     BIT       U0REN
      000000C8H.5 SFRSYM    DATA     BIT       CAPES
      000000FDH   SFRSYM    DATA     BYTE      MADRH
      0000008EH   SFRSYM    DATA     BYTE      CKCON
      000000F3H   SFRSYM    DATA     BYTE      I2CSBUF
      000000FCH   SFRSYM    DATA     BYTE      MADRL
      000000D0H.5 SFRSYM    DATA     BIT       F0
      000000FBH   SFRSYM    DATA     BYTE      MLOCK
      000000D0H   SFRSYM    DATA     BYTE      PSW
      00000097H   SFRSYM    DATA     BYTE      WDCON

      0100000EH   BLOCK     CODE     ---       LVL=0
      0100000EH   BLOCK     CODE     NEAR LAB  LVL=1
      00000062H   SYMBOL    DATA     BYTE      buf
      ---         BLOCKEND  ---      ---       LVL=1
      0100000EH   LINE      CODE     ---       #6
      0100000EH   LINE      CODE     ---       #7
      0100000EH   LINE      CODE     ---       #10
      01000014H   LINE      CODE     ---       #11
      01000017H   LINE      CODE     ---       #12
      0100001AH   LINE      CODE     ---       #14
      0100001CH   LINE      CODE     ---       #15
      0100001DH   LINE      CODE     ---       #16
      01000020H   LINE      CODE     ---       #17
      01000023H   LINE      CODE     ---       #18
      01000026H   LINE      CODE     ---       #19
      01000027H   LINE      CODE     ---       #20
      01000029H   LINE      CODE     ---       #21
      ---         BLOCKEND  ---      ---       LVL=0

      010038CAH   BLOCK     CODE     ---       LVL=0
      010038CAH   LINE      CODE     ---       #25
      010038CAH   LINE      CODE     ---       #26
      010038CAH   LINE      CODE     ---       #27
      010038CCH   LINE      CODE     ---       #28
      010038CDH   LINE      CODE     ---       #29
      010038D0H   LINE      CODE     ---       #30
      010038D3H   LINE      CODE     ---       #31
      010038D6H   LINE      CODE     ---       #32
      010038D7H   LINE      CODE     ---       #33
      010038D9H   LINE      CODE     ---       #34
      ---         BLOCKEND  ---      ---       LVL=0

      010038DAH   BLOCK     CODE     ---       LVL=0
      010038DAH   LINE      CODE     ---       #38
      010038DAH   LINE      CODE     ---       #39
      010038DAH   LINE      CODE     ---       #40
      010038DCH   LINE      CODE     ---       #41
      010038DDH   LINE      CODE     ---       #42
      010038E0H   LINE      CODE     ---       #43
      010038E3H   LINE      CODE     ---       #44
      010038E6H   LINE      CODE     ---       #45
      010038E7H   LINE      CODE     ---       #46
      010038E9H   LINE      CODE     ---       #47
      ---         BLOCKEND  ---      ---       LVL=0
LX51 LINKER/LOCATER V4.66.97.0                                                        11/09/2024  20:20:28  PAGE 65



      0100382CH   BLOCK     CODE     ---       LVL=0
      0100382CH   BLOCK     CODE     NEAR LAB  LVL=1
      00000063H   SYMBOL    DATA     BYTE      buf
      ---         BLOCKEND  ---      ---       LVL=1
      0100382CH   LINE      CODE     ---       #51
      0100382CH   LINE      CODE     ---       #52
      0100382CH   LINE      CODE     ---       #55
      0100382EH   LINE      CODE     ---       #56
      0100382FH   LINE      CODE     ---       #57
      01003832H   LINE      CODE     ---       #58
      01003835H   LINE      CODE     ---       #59
      01003838H   LINE      CODE     ---       #60
      01003839H   LINE      CODE     ---       #61
      0100383BH   LINE      CODE     ---       #63
      01003844H   LINE      CODE     ---       #64
      ---         BLOCKEND  ---      ---       LVL=0

      ---         MODULE    ---      ---       BATTVOLTDISPLAY
      0200000FH   PUBLIC    XDATA    FLOAT     Battery
      00000021H.7 PUBLIC    BIT      BIT       IsBatteryFault
      00000021H.6 PUBLIC    BIT      BIT       IsBatteryAlert
      02000002H   PUBLIC    XDATA    BYTE      VshowFSMState
      01000FAAH   PUBLIC    CODE     ---       BatteryTelemHandler
      01003497H   PUBLIC    CODE     ---       BattDisplayTIM
      01002E7FH   PUBLIC    CODE     ---       DisplayVBattAtStart
      01003924H   PUBLIC    CODE     ---       TriggerVshowDisplay
      000000C8H.0 SFRSYM    DATA     BIT       T2I0
      000000C3H   SFRSYM    DATA     BYTE      CCH1
      00000080H   SFRSYM    DATA     BYTE      P0
      000000C8H.1 SFRSYM    DATA     BIT       T2I1
      000000C5H   SFRSYM    DATA     BYTE      CCH2
      00000090H   SFRSYM    DATA     BYTE      P1
      000000C7H   SFRSYM    DATA     BYTE      CCH3
      000000ACH   SFRSYM    DATA     BYTE      P0EXTIE
      000000A0H   SFRSYM    DATA     BYTE      P2
      000000B4H   SFRSYM    DATA     BYTE      P0EXTIF
      000000B0H   SFRSYM    DATA     BYTE      P3
      000000ADH   SFRSYM    DATA     BYTE      P1EXTIE
      000000D0H.6 SFRSYM    DATA     BIT       AC
      000000FFH   SFRSYM    DATA     BYTE      MCTRL
      000000C2H   SFRSYM    DATA     BYTE      CCL1
      000000B5H   SFRSYM    DATA     BYTE      P1EXTIF
      000000AEH   SFRSYM    DATA     BYTE      P2EXTIE
      000000C4H   SFRSYM    DATA     BYTE      CCL2
      000000B6H   SFRSYM    DATA     BYTE      P2EXTIF
      000000AFH   SFRSYM    DATA     BYTE      P3EXTIE
      000000A8H.7 SFRSYM    DATA     BIT       EA
      000000C6H   SFRSYM    DATA     BYTE      CCL3
      000000B7H   SFRSYM    DATA     BYTE      P3EXTIF
      000000AAH   SFRSYM    DATA     BYTE      EIE2
      000000B2H   SFRSYM    DATA     BYTE      EIF2
      000000C8H.3 SFRSYM    DATA     BIT       T2R0
      000000C8H.4 SFRSYM    DATA     BIT       T2R1
      00000083H   SFRSYM    DATA     BYTE      DPH0
      000000A8H   SFRSYM    DATA     BYTE      IE
      00000085H   SFRSYM    DATA     BYTE      DPH1
      000000B9H   SFRSYM    DATA     BYTE      EIP1
      000000BAH   SFRSYM    DATA     BYTE      EIP2
      00000082H   SFRSYM    DATA     BYTE      DPL0
      00000084H   SFRSYM    DATA     BYTE      DPL1
      000000C8H.6 SFRSYM    DATA     BIT       I3FR
      000000CFH   SFRSYM    DATA     BYTE      T2IE
      00000096H   SFRSYM    DATA     BYTE      TA
      000000C9H   SFRSYM    DATA     BYTE      T2IF
LX51 LINKER/LOCATER V4.66.97.0                                                        11/09/2024  20:20:28  PAGE 66


      000000C8H.2 SFRSYM    DATA     BIT       T2CM
      000000DFH   SFRSYM    DATA     BYTE      ADCON0
      000000DEH   SFRSYM    DATA     BYTE      ADCON1
      000000E9H   SFRSYM    DATA     BYTE      ADCON2
      000000B8H   SFRSYM    DATA     BYTE      IP
      000000CEH   SFRSYM    DATA     BYTE      CCEN
      000000D0H.7 SFRSYM    DATA     BIT       CY
      000000D2H   SFRSYM    DATA     BYTE      T34MOD
      00000093H   SFRSYM    DATA     BYTE      DPX0
      00000095H   SFRSYM    DATA     BYTE      DPX1
      000000F4H   SFRSYM    DATA     BYTE      I2CMSA
      000000F5H   SFRSYM    DATA     BYTE      I2CMCR
      00000081H   SFRSYM    DATA     BYTE      SP
      000000D0H.2 SFRSYM    DATA     BIT       OV
      000000F2H   SFRSYM    DATA     BYTE      I2CSCR
      000000C8H.7 SFRSYM    DATA     BIT       T2PS
      000000D1H   SFRSYM    DATA     BYTE      ADCMPC
      000000CBH   SFRSYM    DATA     BYTE      RLDH
      000000D5H   SFRSYM    DATA     BYTE      ADCMPH
      000000CAH   SFRSYM    DATA     BYTE      RLDL
      00000080H.0 SFRSYM    DATA     BIT       P00
      00000090H.0 SFRSYM    DATA     BIT       P10
      00000080H.1 SFRSYM    DATA     BIT       P01
      000000F7H   SFRSYM    DATA     BYTE      I2CMTP
      00000099H   SFRSYM    DATA     BYTE      SBUF
      00000087H   SFRSYM    DATA     BYTE      PCON
      000000A0H.0 SFRSYM    DATA     BIT       P20
      00000090H.1 SFRSYM    DATA     BIT       P11
      00000080H.2 SFRSYM    DATA     BIT       P02
      000000F5H   SFRSYM    DATA     BYTE      I2CMSR
      000000B0H.0 SFRSYM    DATA     BIT       P30
      000000A0H.1 SFRSYM    DATA     BIT       P21
      00000090H.2 SFRSYM    DATA     BIT       P12
      00000080H.3 SFRSYM    DATA     BIT       P03
      000000D4H   SFRSYM    DATA     BYTE      ADCMPL
      000000B0H.1 SFRSYM    DATA     BIT       P31
      000000A0H.2 SFRSYM    DATA     BIT       P22
      00000090H.3 SFRSYM    DATA     BIT       P13
      00000080H.4 SFRSYM    DATA     BIT       P04
      000000B0H.2 SFRSYM    DATA     BIT       P32
      000000A0H.3 SFRSYM    DATA     BIT       P23
      00000090H.4 SFRSYM    DATA     BIT       P14
      00000080H.5 SFRSYM    DATA     BIT       P05
      00000089H   SFRSYM    DATA     BYTE      TMOD
      00000088H   SFRSYM    DATA     BYTE      TCON
      000000B0H.3 SFRSYM    DATA     BIT       P33
      000000A0H.4 SFRSYM    DATA     BIT       P24
      00000090H.5 SFRSYM    DATA     BIT       P15
      00000080H.6 SFRSYM    DATA     BIT       P06
      000000B0H.4 SFRSYM    DATA     BIT       P34
      000000A0H.5 SFRSYM    DATA     BIT       P25
      00000090H.6 SFRSYM    DATA     BIT       P16
      00000080H.7 SFRSYM    DATA     BIT       P07
      000000B0H.5 SFRSYM    DATA     BIT       P35
      000000A0H.6 SFRSYM    DATA     BIT       P26
      00000090H.7 SFRSYM    DATA     BIT       P17
      000000F2H   SFRSYM    DATA     BYTE      I2CSSR
      000000B0H.6 SFRSYM    DATA     BIT       P36
      000000A0H.7 SFRSYM    DATA     BIT       P27
      000000ECH   SFRSYM    DATA     BYTE      SPCR
      000000DDH   SFRSYM    DATA     BYTE      ADRESH
      000000B0H.7 SFRSYM    DATA     BIT       P37
      000000EEH   SFRSYM    DATA     BYTE      SPDR
      000000EFH   SFRSYM    DATA     BYTE      SSCR
      000000D3H   SFRSYM    DATA     BYTE      ADDLYL
LX51 LINKER/LOCATER V4.66.97.0                                                        11/09/2024  20:20:28  PAGE 67


      000000DCH   SFRSYM    DATA     BYTE      ADRESL
      00000088H.1 SFRSYM    DATA     BIT       IE0
      00000088H.3 SFRSYM    DATA     BIT       IE1
      0000008FH   SFRSYM    DATA     BYTE      CLKDIV
      000000F0H   SFRSYM    DATA     BYTE      B
      00000091H   SFRSYM    DATA     BYTE      FUNCCR
      0000009AH   SFRSYM    DATA     BYTE      P0TRIS
      000000A1H   SFRSYM    DATA     BYTE      P1TRIS
      000000A2H   SFRSYM    DATA     BYTE      P2TRIS
      000000E0H   SFRSYM    DATA     BYTE      ACC
      000000A3H   SFRSYM    DATA     BYTE      P3TRIS
      000000A8H.4 SFRSYM    DATA     BIT       ES0
      000000A8H.6 SFRSYM    DATA     BIT       ES1
      000000A8H.1 SFRSYM    DATA     BIT       ET0
      000000EDH   SFRSYM    DATA     BYTE      SPSR
      000000A8H.3 SFRSYM    DATA     BIT       ET1
      00000088H.5 SFRSYM    DATA     BIT       TF0
      000000A8H.5 SFRSYM    DATA     BIT       ET2
      00000098H.0 SFRSYM    DATA     BIT       RI0
      00000088H.7 SFRSYM    DATA     BIT       TF1
      0000008CH   SFRSYM    DATA     BYTE      TH0
      000000A8H.0 SFRSYM    DATA     BIT       EX0
      00000098H.1 SFRSYM    DATA     BIT       TI0
      00000088H.0 SFRSYM    DATA     BIT       IT0
      0000008DH   SFRSYM    DATA     BYTE      TH1
      000000A8H.2 SFRSYM    DATA     BIT       EX1
      00000088H.2 SFRSYM    DATA     BIT       IT1
      000000CDH   SFRSYM    DATA     BYTE      TH2
      000000D0H.0 SFRSYM    DATA     BIT       P
      000000DBH   SFRSYM    DATA     BYTE      TH3
      000000E3H   SFRSYM    DATA     BYTE      TH4
      0000008AH   SFRSYM    DATA     BYTE      TL0
      0000008BH   SFRSYM    DATA     BYTE      TL1
      00000098H.2 SFRSYM    DATA     BIT       U0RB8
      000000CCH   SFRSYM    DATA     BYTE      TL2
      000000B8H.4 SFRSYM    DATA     BIT       PS0
      000000DAH   SFRSYM    DATA     BYTE      TL3
      000000BFH   SFRSYM    DATA     BYTE      BUZCON
      000000B8H.6 SFRSYM    DATA     BIT       PS1
      000000B8H.1 SFRSYM    DATA     BIT       PT0
      00000098H.3 SFRSYM    DATA     BIT       U0TB8
      000000E2H   SFRSYM    DATA     BYTE      TL4
      000000D0H.3 SFRSYM    DATA     BIT       RS0
      000000B8H.3 SFRSYM    DATA     BIT       PT1
      000000D0H.4 SFRSYM    DATA     BIT       RS1
      000000B8H.5 SFRSYM    DATA     BIT       PT2
      00000098H.7 SFRSYM    DATA     BIT       U0SM0
      00000088H.4 SFRSYM    DATA     BIT       TR0
      000000BEH   SFRSYM    DATA     BYTE      BUZDIV
      00000098H.6 SFRSYM    DATA     BIT       U0SM1
      00000088H.6 SFRSYM    DATA     BIT       TR1
      000000B8H.0 SFRSYM    DATA     BIT       PX0
      00000098H.5 SFRSYM    DATA     BIT       U0SM2
      000000B8H.2 SFRSYM    DATA     BIT       PX1
      000000BDH   SFRSYM    DATA     BYTE      WUTCRH
      00000099H   SFRSYM    DATA     BYTE      SBUF0
      000000EBH   SFRSYM    DATA     BYTE      SBUF1
      000000BCH   SFRSYM    DATA     BYTE      WUTCRL
      00000098H   SFRSYM    DATA     BYTE      SCON0
      000000EAH   SFRSYM    DATA     BYTE      SCON1
      000000C8H   SFRSYM    DATA     BYTE      T2CON
      00000086H   SFRSYM    DATA     BYTE      DPS
      000000FEH   SFRSYM    DATA     BYTE      MDATA
      000000F6H   SFRSYM    DATA     BYTE      I2CMBUF
      000000F1H   SFRSYM    DATA     BYTE      I2CSADR
LX51 LINKER/LOCATER V4.66.97.0                                                        11/09/2024  20:20:28  PAGE 68


      00000098H.4 SFRSYM    DATA     BIT       U0REN
      000000C8H.5 SFRSYM    DATA     BIT       CAPES
      000000FDH   SFRSYM    DATA     BYTE      MADRH
      0000008EH   SFRSYM    DATA     BYTE      CKCON
      000000F3H   SFRSYM    DATA     BYTE      I2CSBUF
      000000FCH   SFRSYM    DATA     BYTE      MADRL
      000000D0H.5 SFRSYM    DATA     BIT       F0
      000000FBH   SFRSYM    DATA     BYTE      MLOCK
      000000D0H   SFRSYM    DATA     BYTE      PSW
      00000097H   SFRSYM    DATA     BYTE      WDCON
      02000000H   SYMBOL    XDATA    INT       VshowTIM
      02000003H   SYMBOL    XDATA    BYTE      BattState
      0100143EH   SYMBOL    CODE     ---       BatVshowFSM
      02000004H   SYMBOL    XDATA    ---       BattVolt
      0200000EH   SYMBOL    XDATA    CHAR      BattShowTimer
      02000013H   SYMBOL    XDATA    FLOAT     VbattSample

      01001926H   BLOCK     CODE     ---       LVL=0
      ---         BLOCKEND  ---      ---       LVL=0

      01003924H   BLOCK     CODE     ---       LVL=0
      01003924H   LINE      CODE     ---       #34
      01003924H   LINE      CODE     ---       #35
      01003924H   LINE      CODE     ---       #36
      0100392AH   LINE      CODE     ---       #37
      0100392CH   LINE      CODE     ---       #38
      ---         BLOCKEND  ---      ---       LVL=0

      0100143EH   BLOCK     CODE     ---       LVL=0
      0100143EH   BLOCK     CODE     NEAR LAB  LVL=1
      00000029H   SYMBOL    DATA     INT       buf
      ---         BLOCKEND  ---      ---       LVL=1
      0100143EH   LINE      CODE     ---       #41
      0100143EH   LINE      CODE     ---       #42
      0100143EH   LINE      CODE     ---       #45
      01001474H   LINE      CODE     ---       #46
      01001474H   LINE      CODE     ---       #47
      01001474H   LINE      CODE     ---       #48
      01001474H   LINE      CODE     ---       #49
      01001477H   LINE      CODE     ---       #50
      0100147AH   LINE      CODE     ---       #51
      01001483H   LINE      CODE     ---       #52
      01001487H   LINE      CODE     ---       #54
      01001487H   LINE      CODE     ---       #55
      0100149EH   LINE      CODE     ---       #56
      010014AEH   LINE      CODE     ---       #57
      010014BEH   LINE      CODE     ---       #58
      010014C1H   LINE      CODE     ---       #60
      010014CFH   LINE      CODE     ---       #61
      010014DEH   LINE      CODE     ---       #62
      010014EDH   LINE      CODE     ---       #63
      010014F8H   LINE      CODE     ---       #64
      01001505H   LINE      CODE     ---       #65
      0100150BH   LINE      CODE     ---       #66
      0100150CH   LINE      CODE     ---       #68
      0100150CH   LINE      CODE     ---       #69
      01001518H   LINE      CODE     ---       #70
      01001518H   LINE      CODE     ---       #71
      0100151AH   LINE      CODE     ---       #72
      0100151DH   LINE      CODE     ---       #73
      0100151DH   LINE      CODE     ---       #74
      0100151DH   LINE      CODE     ---       #75
      01001524H   LINE      CODE     ---       #76
      0100152CH   LINE      CODE     ---       #77
      0100152CH   LINE      CODE     ---       #78
LX51 LINKER/LOCATER V4.66.97.0                                                        11/09/2024  20:20:28  PAGE 69


      0100152CH   LINE      CODE     ---       #79
      01001532H   LINE      CODE     ---       #80
      01001536H   LINE      CODE     ---       #81
      01001536H   LINE      CODE     ---       #82
      01001537H   LINE      CODE     ---       #84
      01001537H   LINE      CODE     ---       #85
      0100153FH   LINE      CODE     ---       #86
      01001545H   LINE      CODE     ---       #87
      01001548H   LINE      CODE     ---       #88
      01001553H   LINE      CODE     ---       #89
      01001560H   LINE      CODE     ---       #90
      01001566H   LINE      CODE     ---       #91
      01001567H   LINE      CODE     ---       #93
      01001567H   LINE      CODE     ---       #94
      01001573H   LINE      CODE     ---       #95
      01001573H   LINE      CODE     ---       #96
      01001575H   LINE      CODE     ---       #97
      01001578H   LINE      CODE     ---       #98
      01001578H   LINE      CODE     ---       #99
      01001578H   LINE      CODE     ---       #100
      0100157FH   LINE      CODE     ---       #101
      01001587H   LINE      CODE     ---       #102
      01001587H   LINE      CODE     ---       #103
      01001587H   LINE      CODE     ---       #104
      0100158DH   LINE      CODE     ---       #105
      01001591H   LINE      CODE     ---       #106
      01001591H   LINE      CODE     ---       #107
      01001592H   LINE      CODE     ---       #109
      01001592H   LINE      CODE     ---       #110
      0100159AH   LINE      CODE     ---       #111
      010015AEH   LINE      CODE     ---       #112
      010015B4H   LINE      CODE     ---       #113
      010015B7H   LINE      CODE     ---       #114
      010015C2H   LINE      CODE     ---       #115
      010015CFH   LINE      CODE     ---       #116
      010015D5H   LINE      CODE     ---       #117
      010015D6H   LINE      CODE     ---       #119
      010015D6H   LINE      CODE     ---       #120
      010015E2H   LINE      CODE     ---       #121
      010015E2H   LINE      CODE     ---       #122
      010015E7H   LINE      CODE     ---       #123
      010015EBH   LINE      CODE     ---       #124
      010015EBH   LINE      CODE     ---       #125
      010015EBH   LINE      CODE     ---       #126
      010015F2H   LINE      CODE     ---       #127
      010015F7H   LINE      CODE     ---       #128
      010015F7H   LINE      CODE     ---       #129
      010015F7H   LINE      CODE     ---       #130
      010015FDH   LINE      CODE     ---       #131
      01001601H   LINE      CODE     ---       #132
      01001601H   LINE      CODE     ---       #133
      01001602H   LINE      CODE     ---       #135
      01001602H   LINE      CODE     ---       #136
      01001607H   LINE      CODE     ---       #137
      0100160DH   LINE      CODE     ---       #138
      01001613H   LINE      CODE     ---       #139
      01001614H   LINE      CODE     ---       #141
      01001614H   LINE      CODE     ---       #142
      0100161EH   LINE      CODE     ---       #143
      01001623H   LINE      CODE     ---       #144
      01001623H   LINE      CODE     ---       #145
      01001623H   LINE      CODE     ---       #146
      ---         BLOCKEND  ---      ---       LVL=0

      01002E7FH   BLOCK     CODE     ---       LVL=0
LX51 LINKER/LOCATER V4.66.97.0                                                        11/09/2024  20:20:28  PAGE 70


      01002E7FH   LINE      CODE     ---       #149
      01002E7FH   LINE      CODE     ---       #150
      01002E7FH   LINE      CODE     ---       #152
      01002E92H   LINE      CODE     ---       #153
      01002EA2H   LINE      CODE     ---       #154
      01002EB4H   LINE      CODE     ---       #155
      01002EB9H   LINE      CODE     ---       #157
      01002EBBH   LINE      CODE     ---       #158
      01002EBDH   LINE      CODE     ---       #160
      01002EBDH   LINE      CODE     ---       #161
      01002EBDH   LINE      CODE     ---       #162
      01002EBDH   LINE      CODE     ---       #163
      01002EC7H   LINE      CODE     ---       #164
      01002ED5H   LINE      CODE     ---       #166
      01002ED8H   LINE      CODE     ---       #167
      01002EDDH   LINE      CODE     ---       #169
      01002EE9H   LINE      CODE     ---       #170
      ---         BLOCKEND  ---      ---       LVL=0

      01003497H   BLOCK     CODE     ---       LVL=0
      01003497H   BLOCK     CODE     NEAR LAB  LVL=1
      00000006H   SYMBOL    DATA     CHAR      buf
      ---         BLOCKEND  ---      ---       LVL=1
      01003497H   LINE      CODE     ---       #172
      01003497H   LINE      CODE     ---       #173
      01003497H   LINE      CODE     ---       #176
      010034A8H   LINE      CODE     ---       #178
      010034B0H   LINE      CODE     ---       #179
      010034B0H   LINE      CODE     ---       #180
      010034B3H   LINE      CODE     ---       #181
      010034B7H   LINE      CODE     ---       #182
      010034C8H   LINE      CODE     ---       #183
      010034C8H   LINE      CODE     ---       #184
      010034C9H   LINE      CODE     ---       #185
      010034CCH   LINE      CODE     ---       #186
      010034CDH   LINE      CODE     ---       #189
      010034D2H   LINE      CODE     ---       #190
      ---         BLOCKEND  ---      ---       LVL=0

      01000FAAH   BLOCK     CODE     ---       LVL=0
      01000FAAH   BLOCK     CODE     NEAR LAB  LVL=1
      00000004H   SYMBOL    DATA     FLOAT     AlertThr
      00000025H   SYMBOL    DATA     LONG      buf
      ---         BLOCKEND  ---      ---       LVL=1
      01000FAAH   LINE      CODE     ---       #193
      01000FAAH   LINE      CODE     ---       #194
      01000FAAH   LINE      CODE     ---       #198
      01000FBBH   LINE      CODE     ---       #199
      01000FBBH   LINE      CODE     ---       #200
      01000FD8H   LINE      CODE     ---       #201
      01000FE6H   LINE      CODE     ---       #202
      01000FFEH   LINE      CODE     ---       #203
      01001011H   LINE      CODE     ---       #204
      0100102AH   LINE      CODE     ---       #205
      0100102CH   LINE      CODE     ---       #207
      0100102CH   LINE      CODE     ---       #208
      0100106CH   LINE      CODE     ---       #209
      01001090H   LINE      CODE     ---       #210
      010010A1H   LINE      CODE     ---       #211
      010010A1H   LINE      CODE     ---       #212
      010010A1H   LINE      CODE     ---       #213
      010010A1H   LINE      CODE     ---       #214
      010010ABH   LINE      CODE     ---       #215
      010010ABH   LINE      CODE     ---       #217
      010010BDH   LINE      CODE     ---       #218
LX51 LINKER/LOCATER V4.66.97.0                                                        11/09/2024  20:20:28  PAGE 71


      010010BDH   LINE      CODE     ---       #219
      010010BFH   LINE      CODE     ---       #220
      010010C1H   LINE      CODE     ---       #221
      010010C3H   LINE      CODE     ---       #223
      010010C3H   LINE      CODE     ---       #224
      010010CAH   LINE      CODE     ---       #225
      010010D7H   LINE      CODE     ---       #226
      010010EAH   LINE      CODE     ---       #227
      010010EFH   LINE      CODE     ---       #228
      010010EFH   LINE      CODE     ---       #230
      01001103H   LINE      CODE     ---       #231
      01001103H   LINE      CODE     ---       #233
      01001103H   LINE      CODE     ---       #234
      01001116H   LINE      CODE     ---       #235
      01001119H   LINE      CODE     ---       #237
      01001119H   LINE      CODE     ---       #238
      0100112BH   LINE      CODE     ---       #239
      01001139H   LINE      CODE     ---       #240
      01001143H   LINE      CODE     ---       #241
      01001145H   LINE      CODE     ---       #243
      01001145H   LINE      CODE     ---       #244
      01001157H   LINE      CODE     ---       #245
      01001163H   LINE      CODE     ---       #246
      01001174H   LINE      CODE     ---       #247
      01001176H   LINE      CODE     ---       #249
      01001176H   LINE      CODE     ---       #250
      01001188H   LINE      CODE     ---       #251
      01001194H   LINE      CODE     ---       #252
      010011A0H   LINE      CODE     ---       #253
      010011A0H   LINE      CODE     ---       #254
      010011A0H   LINE      CODE     ---       #256
      010011B5H   LINE      CODE     ---       #257
      010011BEH   LINE      CODE     ---       #258
      010011DFH   LINE      CODE     ---       #259
      010011DFH   LINE      CODE     ---       #260
      010011E3H   LINE      CODE     ---       #261
      010011E7H   LINE      CODE     ---       #262
      010011EBH   LINE      CODE     ---       #263
      010011EFH   LINE      CODE     ---       #264
      010011EFH   LINE      CODE     ---       #265
      010011F8H   LINE      CODE     ---       #266
      010011FBH   LINE      CODE     ---       #267
      ---         BLOCKEND  ---      ---       LVL=0

      ---         MODULE    ---      ---       TEMPCONTROL
      00000021H.5 PUBLIC    BIT      BIT       IsForceLeaveTurbo
      00000021H.4 PUBLIC    BIT      BIT       IsTempLIMActive
      00000021H.3 PUBLIC    BIT      BIT       IsDisableTurbo
      0100162FH   PUBLIC    CODE     ---       ThermalCalcProcess
      01001C4CH   PUBLIC    CODE     ---       _ThermalILIMCalc
      010037AEH   PUBLIC    CODE     ---       CheckNTCStatus
      000000C8H.0 SFRSYM    DATA     BIT       T2I0
      000000C3H   SFRSYM    DATA     BYTE      CCH1
      00000080H   SFRSYM    DATA     BYTE      P0
      000000C8H.1 SFRSYM    DATA     BIT       T2I1
      000000C5H   SFRSYM    DATA     BYTE      CCH2
      00000090H   SFRSYM    DATA     BYTE      P1
      000000C7H   SFRSYM    DATA     BYTE      CCH3
      000000ACH   SFRSYM    DATA     BYTE      P0EXTIE
      000000A0H   SFRSYM    DATA     BYTE      P2
      000000B4H   SFRSYM    DATA     BYTE      P0EXTIF
      000000B0H   SFRSYM    DATA     BYTE      P3
      000000ADH   SFRSYM    DATA     BYTE      P1EXTIE
      000000D0H.6 SFRSYM    DATA     BIT       AC
      000000FFH   SFRSYM    DATA     BYTE      MCTRL
LX51 LINKER/LOCATER V4.66.97.0                                                        11/09/2024  20:20:28  PAGE 72


      000000C2H   SFRSYM    DATA     BYTE      CCL1
      000000B5H   SFRSYM    DATA     BYTE      P1EXTIF
      000000AEH   SFRSYM    DATA     BYTE      P2EXTIE
      000000C4H   SFRSYM    DATA     BYTE      CCL2
      000000B6H   SFRSYM    DATA     BYTE      P2EXTIF
      000000AFH   SFRSYM    DATA     BYTE      P3EXTIE
      000000A8H.7 SFRSYM    DATA     BIT       EA
      000000C6H   SFRSYM    DATA     BYTE      CCL3
      000000B7H   SFRSYM    DATA     BYTE      P3EXTIF
      000000AAH   SFRSYM    DATA     BYTE      EIE2
      000000B2H   SFRSYM    DATA     BYTE      EIF2
      000000C8H.3 SFRSYM    DATA     BIT       T2R0
      000000C8H.4 SFRSYM    DATA     BIT       T2R1
      00000083H   SFRSYM    DATA     BYTE      DPH0
      000000A8H   SFRSYM    DATA     BYTE      IE
      00000085H   SFRSYM    DATA     BYTE      DPH1
      000000B9H   SFRSYM    DATA     BYTE      EIP1
      000000BAH   SFRSYM    DATA     BYTE      EIP2
      00000082H   SFRSYM    DATA     BYTE      DPL0
      00000084H   SFRSYM    DATA     BYTE      DPL1
      000000C8H.6 SFRSYM    DATA     BIT       I3FR
      000000CFH   SFRSYM    DATA     BYTE      T2IE
      00000096H   SFRSYM    DATA     BYTE      TA
      000000C9H   SFRSYM    DATA     BYTE      T2IF
      000000C8H.2 SFRSYM    DATA     BIT       T2CM
      000000DFH   SFRSYM    DATA     BYTE      ADCON0
      000000DEH   SFRSYM    DATA     BYTE      ADCON1
      000000E9H   SFRSYM    DATA     BYTE      ADCON2
      000000B8H   SFRSYM    DATA     BYTE      IP
      000000CEH   SFRSYM    DATA     BYTE      CCEN
      000000D0H.7 SFRSYM    DATA     BIT       CY
      000000D2H   SFRSYM    DATA     BYTE      T34MOD
      00000093H   SFRSYM    DATA     BYTE      DPX0
      00000095H   SFRSYM    DATA     BYTE      DPX1
      000000F4H   SFRSYM    DATA     BYTE      I2CMSA
      000000F5H   SFRSYM    DATA     BYTE      I2CMCR
      00000081H   SFRSYM    DATA     BYTE      SP
      000000D0H.2 SFRSYM    DATA     BIT       OV
      000000F2H   SFRSYM    DATA     BYTE      I2CSCR
      000000C8H.7 SFRSYM    DATA     BIT       T2PS
      000000D1H   SFRSYM    DATA     BYTE      ADCMPC
      000000CBH   SFRSYM    DATA     BYTE      RLDH
      000000D5H   SFRSYM    DATA     BYTE      ADCMPH
      000000CAH   SFRSYM    DATA     BYTE      RLDL
      00000080H.0 SFRSYM    DATA     BIT       P00
      00000090H.0 SFRSYM    DATA     BIT       P10
      00000080H.1 SFRSYM    DATA     BIT       P01
      000000F7H   SFRSYM    DATA     BYTE      I2CMTP
      00000099H   SFRSYM    DATA     BYTE      SBUF
      00000087H   SFRSYM    DATA     BYTE      PCON
      000000A0H.0 SFRSYM    DATA     BIT       P20
      00000090H.1 SFRSYM    DATA     BIT       P11
      00000080H.2 SFRSYM    DATA     BIT       P02
      000000F5H   SFRSYM    DATA     BYTE      I2CMSR
      000000B0H.0 SFRSYM    DATA     BIT       P30
      000000A0H.1 SFRSYM    DATA     BIT       P21
      00000090H.2 SFRSYM    DATA     BIT       P12
      00000080H.3 SFRSYM    DATA     BIT       P03
      000000D4H   SFRSYM    DATA     BYTE      ADCMPL
      000000B0H.1 SFRSYM    DATA     BIT       P31
      000000A0H.2 SFRSYM    DATA     BIT       P22
      00000090H.3 SFRSYM    DATA     BIT       P13
      00000080H.4 SFRSYM    DATA     BIT       P04
      000000B0H.2 SFRSYM    DATA     BIT       P32
      000000A0H.3 SFRSYM    DATA     BIT       P23
LX51 LINKER/LOCATER V4.66.97.0                                                        11/09/2024  20:20:28  PAGE 73


      00000090H.4 SFRSYM    DATA     BIT       P14
      00000080H.5 SFRSYM    DATA     BIT       P05
      00000089H   SFRSYM    DATA     BYTE      TMOD
      00000088H   SFRSYM    DATA     BYTE      TCON
      000000B0H.3 SFRSYM    DATA     BIT       P33
      000000A0H.4 SFRSYM    DATA     BIT       P24
      00000090H.5 SFRSYM    DATA     BIT       P15
      00000080H.6 SFRSYM    DATA     BIT       P06
      000000B0H.4 SFRSYM    DATA     BIT       P34
      000000A0H.5 SFRSYM    DATA     BIT       P25
      00000090H.6 SFRSYM    DATA     BIT       P16
      00000080H.7 SFRSYM    DATA     BIT       P07
      000000B0H.5 SFRSYM    DATA     BIT       P35
      000000A0H.6 SFRSYM    DATA     BIT       P26
      00000090H.7 SFRSYM    DATA     BIT       P17
      000000F2H   SFRSYM    DATA     BYTE      I2CSSR
      000000B0H.6 SFRSYM    DATA     BIT       P36
      000000A0H.7 SFRSYM    DATA     BIT       P27
      000000ECH   SFRSYM    DATA     BYTE      SPCR
      000000DDH   SFRSYM    DATA     BYTE      ADRESH
      000000B0H.7 SFRSYM    DATA     BIT       P37
      000000EEH   SFRSYM    DATA     BYTE      SPDR
      000000EFH   SFRSYM    DATA     BYTE      SSCR
      000000D3H   SFRSYM    DATA     BYTE      ADDLYL
      000000DCH   SFRSYM    DATA     BYTE      ADRESL
      00000088H.1 SFRSYM    DATA     BIT       IE0
      00000088H.3 SFRSYM    DATA     BIT       IE1
      0000008FH   SFRSYM    DATA     BYTE      CLKDIV
      000000F0H   SFRSYM    DATA     BYTE      B
      00000091H   SFRSYM    DATA     BYTE      FUNCCR
      0000009AH   SFRSYM    DATA     BYTE      P0TRIS
      000000A1H   SFRSYM    DATA     BYTE      P1TRIS
      000000A2H   SFRSYM    DATA     BYTE      P2TRIS
      000000E0H   SFRSYM    DATA     BYTE      ACC
      000000A3H   SFRSYM    DATA     BYTE      P3TRIS
      000000A8H.4 SFRSYM    DATA     BIT       ES0
      000000A8H.6 SFRSYM    DATA     BIT       ES1
      000000A8H.1 SFRSYM    DATA     BIT       ET0
      000000EDH   SFRSYM    DATA     BYTE      SPSR
      000000A8H.3 SFRSYM    DATA     BIT       ET1
      00000088H.5 SFRSYM    DATA     BIT       TF0
      000000A8H.5 SFRSYM    DATA     BIT       ET2
      00000098H.0 SFRSYM    DATA     BIT       RI0
      00000088H.7 SFRSYM    DATA     BIT       TF1
      0000008CH   SFRSYM    DATA     BYTE      TH0
      000000A8H.0 SFRSYM    DATA     BIT       EX0
      00000098H.1 SFRSYM    DATA     BIT       TI0
      00000088H.0 SFRSYM    DATA     BIT       IT0
      0000008DH   SFRSYM    DATA     BYTE      TH1
      000000A8H.2 SFRSYM    DATA     BIT       EX1
      00000088H.2 SFRSYM    DATA     BIT       IT1
      000000CDH   SFRSYM    DATA     BYTE      TH2
      000000D0H.0 SFRSYM    DATA     BIT       P
      000000DBH   SFRSYM    DATA     BYTE      TH3
      000000E3H   SFRSYM    DATA     BYTE      TH4
      0000008AH   SFRSYM    DATA     BYTE      TL0
      0000008BH   SFRSYM    DATA     BYTE      TL1
      00000098H.2 SFRSYM    DATA     BIT       U0RB8
      000000CCH   SFRSYM    DATA     BYTE      TL2
      000000B8H.4 SFRSYM    DATA     BIT       PS0
      000000DAH   SFRSYM    DATA     BYTE      TL3
      000000BFH   SFRSYM    DATA     BYTE      BUZCON
      000000B8H.6 SFRSYM    DATA     BIT       PS1
      000000B8H.1 SFRSYM    DATA     BIT       PT0
      00000098H.3 SFRSYM    DATA     BIT       U0TB8
LX51 LINKER/LOCATER V4.66.97.0                                                        11/09/2024  20:20:28  PAGE 74


      000000E2H   SFRSYM    DATA     BYTE      TL4
      000000D0H.3 SFRSYM    DATA     BIT       RS0
      000000B8H.3 SFRSYM    DATA     BIT       PT1
      000000D0H.4 SFRSYM    DATA     BIT       RS1
      000000B8H.5 SFRSYM    DATA     BIT       PT2
      00000098H.7 SFRSYM    DATA     BIT       U0SM0
      00000088H.4 SFRSYM    DATA     BIT       TR0
      000000BEH   SFRSYM    DATA     BYTE      BUZDIV
      00000098H.6 SFRSYM    DATA     BIT       U0SM1
      00000088H.6 SFRSYM    DATA     BIT       TR1
      000000B8H.0 SFRSYM    DATA     BIT       PX0
      00000098H.5 SFRSYM    DATA     BIT       U0SM2
      000000B8H.2 SFRSYM    DATA     BIT       PX1
      000000BDH   SFRSYM    DATA     BYTE      WUTCRH
      00000099H   SFRSYM    DATA     BYTE      SBUF0
      000000EBH   SFRSYM    DATA     BYTE      SBUF1
      000000BCH   SFRSYM    DATA     BYTE      WUTCRL
      00000098H   SFRSYM    DATA     BYTE      SCON0
      000000EAH   SFRSYM    DATA     BYTE      SCON1
      000000C8H   SFRSYM    DATA     BYTE      T2CON
      00000086H   SFRSYM    DATA     BYTE      DPS
      000000FEH   SFRSYM    DATA     BYTE      MDATA
      000000F6H   SFRSYM    DATA     BYTE      I2CMBUF
      000000F1H   SFRSYM    DATA     BYTE      I2CSADR
      00000098H.4 SFRSYM    DATA     BIT       U0REN
      000000C8H.5 SFRSYM    DATA     BIT       CAPES
      000000FDH   SFRSYM    DATA     BYTE      MADRH
      0000008EH   SFRSYM    DATA     BYTE      CKCON
      000000F3H   SFRSYM    DATA     BYTE      I2CSBUF
      000000FCH   SFRSYM    DATA     BYTE      MADRL
      000000D0H.5 SFRSYM    DATA     BIT       F0
      000000FBH   SFRSYM    DATA     BYTE      MLOCK
      000000D0H   SFRSYM    DATA     BYTE      PSW
      00000097H   SFRSYM    DATA     BYTE      WDCON
      0100357BH   SYMBOL    CODE     ---       _PresentLIM
      0000001BH   SYMBOL    DATA     INT       TempIntegral
      0000001DH   SYMBOL    DATA     INT       TempProtBuf

      01003604H   BLOCK     CODE     ---       LVL=0
      ---         BLOCKEND  ---      ---       LVL=0

      010037AEH   BLOCK     CODE     ---       LVL=0
      010037AEH   BLOCK     CODE     NEAR LAB  LVL=1
      00000023H   SYMBOL    DATA     CHAR      i
      ---         BLOCKEND  ---      ---       LVL=1
      010037AEH   LINE      CODE     ---       #28
      010037AEH   LINE      CODE     ---       #29
      010037AEH   LINE      CODE     ---       #30
      010037B1H   LINE      CODE     ---       #33
      010037B1H   LINE      CODE     ---       #34
      010037B8H   LINE      CODE     ---       #35
      010037BBH   LINE      CODE     ---       #36
      010037BFH   LINE      CODE     ---       #37
      010037C2H   LINE      CODE     ---       #38
      010037C2H   LINE      CODE     ---       #39
      010037C2H   LINE      CODE     ---       #40
      010037C6H   LINE      CODE     ---       #41
      010037C6H   LINE      CODE     ---       #42
      010037C9H   LINE      CODE     ---       #43
      010037CCH   LINE      CODE     ---       #44
      010037CEH   LINE      CODE     ---       #45
      010037CEH   LINE      CODE     ---       #46
      ---         BLOCKEND  ---      ---       LVL=0

      0100357BH   BLOCK     CODE     ---       LVL=0
LX51 LINKER/LOCATER V4.66.97.0                                                        11/09/2024  20:20:28  PAGE 75


      00000033H   SYMBOL    DATA     FLOAT     IN
      0100357BH   LINE      CODE     ---       #49
      01003583H   LINE      CODE     ---       #50
      01003583H   LINE      CODE     ---       #51
      01003591H   LINE      CODE     ---       #52
      010035A1H   LINE      CODE     ---       #54
      010035A9H   LINE      CODE     ---       #55
      ---         BLOCKEND  ---      ---       LVL=0

      01001C4CH   BLOCK     CODE     ---       LVL=0
      00000025H   SYMBOL    DATA     INT       Input
      01001C50H   BLOCK     CODE     NEAR LAB  LVL=1
      00000027H   SYMBOL    DATA     FLOAT     buf
      0000002BH   SYMBOL    DATA     FLOAT     ILED
      0000002FH   SYMBOL    DATA     FLOAT     itgbuf
      ---         BLOCKEND  ---      ---       LVL=1
      01001C4CH   LINE      CODE     ---       #58
      01001C50H   LINE      CODE     ---       #59
      01001C50H   LINE      CODE     ---       #62
      01001C54H   LINE      CODE     ---       #64
      01001C6FH   LINE      CODE     ---       #65
      01001C79H   LINE      CODE     ---       #66
      01001C7CH   LINE      CODE     ---       #68
      01001C97H   LINE      CODE     ---       #69
      01001CC4H   LINE      CODE     ---       #70
      01001CC7H   LINE      CODE     ---       #72
      01001CD9H   LINE      CODE     ---       #73
      01001CF8H   LINE      CODE     ---       #74
      01001D29H   LINE      CODE     ---       #75
      01001D34H   LINE      CODE     ---       #76
      ---         BLOCKEND  ---      ---       LVL=0

      0100162FH   BLOCK     CODE     ---       LVL=0
      0100162FH   BLOCK     CODE     NEAR LAB  LVL=1
      00000002H   SYMBOL    DATA     INT       Err
      ---         BLOCKEND  ---      ---       LVL=1
      0100162FH   LINE      CODE     ---       #79
      0100162FH   LINE      CODE     ---       #80
      0100162FH   LINE      CODE     ---       #83
      01001633H   LINE      CODE     ---       #84
      01001633H   LINE      CODE     ---       #85
      01001635H   LINE      CODE     ---       #86
      0100163FH   LINE      CODE     ---       #88
      0100163FH   LINE      CODE     ---       #90
      0100164FH   LINE      CODE     ---       #91
      0100165EH   LINE      CODE     ---       #92
      0100166BH   LINE      CODE     ---       #93
      01001673H   LINE      CODE     ---       #95
      0100167EH   LINE      CODE     ---       #96
      0100167EH   LINE      CODE     ---       #97
      01001680H   LINE      CODE     ---       #98
      0100168DH   LINE      CODE     ---       #100
      0100168DH   LINE      CODE     ---       #101
      010016A3H   LINE      CODE     ---       #102
      010016A3H   LINE      CODE     ---       #103
      010016A4H   LINE      CODE     ---       #104
      010016A8H   LINE      CODE     ---       #105
      010016A8H   LINE      CODE     ---       #107
      010016BAH   LINE      CODE     ---       #108
      010016CCH   LINE      CODE     ---       #109
      010016D9H   LINE      CODE     ---       #111
      010016DCH   LINE      CODE     ---       #112
      010016DCH   LINE      CODE     ---       #113
      010016E1H   LINE      CODE     ---       #114
      010016E5H   LINE      CODE     ---       #115
LX51 LINKER/LOCATER V4.66.97.0                                                        11/09/2024  20:20:28  PAGE 76


      010016E6H   LINE      CODE     ---       #117
      010016FAH   LINE      CODE     ---       #118
      010016FAH   LINE      CODE     ---       #120
      01001707H   LINE      CODE     ---       #122
      0100175FH   LINE      CODE     ---       #123
      01001772H   LINE      CODE     ---       #124
      01001780H   LINE      CODE     ---       #126
      0100178AH   LINE      CODE     ---       #127
      0100179DH   LINE      CODE     ---       #128
      010017B0H   LINE      CODE     ---       #129
      010017B0H   LINE      CODE     ---       #130
      ---         BLOCKEND  ---      ---       LVL=0

      ---         MODULE    ---      ---       SLEEP
      00000022H.3 PUBLIC    BIT      BIT       IsWakupFromSleep
      01002B15H   PUBLIC    CODE     ---       SleepMgmt
      000000C8H.0 SFRSYM    DATA     BIT       T2I0
      000000C3H   SFRSYM    DATA     BYTE      CCH1
      00000080H   SFRSYM    DATA     BYTE      P0
      000000C8H.1 SFRSYM    DATA     BIT       T2I1
      000000C5H   SFRSYM    DATA     BYTE      CCH2
      00000090H   SFRSYM    DATA     BYTE      P1
      000000C7H   SFRSYM    DATA     BYTE      CCH3
      000000ACH   SFRSYM    DATA     BYTE      P0EXTIE
      000000A0H   SFRSYM    DATA     BYTE      P2
      000000B4H   SFRSYM    DATA     BYTE      P0EXTIF
      000000B0H   SFRSYM    DATA     BYTE      P3
      000000ADH   SFRSYM    DATA     BYTE      P1EXTIE
      000000D0H.6 SFRSYM    DATA     BIT       AC
      000000FFH   SFRSYM    DATA     BYTE      MCTRL
      000000C2H   SFRSYM    DATA     BYTE      CCL1
      000000B5H   SFRSYM    DATA     BYTE      P1EXTIF
      000000AEH   SFRSYM    DATA     BYTE      P2EXTIE
      000000C4H   SFRSYM    DATA     BYTE      CCL2
      000000B6H   SFRSYM    DATA     BYTE      P2EXTIF
      000000AFH   SFRSYM    DATA     BYTE      P3EXTIE
      000000A8H.7 SFRSYM    DATA     BIT       EA
      000000C6H   SFRSYM    DATA     BYTE      CCL3
      000000B7H   SFRSYM    DATA     BYTE      P3EXTIF
      000000AAH   SFRSYM    DATA     BYTE      EIE2
      000000B2H   SFRSYM    DATA     BYTE      EIF2
      000000C8H.3 SFRSYM    DATA     BIT       T2R0
      000000C8H.4 SFRSYM    DATA     BIT       T2R1
      00000083H   SFRSYM    DATA     BYTE      DPH0
      000000A8H   SFRSYM    DATA     BYTE      IE
      00000085H   SFRSYM    DATA     BYTE      DPH1
      000000B9H   SFRSYM    DATA     BYTE      EIP1
      000000BAH   SFRSYM    DATA     BYTE      EIP2
      00000082H   SFRSYM    DATA     BYTE      DPL0
      00000084H   SFRSYM    DATA     BYTE      DPL1
      000000C8H.6 SFRSYM    DATA     BIT       I3FR
      000000CFH   SFRSYM    DATA     BYTE      T2IE
      00000096H   SFRSYM    DATA     BYTE      TA
      000000C9H   SFRSYM    DATA     BYTE      T2IF
      000000C8H.2 SFRSYM    DATA     BIT       T2CM
      000000DFH   SFRSYM    DATA     BYTE      ADCON0
      000000DEH   SFRSYM    DATA     BYTE      ADCON1
      000000E9H   SFRSYM    DATA     BYTE      ADCON2
      000000B8H   SFRSYM    DATA     BYTE      IP
      000000CEH   SFRSYM    DATA     BYTE      CCEN
      000000D0H.7 SFRSYM    DATA     BIT       CY
      000000D2H   SFRSYM    DATA     BYTE      T34MOD
      00000093H   SFRSYM    DATA     BYTE      DPX0
      00000095H   SFRSYM    DATA     BYTE      DPX1
      000000F4H   SFRSYM    DATA     BYTE      I2CMSA
LX51 LINKER/LOCATER V4.66.97.0                                                        11/09/2024  20:20:28  PAGE 77


      000000F5H   SFRSYM    DATA     BYTE      I2CMCR
      00000081H   SFRSYM    DATA     BYTE      SP
      000000D0H.2 SFRSYM    DATA     BIT       OV
      000000F2H   SFRSYM    DATA     BYTE      I2CSCR
      000000C8H.7 SFRSYM    DATA     BIT       T2PS
      000000D1H   SFRSYM    DATA     BYTE      ADCMPC
      000000CBH   SFRSYM    DATA     BYTE      RLDH
      000000D5H   SFRSYM    DATA     BYTE      ADCMPH
      000000CAH   SFRSYM    DATA     BYTE      RLDL
      00000080H.0 SFRSYM    DATA     BIT       P00
      00000090H.0 SFRSYM    DATA     BIT       P10
      00000080H.1 SFRSYM    DATA     BIT       P01
      000000F7H   SFRSYM    DATA     BYTE      I2CMTP
      00000099H   SFRSYM    DATA     BYTE      SBUF
      00000087H   SFRSYM    DATA     BYTE      PCON
      000000A0H.0 SFRSYM    DATA     BIT       P20
      00000090H.1 SFRSYM    DATA     BIT       P11
      00000080H.2 SFRSYM    DATA     BIT       P02
      000000F5H   SFRSYM    DATA     BYTE      I2CMSR
      000000B0H.0 SFRSYM    DATA     BIT       P30
      000000A0H.1 SFRSYM    DATA     BIT       P21
      00000090H.2 SFRSYM    DATA     BIT       P12
      00000080H.3 SFRSYM    DATA     BIT       P03
      000000D4H   SFRSYM    DATA     BYTE      ADCMPL
      000000B0H.1 SFRSYM    DATA     BIT       P31
      000000A0H.2 SFRSYM    DATA     BIT       P22
      00000090H.3 SFRSYM    DATA     BIT       P13
      00000080H.4 SFRSYM    DATA     BIT       P04
      000000B0H.2 SFRSYM    DATA     BIT       P32
      000000A0H.3 SFRSYM    DATA     BIT       P23
      00000090H.4 SFRSYM    DATA     BIT       P14
      00000080H.5 SFRSYM    DATA     BIT       P05
      00000089H   SFRSYM    DATA     BYTE      TMOD
      00000088H   SFRSYM    DATA     BYTE      TCON
      000000B0H.3 SFRSYM    DATA     BIT       P33
      000000A0H.4 SFRSYM    DATA     BIT       P24
      00000090H.5 SFRSYM    DATA     BIT       P15
      00000080H.6 SFRSYM    DATA     BIT       P06
      000000B0H.4 SFRSYM    DATA     BIT       P34
      000000A0H.5 SFRSYM    DATA     BIT       P25
      00000090H.6 SFRSYM    DATA     BIT       P16
      00000080H.7 SFRSYM    DATA     BIT       P07
      000000B0H.5 SFRSYM    DATA     BIT       P35
      000000A0H.6 SFRSYM    DATA     BIT       P26
      00000090H.7 SFRSYM    DATA     BIT       P17
      000000F2H   SFRSYM    DATA     BYTE      I2CSSR
      000000B0H.6 SFRSYM    DATA     BIT       P36
      000000A0H.7 SFRSYM    DATA     BIT       P27
      000000ECH   SFRSYM    DATA     BYTE      SPCR
      000000DDH   SFRSYM    DATA     BYTE      ADRESH
      000000B0H.7 SFRSYM    DATA     BIT       P37
      000000EEH   SFRSYM    DATA     BYTE      SPDR
      000000EFH   SFRSYM    DATA     BYTE      SSCR
      000000D3H   SFRSYM    DATA     BYTE      ADDLYL
      000000DCH   SFRSYM    DATA     BYTE      ADRESL
      00000088H.1 SFRSYM    DATA     BIT       IE0
      00000088H.3 SFRSYM    DATA     BIT       IE1
      0000008FH   SFRSYM    DATA     BYTE      CLKDIV
      000000F0H   SFRSYM    DATA     BYTE      B
      00000091H   SFRSYM    DATA     BYTE      FUNCCR
      0000009AH   SFRSYM    DATA     BYTE      P0TRIS
      000000A1H   SFRSYM    DATA     BYTE      P1TRIS
      000000A2H   SFRSYM    DATA     BYTE      P2TRIS
      000000E0H   SFRSYM    DATA     BYTE      ACC
      000000A3H   SFRSYM    DATA     BYTE      P3TRIS
LX51 LINKER/LOCATER V4.66.97.0                                                        11/09/2024  20:20:28  PAGE 78


      000000A8H.4 SFRSYM    DATA     BIT       ES0
      000000A8H.6 SFRSYM    DATA     BIT       ES1
      000000A8H.1 SFRSYM    DATA     BIT       ET0
      000000EDH   SFRSYM    DATA     BYTE      SPSR
      000000A8H.3 SFRSYM    DATA     BIT       ET1
      00000088H.5 SFRSYM    DATA     BIT       TF0
      000000A8H.5 SFRSYM    DATA     BIT       ET2
      00000098H.0 SFRSYM    DATA     BIT       RI0
      00000088H.7 SFRSYM    DATA     BIT       TF1
      0000008CH   SFRSYM    DATA     BYTE      TH0
      000000A8H.0 SFRSYM    DATA     BIT       EX0
      00000098H.1 SFRSYM    DATA     BIT       TI0
      00000088H.0 SFRSYM    DATA     BIT       IT0
      0000008DH   SFRSYM    DATA     BYTE      TH1
      000000A8H.2 SFRSYM    DATA     BIT       EX1
      00000088H.2 SFRSYM    DATA     BIT       IT1
      000000CDH   SFRSYM    DATA     BYTE      TH2
      000000D0H.0 SFRSYM    DATA     BIT       P
      000000DBH   SFRSYM    DATA     BYTE      TH3
      000000E3H   SFRSYM    DATA     BYTE      TH4
      0000008AH   SFRSYM    DATA     BYTE      TL0
      0000008BH   SFRSYM    DATA     BYTE      TL1
      00000098H.2 SFRSYM    DATA     BIT       U0RB8
      000000CCH   SFRSYM    DATA     BYTE      TL2
      000000B8H.4 SFRSYM    DATA     BIT       PS0
      000000DAH   SFRSYM    DATA     BYTE      TL3
      000000BFH   SFRSYM    DATA     BYTE      BUZCON
      000000B8H.6 SFRSYM    DATA     BIT       PS1
      000000B8H.1 SFRSYM    DATA     BIT       PT0
      00000098H.3 SFRSYM    DATA     BIT       U0TB8
      000000E2H   SFRSYM    DATA     BYTE      TL4
      000000D0H.3 SFRSYM    DATA     BIT       RS0
      000000B8H.3 SFRSYM    DATA     BIT       PT1
      000000D0H.4 SFRSYM    DATA     BIT       RS1
      000000B8H.5 SFRSYM    DATA     BIT       PT2
      00000098H.7 SFRSYM    DATA     BIT       U0SM0
      00000088H.4 SFRSYM    DATA     BIT       TR0
      000000BEH   SFRSYM    DATA     BYTE      BUZDIV
      00000098H.6 SFRSYM    DATA     BIT       U0SM1
      00000088H.6 SFRSYM    DATA     BIT       TR1
      000000B8H.0 SFRSYM    DATA     BIT       PX0
      00000098H.5 SFRSYM    DATA     BIT       U0SM2
      000000B8H.2 SFRSYM    DATA     BIT       PX1
      000000BDH   SFRSYM    DATA     BYTE      WUTCRH
      00000099H   SFRSYM    DATA     BYTE      SBUF0
      000000EBH   SFRSYM    DATA     BYTE      SBUF1
      000000BCH   SFRSYM    DATA     BYTE      WUTCRL
      00000098H   SFRSYM    DATA     BYTE      SCON0
      000000EAH   SFRSYM    DATA     BYTE      SCON1
      000000C8H   SFRSYM    DATA     BYTE      T2CON
      00000086H   SFRSYM    DATA     BYTE      DPS
      000000FEH   SFRSYM    DATA     BYTE      MDATA
      000000F6H   SFRSYM    DATA     BYTE      I2CMBUF
      000000F1H   SFRSYM    DATA     BYTE      I2CSADR
      00000098H.4 SFRSYM    DATA     BIT       U0REN
      000000C8H.5 SFRSYM    DATA     BIT       CAPES
      000000FDH   SFRSYM    DATA     BYTE      MADRH
      0000008EH   SFRSYM    DATA     BYTE      CKCON
      000000F3H   SFRSYM    DATA     BYTE      I2CSBUF
      000000FCH   SFRSYM    DATA     BYTE      MADRL
      000000D0H.5 SFRSYM    DATA     BIT       F0
      000000FBH   SFRSYM    DATA     BYTE      MLOCK
      000000D0H   SFRSYM    DATA     BYTE      PSW
      00000097H   SFRSYM    DATA     BYTE      WDCON
      010036ADH   SYMBOL    CODE     ---       SystemPeripheralCTRL
LX51 LINKER/LOCATER V4.66.97.0                                                        11/09/2024  20:20:28  PAGE 79



      010036ADH   BLOCK     CODE     ---       LVL=0
      00000022H.0 SYMBOL    BIT      BIT       IsEnable
      010036ADH   LINE      CODE     ---       #20
      010036ADH   LINE      CODE     ---       #21
      010036ADH   LINE      CODE     ---       #22
      010036B0H   LINE      CODE     ---       #23
      010036B0H   LINE      CODE     ---       #24
      010036B3H   LINE      CODE     ---       #25
      010036B6H   LINE      CODE     ---       #26
      010036B9H   LINE      CODE     ---       #27
      010036BCH   LINE      CODE     ---       #28
      010036C1H   LINE      CODE     ---       #29
      010036C4H   LINE      CODE     ---       #31
      010036C4H   LINE      CODE     ---       #33
      010036C7H   LINE      CODE     ---       #34
      010036CCH   LINE      CODE     ---       #35
      010036CFH   LINE      CODE     ---       #36
      010036D2H   LINE      CODE     ---       #37
      010036D5H   LINE      CODE     ---       #38
      ---         BLOCKEND  ---      ---       LVL=0

      01002B15H   BLOCK     CODE     ---       LVL=0
      01002B15H   BLOCK     CODE     NEAR LAB  LVL=1
      00000023H   SYMBOL    DATA     INT       i
      ---         BLOCKEND  ---      ---       LVL=1
      01002B15H   LINE      CODE     ---       #41
      01002B15H   LINE      CODE     ---       #42
      01002B15H   LINE      CODE     ---       #45
      01002B26H   LINE      CODE     ---       #46
      01002B26H   LINE      CODE     ---       #47
      01002B2DH   LINE      CODE     ---       #49
      01002B2DH   LINE      CODE     ---       #51
      01002B3AH   LINE      CODE     ---       #52
      01002B3AH   LINE      CODE     ---       #53
      01002B43H   LINE      CODE     ---       #55
      01002B43H   LINE      CODE     ---       #57
      01002B48H   LINE      CODE     ---       #58
      01002B4EH   LINE      CODE     ---       #60
      01002B51H   LINE      CODE     ---       #61
      01002B56H   LINE      CODE     ---       #62
      01002B59H   LINE      CODE     ---       #64
      01002B59H   LINE      CODE     ---       #65
      01002B60H   LINE      CODE     ---       #66
      01002B63H   LINE      CODE     ---       #67
      01002B63H   LINE      CODE     ---       #68
      01002B68H   LINE      CODE     ---       #70
      01002B6DH   LINE      CODE     ---       #72
      01002B72H   LINE      CODE     ---       #73
      01002B72H   LINE      CODE     ---       #74
      01002B75H   LINE      CODE     ---       #75
      01002B78H   LINE      CODE     ---       #76
      01002B7BH   LINE      CODE     ---       #77
      01002B8EH   LINE      CODE     ---       #78
      01002B9BH   LINE      CODE     ---       #80
      01002BA0H   LINE      CODE     ---       #81
      ---         BLOCKEND  ---      ---       LVL=0

      ---         MODULE    ---      ---       MODECONTROL
      0000005DH   PUBLIC    DATA     ---       CurrentMode
      02000037H   PUBLIC    XDATA    CHAR      SOSTIM
      00000020H.4 PUBLIC    BIT      BIT       IsTacMode
      02000033H   PUBLIC    XDATA    FLOAT     TargetCurrent
      02000032H   PUBLIC    XDATA    CHAR      ClickHoldReverseGearTIM
      02000031H   PUBLIC    XDATA    CHAR      HoldChangeGearTIM
LX51 LINKER/LOCATER V4.66.97.0                                                        11/09/2024  20:20:28  PAGE 80


      02000030H   PUBLIC    XDATA    BYTE      MoonCfg
      0200002FH   PUBLIC    XDATA    BYTE      ErrCode
      00000059H   PUBLIC    DATA     ---       RampCfg
      0200002EH   PUBLIC    XDATA    BYTE      LastMode
      0200002DH   PUBLIC    XDATA    CHAR      DisplayLockedTIM
      0200002CH   PUBLIC    XDATA    CHAR      MoonCfgTIM
      00000020H.3 PUBLIC    BIT      BIT       IsLocked
      0200002BH   PUBLIC    XDATA    CHAR      BattAlertTimer
      00000020H.2 PUBLIC    BIT      BIT       IsEnableMoonConfigMode
      00000020H.1 PUBLIC    BIT      BIT       IsRampEnabled
      01003B2DH   PUBLIC    CONST    ---       ModeSettings
      01000846H   PUBLIC    CODE     ---       ModeSwitchFSM
      01002D99H   PUBLIC    CODE     ---       HoldSwitchGearCmdHandler
      01003845H   PUBLIC    CODE     ---       ReturnToOFFState
      01002D25H   PUBLIC    CODE     ---       _SwitchToGear
      010030D3H   PUBLIC    CODE     ---       ModeFSMTIMHandler
      010033D8H   PUBLIC    CODE     ---       MoonConfigHandler
      0100378CH   PUBLIC    CODE     ---       ModeFSMInit
      010038FAH   SYMBOL    CODE     ---       _SideKey1HRevGearHandler
      01002094H   SYMBOL    CODE     ---       SOSFSM
      01002C28H   SYMBOL    CODE     ---       RampAdjHandler
      010038EAH   SYMBOL    CODE     ---       _SideKeySwitchGearHandler
      01002FB9H   SYMBOL    CODE     ---       _BatteryLowAlertProcess
      02000038H   SYMBOL    XDATA    BYTE      SOSState

      01001FD5H   BLOCK     CODE     ---       LVL=0
      ---         BLOCKEND  ---      ---       LVL=0

      0100378CH   BLOCK     CODE     ---       LVL=0
      0100378CH   LINE      CODE     ---       #137
      0100378CH   LINE      CODE     ---       #138
      0100378CH   LINE      CODE     ---       #139
      0100378FH   LINE      CODE     ---       #140
      01003792H   LINE      CODE     ---       #142
      01003797H   LINE      CODE     ---       #143
      0100379DH   LINE      CODE     ---       #144
      010037A0H   LINE      CODE     ---       #145
      010037A9H   LINE      CODE     ---       #146
      010037ABH   LINE      CODE     ---       #147
      010037ADH   LINE      CODE     ---       #148
      ---         BLOCKEND  ---      ---       LVL=0

      01002094H   BLOCK     CODE     ---       LVL=0
      01002094H   BLOCK     CODE     NEAR LAB  LVL=1
      00000025H   SYMBOL    DATA     INT       buf
      ---         BLOCKEND  ---      ---       LVL=1
      01002094H   LINE      CODE     ---       #151
      01002094H   LINE      CODE     ---       #152
      01002094H   LINE      CODE     ---       #154
      010020BCH   LINE      CODE     ---       #155
      010020BCH   LINE      CODE     ---       #157
      010020BCH   LINE      CODE     ---       #158
      010020C2H   LINE      CODE     ---       #159
      010020C6H   LINE      CODE     ---       #160
      010020C9H   LINE      CODE     ---       #162
      010020C9H   LINE      CODE     ---       #163
      010020C9H   LINE      CODE     ---       #164
      010020D3H   LINE      CODE     ---       #165
      010020D8H   LINE      CODE     ---       #166
      010020D8H   LINE      CODE     ---       #167
      010020DEH   LINE      CODE     ---       #168
      010020E2H   LINE      CODE     ---       #169
      010020E2H   LINE      CODE     ---       #170
      010020E4H   LINE      CODE     ---       #172
      010020E4H   LINE      CODE     ---       #173
LX51 LINKER/LOCATER V4.66.97.0                                                        11/09/2024  20:20:28  PAGE 81


      010020E9H   LINE      CODE     ---       #174
      010020ECH   LINE      CODE     ---       #175
      010020F0H   LINE      CODE     ---       #176
      010020F2H   LINE      CODE     ---       #178
      010020F2H   LINE      CODE     ---       #179
      010020F5H   LINE      CODE     ---       #180
      01002101H   LINE      CODE     ---       #181
      01002106H   LINE      CODE     ---       #182
      01002106H   LINE      CODE     ---       #183
      0100210CH   LINE      CODE     ---       #184
      01002110H   LINE      CODE     ---       #185
      01002110H   LINE      CODE     ---       #186
      01002112H   LINE      CODE     ---       #188
      01002112H   LINE      CODE     ---       #189
      01002117H   LINE      CODE     ---       #190
      0100211AH   LINE      CODE     ---       #191
      0100211EH   LINE      CODE     ---       #192
      01002120H   LINE      CODE     ---       #194
      01002120H   LINE      CODE     ---       #195
      01002120H   LINE      CODE     ---       #196
      0100212FH   LINE      CODE     ---       #197
      01002134H   LINE      CODE     ---       #198
      01002134H   LINE      CODE     ---       #199
      0100213AH   LINE      CODE     ---       #200
      0100213EH   LINE      CODE     ---       #201
      0100213EH   LINE      CODE     ---       #202
      01002140H   LINE      CODE     ---       #204
      01002140H   LINE      CODE     ---       #205
      01002145H   LINE      CODE     ---       #206
      01002148H   LINE      CODE     ---       #207
      01002148H   LINE      CODE     ---       #208
      01002148H   LINE      CODE     ---       #210
      0100214CH   LINE      CODE     ---       #211
      ---         BLOCKEND  ---      ---       LVL=0

      010033D8H   BLOCK     CODE     ---       LVL=0
      010033D8H   BLOCK     CODE     NEAR LAB  LVL=1
      00000006H   SYMBOL    DATA     INT       buf
      ---         BLOCKEND  ---      ---       LVL=1
      010033D8H   LINE      CODE     ---       #214
      010033D8H   LINE      CODE     ---       #215
      010033D8H   LINE      CODE     ---       #218
      010033E8H   LINE      CODE     ---       #221
      010033E8H   LINE      CODE     ---       #222
      010033EEH   LINE      CODE     ---       #223
      010033FCH   LINE      CODE     ---       #224
      010033FEH   LINE      CODE     ---       #226
      01003403H   LINE      CODE     ---       #227
      01003411H   LINE      CODE     ---       #228
      01003413H   LINE      CODE     ---       #229
      01003418H   LINE      CODE     ---       #230
      01003418H   LINE      CODE     ---       #231
      ---         BLOCKEND  ---      ---       LVL=0

      010030D3H   BLOCK     CODE     ---       LVL=0
      010030D3H   BLOCK     CODE     NEAR LAB  LVL=1
      00000006H   SYMBOL    DATA     CHAR      buf
      ---         BLOCKEND  ---      ---       LVL=1
      010030D3H   LINE      CODE     ---       #234
      010030D3H   LINE      CODE     ---       #235
      010030D3H   LINE      CODE     ---       #238
      010030DBH   LINE      CODE     ---       #240
      010030EBH   LINE      CODE     ---       #241
      010030F5H   LINE      CODE     ---       #243
      01003100H   LINE      CODE     ---       #245
LX51 LINKER/LOCATER V4.66.97.0                                                        11/09/2024  20:20:28  PAGE 82


      01003108H   LINE      CODE     ---       #246
      01003108H   LINE      CODE     ---       #247
      0100310BH   LINE      CODE     ---       #248
      0100310FH   LINE      CODE     ---       #249
      01003121H   LINE      CODE     ---       #250
      01003127H   LINE      CODE     ---       #251
      01003128H   LINE      CODE     ---       #252
      0100312DH   LINE      CODE     ---       #253
      ---         BLOCKEND  ---      ---       LVL=0

      01002D25H   BLOCK     CODE     ---       LVL=0
      0000002FH   SYMBOL    DATA     BYTE      TargetMode
      01002D27H   BLOCK     CODE     NEAR LAB  LVL=1
      00000030H   SYMBOL    DATA     INT       i
      00000032H   SYMBOL    DATA     BYTE      BeforeMode
      ---         BLOCKEND  ---      ---       LVL=1
      01002D25H   LINE      CODE     ---       #256
      01002D27H   LINE      CODE     ---       #257
      01002D27H   LINE      CODE     ---       #260
      01002D2CH   LINE      CODE     ---       #261
      01002D4CH   LINE      CODE     ---       #262
      01002D4CH   LINE      CODE     ---       #263
      01002D50H   LINE      CODE     ---       #264
      01002D68H   LINE      CODE     ---       #265
      01002D82H   LINE      CODE     ---       #266
      01002D86H   LINE      CODE     ---       #267
      01002D94H   LINE      CODE     ---       #269
      01002D98H   LINE      CODE     ---       #270
      ---         BLOCKEND  ---      ---       LVL=0

      01003845H   BLOCK     CODE     ---       LVL=0
      01003845H   LINE      CODE     ---       #273
      01003845H   LINE      CODE     ---       #274
      01003845H   LINE      CODE     ---       #275
      0100384BH   LINE      CODE     ---       #276
      01003858H   LINE      CODE     ---       #277
      0100385DH   LINE      CODE     ---       #278
      ---         BLOCKEND  ---      ---       LVL=0

      01002FB9H   BLOCK     CODE     ---       LVL=0
      00000007H   SYMBOL    DATA     BYTE      IsNeedToShutOff
      00000025H   SYMBOL    DATA     BYTE      ModeJump
      01002FBBH   BLOCK     CODE     NEAR LAB  LVL=1
      00000026H   SYMBOL    DATA     CHAR      time
      00000027H   SYMBOL    DATA     CHAR      Thr
      ---         BLOCKEND  ---      ---       LVL=1
      01002FB9H   LINE      CODE     ---       #281
      01002FBBH   LINE      CODE     ---       #282
      01002FBBH   LINE      CODE     ---       #284
      01002FC1H   LINE      CODE     ---       #285
      01002FC1H   LINE      CODE     ---       #286
      01002FC7H   LINE      CODE     ---       #288
      01002FC7H   LINE      CODE     ---       #289
      01002FD7H   LINE      CODE     ---       #290
      01002FDFH   LINE      CODE     ---       #291
      01002FE7H   LINE      CODE     ---       #292
      01002FEAH   LINE      CODE     ---       #294
      01003001H   LINE      CODE     ---       #296
      0100300EH   LINE      CODE     ---       #297
      0100300EH   LINE      CODE     ---       #298
      01003014H   LINE      CODE     ---       #299
      01003019H   LINE      CODE     ---       #300
      01003019H   LINE      CODE     ---       #301
      ---         BLOCKEND  ---      ---       LVL=0

LX51 LINKER/LOCATER V4.66.97.0                                                        11/09/2024  20:20:28  PAGE 83


      01002D99H   BLOCK     CODE     ---       LVL=0
      01002D99H   BLOCK     CODE     NEAR LAB  LVL=1
      00000023H   SYMBOL    DATA     CHAR      buf
      ---         BLOCKEND  ---      ---       LVL=1
      01002D99H   LINE      CODE     ---       #304
      01002D99H   LINE      CODE     ---       #305
      01002D99H   LINE      CODE     ---       #307
      01002DAAH   LINE      CODE     ---       #309
      01002DAAH   LINE      CODE     ---       #310
      01002DADH   LINE      CODE     ---       #311
      01002DB9H   LINE      CODE     ---       #312
      01002DBCH   LINE      CODE     ---       #313
      01002DC9H   LINE      CODE     ---       #314
      01002DCCH   LINE      CODE     ---       #315
      01002DD3H   LINE      CODE     ---       #316
      01002DD3H   LINE      CODE     ---       #318
      01002DE3H   LINE      CODE     ---       #320
      01002DE3H   LINE      CODE     ---       #321
      01002DE6H   LINE      CODE     ---       #322
      01002DF2H   LINE      CODE     ---       #323
      01002DF5H   LINE      CODE     ---       #324
      01002E02H   LINE      CODE     ---       #325
      01002E05H   LINE      CODE     ---       #326
      01002E0CH   LINE      CODE     ---       #327
      01002E0CH   LINE      CODE     ---       #328
      ---         BLOCKEND  ---      ---       LVL=0

      010038EAH   BLOCK     CODE     ---       LVL=0
      00000003H   SYMBOL    DATA     BYTE      TargetMode
      010038EAH   LINE      CODE     ---       #331
      010038EAH   LINE      CODE     ---       #332
      010038EAH   LINE      CODE     ---       #333
      010038F2H   LINE      CODE     ---       #334
      010038F6H   LINE      CODE     ---       #335
      010038F9H   LINE      CODE     ---       #336
      ---         BLOCKEND  ---      ---       LVL=0

      010038FAH   BLOCK     CODE     ---       LVL=0
      00000003H   SYMBOL    DATA     BYTE      TargetMode
      010038FAH   LINE      CODE     ---       #339
      010038FAH   LINE      CODE     ---       #340
      010038FAH   LINE      CODE     ---       #341
      01003902H   LINE      CODE     ---       #342
      01003906H   LINE      CODE     ---       #343
      01003909H   LINE      CODE     ---       #344
      ---         BLOCKEND  ---      ---       LVL=0

      01002C28H   BLOCK     CODE     ---       LVL=0
      01002C28H   BLOCK     CODE     NEAR LAB  LVL=1
      00000020H.0 SYMBOL    BIT      BIT       IsKeyPressed
      ---         BLOCKEND  ---      ---       LVL=1
      01002C28H   LINE      CODE     ---       #347
      01002C28H   LINE      CODE     ---       #348
      01002C28H   LINE      CODE     ---       #351
      01002C39H   LINE      CODE     ---       #352
      01002C4FH   LINE      CODE     ---       #353
      01002C5EH   LINE      CODE     ---       #355
      01002C6FH   LINE      CODE     ---       #356
      01002C6FH   LINE      CODE     ---       #357
      01002C6FH   LINE      CODE     ---       #358
      01002C6FH   LINE      CODE     ---       #359
      01002C72H   LINE      CODE     ---       #360
      01002C72H   LINE      CODE     ---       #362
      01002C86H   LINE      CODE     ---       #363
      01002C86H   LINE      CODE     ---       #364
LX51 LINKER/LOCATER V4.66.97.0                                                        11/09/2024  20:20:28  PAGE 84


      01002C86H   LINE      CODE     ---       #365
      01002C86H   LINE      CODE     ---       #366
      01002C89H   LINE      CODE     ---       #367
      01002C89H   LINE      CODE     ---       #369
      01002C97H   LINE      CODE     ---       #370
      01002CA4H   LINE      CODE     ---       #371
      01002CA4H   LINE      CODE     ---       #372
      01002CA6H   LINE      CODE     ---       #373
      01002CABH   LINE      CODE     ---       #374
      01002CABH   LINE      CODE     ---       #375
      ---         BLOCKEND  ---      ---       LVL=0

      01000846H   BLOCK     CODE     ---       LVL=0
      01000846H   BLOCK     CODE     NEAR LAB  LVL=1
      00000022H.0 SYMBOL    BIT      BIT       IsHoldEvent
      00000023H   SYMBOL    DATA     INT       ClickCount
      ---         BLOCKEND  ---      ---       LVL=1
      01000846H   LINE      CODE     ---       #380
      01000846H   LINE      CODE     ---       #381
      01000846H   LINE      CODE     ---       #389
      0100084BH   LINE      CODE     ---       #390
      01000854H   LINE      CODE     ---       #392
      01000869H   LINE      CODE     ---       #394
      0100087DH   LINE      CODE     ---       #395
      010008B0H   LINE      CODE     ---       #396
      010008B0H   LINE      CODE     ---       #398
      010008B0H   LINE      CODE     ---       #399
      010008B2H   LINE      CODE     ---       #400
      010008C3H   LINE      CODE     ---       #401
      010008C5H   LINE      CODE     ---       #402
      010008C6H   LINE      CODE     ---       #403
      010008C9H   LINE      CODE     ---       #405
      010008C9H   LINE      CODE     ---       #406
      010008D1H   LINE      CODE     ---       #407
      010008D1H   LINE      CODE     ---       #408
      010008D3H   LINE      CODE     ---       #409
      010008DAH   LINE      CODE     ---       #410
      010008E0H   LINE      CODE     ---       #411
      010008E2H   LINE      CODE     ---       #412
      010008FAH   LINE      CODE     ---       #414
      01000900H   LINE      CODE     ---       #416
      01000908H   LINE      CODE     ---       #417
      01000908H   LINE      CODE     ---       #418
      0100090FH   LINE      CODE     ---       #419
      01000915H   LINE      CODE     ---       #420
      01000915H   LINE      CODE     ---       #421
      01000918H   LINE      CODE     ---       #422
      01000918H   LINE      CODE     ---       #423
      01000920H   LINE      CODE     ---       #424
      0100092EH   LINE      CODE     ---       #425
      0100093FH   LINE      CODE     ---       #428
      0100093FH   LINE      CODE     ---       #430
      01000947H   LINE      CODE     ---       #431
      01000947H   LINE      CODE     ---       #432
      01000962H   LINE      CODE     ---       #433
      01000971H   LINE      CODE     ---       #434
      01000974H   LINE      CODE     ---       #435
      01000977H   LINE      CODE     ---       #436
      0100097CH   LINE      CODE     ---       #437
      0100097CH   LINE      CODE     ---       #438
      01000982H   LINE      CODE     ---       #439
      0100098EH   LINE      CODE     ---       #440
      0100099AH   LINE      CODE     ---       #441
      0100099DH   LINE      CODE     ---       #442
      010009A5H   LINE      CODE     ---       #443
LX51 LINKER/LOCATER V4.66.97.0                                                        11/09/2024  20:20:28  PAGE 85


      010009AFH   LINE      CODE     ---       #444
      010009B7H   LINE      CODE     ---       #445
      010009B7H   LINE      CODE     ---       #446
      010009BEH   LINE      CODE     ---       #447
      010009C7H   LINE      CODE     ---       #448
      010009CCH   LINE      CODE     ---       #449
      010009CFH   LINE      CODE     ---       #450
      010009DAH   LINE      CODE     ---       #451
      010009DDH   LINE      CODE     ---       #453
      010009DDH   LINE      CODE     ---       #454
      010009DFH   LINE      CODE     ---       #455
      010009E4H   LINE      CODE     ---       #456
      010009E4H   LINE      CODE     ---       #457
      010009ECH   LINE      CODE     ---       #458
      010009EEH   LINE      CODE     ---       #459
      010009F1H   LINE      CODE     ---       #460
      010009F1H   LINE      CODE     ---       #461
      010009F7H   LINE      CODE     ---       #463
      01000A01H   LINE      CODE     ---       #464
      01000A17H   LINE      CODE     ---       #465
      01000A17H   LINE      CODE     ---       #466
      01000A21H   LINE      CODE     ---       #467
      01000A27H   LINE      CODE     ---       #468
      01000A2EH   LINE      CODE     ---       #469
      01000A31H   LINE      CODE     ---       #470
      01000A31H   LINE      CODE     ---       #471
      01000A34H   LINE      CODE     ---       #473
      01000A34H   LINE      CODE     ---       #474
      01000A36H   LINE      CODE     ---       #475
      01000A46H   LINE      CODE     ---       #476
      01000A53H   LINE      CODE     ---       #477
      01000A5DH   LINE      CODE     ---       #479
      01000A60H   LINE      CODE     ---       #480
      01000A63H   LINE      CODE     ---       #482
      01000A63H   LINE      CODE     ---       #483
      01000A65H   LINE      CODE     ---       #484
      01000A75H   LINE      CODE     ---       #485
      01000A82H   LINE      CODE     ---       #486
      01000A8CH   LINE      CODE     ---       #488
      01000A8EH   LINE      CODE     ---       #489
      01000A91H   LINE      CODE     ---       #491
      01000A91H   LINE      CODE     ---       #492
      01000A93H   LINE      CODE     ---       #493
      01000AA3H   LINE      CODE     ---       #494
      01000AB0H   LINE      CODE     ---       #495
      01000ABAH   LINE      CODE     ---       #497
      01000ABFH   LINE      CODE     ---       #498
      01000AC1H   LINE      CODE     ---       #499
      01000AC3H   LINE      CODE     ---       #501
      01000AC3H   LINE      CODE     ---       #502
      01000AC5H   LINE      CODE     ---       #503
      01000AD5H   LINE      CODE     ---       #504
      01000AE2H   LINE      CODE     ---       #505
      01000AECH   LINE      CODE     ---       #507
      01000AF1H   LINE      CODE     ---       #508
      01000AF3H   LINE      CODE     ---       #509
      01000AF5H   LINE      CODE     ---       #511
      01000AF5H   LINE      CODE     ---       #512
      01000AF7H   LINE      CODE     ---       #513
      01000B07H   LINE      CODE     ---       #514
      01000B14H   LINE      CODE     ---       #515
      01000B1EH   LINE      CODE     ---       #517
      01000B23H   LINE      CODE     ---       #518
      01000B28H   LINE      CODE     ---       #519
      01000B2BH   LINE      CODE     ---       #521
LX51 LINKER/LOCATER V4.66.97.0                                                        11/09/2024  20:20:28  PAGE 86


      01000B2BH   LINE      CODE     ---       #522
      01000B2DH   LINE      CODE     ---       #523
      01000B3DH   LINE      CODE     ---       #524
      01000B4FH   LINE      CODE     ---       #525
      01000B59H   LINE      CODE     ---       #526
      01000B5BH   LINE      CODE     ---       #528
      01000B5BH   LINE      CODE     ---       #529
      01000B5DH   LINE      CODE     ---       #530
      01000B6DH   LINE      CODE     ---       #531
      01000B7AH   LINE      CODE     ---       #532
      01000B89H   LINE      CODE     ---       #534
      01000B8BH   LINE      CODE     ---       #535
      01000B8DH   LINE      CODE     ---       #537
      01000B8DH   LINE      CODE     ---       #538
      01000B94H   LINE      CODE     ---       #539
      01000BA7H   LINE      CODE     ---       #540
      01000BB4H   LINE      CODE     ---       #541
      01000BC3H   LINE      CODE     ---       #543
      01000BC8H   LINE      CODE     ---       #544
      01000BC8H   LINE      CODE     ---       #545
      01000BC8H   LINE      CODE     ---       #547
      01000BDDH   LINE      CODE     ---       #548
      01000BE9H   LINE      CODE     ---       #549
      01000BFEH   LINE      CODE     ---       #550
      01000C0BH   LINE      CODE     ---       #551
      01000C1BH   LINE      CODE     ---       #552
      01000C39H   LINE      CODE     ---       #553
      01000C39H   LINE      CODE     ---       #554
      01000C45H   LINE      CODE     ---       #555
      01000C51H   LINE      CODE     ---       #556
      01000C5DH   LINE      CODE     ---       #557
      01000C69H   LINE      CODE     ---       #558
      01000C75H   LINE      CODE     ---       #559
      01000C80H   LINE      CODE     ---       #560
      01000C80H   LINE      CODE     ---       #561
      01000C90H   LINE      CODE     ---       #563
      01000CACH   LINE      CODE     ---       #564
      ---         BLOCKEND  ---      ---       LVL=0

      ---         MODULE    ---      ---       RAMPCONFIG
      01003B90H   PUBLIC    CONST    ---       VendorString
      00000022H.1 PUBLIC    BIT      BIT       ?SaveRampConfig?BIT
      01001F13H   PUBLIC    CODE     ---       SaveRampConfig
      010034D3H   PUBLIC    CODE     ---       RestoreToMinimumRampCurrent
      0100294CH   PUBLIC    CODE     ---       ReadRampConfig
      000000C8H.0 SFRSYM    DATA     BIT       T2I0
      000000C3H   SFRSYM    DATA     BYTE      CCH1
      00000080H   SFRSYM    DATA     BYTE      P0
      000000C8H.1 SFRSYM    DATA     BIT       T2I1
      000000C5H   SFRSYM    DATA     BYTE      CCH2
      00000090H   SFRSYM    DATA     BYTE      P1
      000000C7H   SFRSYM    DATA     BYTE      CCH3
      000000ACH   SFRSYM    DATA     BYTE      P0EXTIE
      000000A0H   SFRSYM    DATA     BYTE      P2
      000000B4H   SFRSYM    DATA     BYTE      P0EXTIF
      000000B0H   SFRSYM    DATA     BYTE      P3
      000000ADH   SFRSYM    DATA     BYTE      P1EXTIE
      000000D0H.6 SFRSYM    DATA     BIT       AC
      000000FFH   SFRSYM    DATA     BYTE      MCTRL
      000000C2H   SFRSYM    DATA     BYTE      CCL1
      000000B5H   SFRSYM    DATA     BYTE      P1EXTIF
      000000AEH   SFRSYM    DATA     BYTE      P2EXTIE
      000000C4H   SFRSYM    DATA     BYTE      CCL2
      000000B6H   SFRSYM    DATA     BYTE      P2EXTIF
      000000AFH   SFRSYM    DATA     BYTE      P3EXTIE
LX51 LINKER/LOCATER V4.66.97.0                                                        11/09/2024  20:20:28  PAGE 87


      000000A8H.7 SFRSYM    DATA     BIT       EA
      000000C6H   SFRSYM    DATA     BYTE      CCL3
      000000B7H   SFRSYM    DATA     BYTE      P3EXTIF
      000000AAH   SFRSYM    DATA     BYTE      EIE2
      000000B2H   SFRSYM    DATA     BYTE      EIF2
      000000C8H.3 SFRSYM    DATA     BIT       T2R0
      000000C8H.4 SFRSYM    DATA     BIT       T2R1
      00000083H   SFRSYM    DATA     BYTE      DPH0
      000000A8H   SFRSYM    DATA     BYTE      IE
      00000085H   SFRSYM    DATA     BYTE      DPH1
      000000B9H   SFRSYM    DATA     BYTE      EIP1
      000000BAH   SFRSYM    DATA     BYTE      EIP2
      00000082H   SFRSYM    DATA     BYTE      DPL0
      00000084H   SFRSYM    DATA     BYTE      DPL1
      000000C8H.6 SFRSYM    DATA     BIT       I3FR
      000000CFH   SFRSYM    DATA     BYTE      T2IE
      00000096H   SFRSYM    DATA     BYTE      TA
      000000C9H   SFRSYM    DATA     BYTE      T2IF
      000000C8H.2 SFRSYM    DATA     BIT       T2CM
      000000DFH   SFRSYM    DATA     BYTE      ADCON0
      000000DEH   SFRSYM    DATA     BYTE      ADCON1
      000000E9H   SFRSYM    DATA     BYTE      ADCON2
      000000B8H   SFRSYM    DATA     BYTE      IP
      000000CEH   SFRSYM    DATA     BYTE      CCEN
      000000D0H.7 SFRSYM    DATA     BIT       CY
      000000D2H   SFRSYM    DATA     BYTE      T34MOD
      00000093H   SFRSYM    DATA     BYTE      DPX0
      00000095H   SFRSYM    DATA     BYTE      DPX1
      000000F4H   SFRSYM    DATA     BYTE      I2CMSA
      000000F5H   SFRSYM    DATA     BYTE      I2CMCR
      00000081H   SFRSYM    DATA     BYTE      SP
      000000D0H.2 SFRSYM    DATA     BIT       OV
      000000F2H   SFRSYM    DATA     BYTE      I2CSCR
      000000C8H.7 SFRSYM    DATA     BIT       T2PS
      000000D1H   SFRSYM    DATA     BYTE      ADCMPC
      000000CBH   SFRSYM    DATA     BYTE      RLDH
      000000D5H   SFRSYM    DATA     BYTE      ADCMPH
      000000CAH   SFRSYM    DATA     BYTE      RLDL
      00000080H.0 SFRSYM    DATA     BIT       P00
      00000090H.0 SFRSYM    DATA     BIT       P10
      00000080H.1 SFRSYM    DATA     BIT       P01
      000000F7H   SFRSYM    DATA     BYTE      I2CMTP
      00000099H   SFRSYM    DATA     BYTE      SBUF
      00000087H   SFRSYM    DATA     BYTE      PCON
      000000A0H.0 SFRSYM    DATA     BIT       P20
      00000090H.1 SFRSYM    DATA     BIT       P11
      00000080H.2 SFRSYM    DATA     BIT       P02
      000000F5H   SFRSYM    DATA     BYTE      I2CMSR
      000000B0H.0 SFRSYM    DATA     BIT       P30
      000000A0H.1 SFRSYM    DATA     BIT       P21
      00000090H.2 SFRSYM    DATA     BIT       P12
      00000080H.3 SFRSYM    DATA     BIT       P03
      000000D4H   SFRSYM    DATA     BYTE      ADCMPL
      000000B0H.1 SFRSYM    DATA     BIT       P31
      000000A0H.2 SFRSYM    DATA     BIT       P22
      00000090H.3 SFRSYM    DATA     BIT       P13
      00000080H.4 SFRSYM    DATA     BIT       P04
      000000B0H.2 SFRSYM    DATA     BIT       P32
      000000A0H.3 SFRSYM    DATA     BIT       P23
      00000090H.4 SFRSYM    DATA     BIT       P14
      00000080H.5 SFRSYM    DATA     BIT       P05
      00000089H   SFRSYM    DATA     BYTE      TMOD
      00000088H   SFRSYM    DATA     BYTE      TCON
      000000B0H.3 SFRSYM    DATA     BIT       P33
      000000A0H.4 SFRSYM    DATA     BIT       P24
LX51 LINKER/LOCATER V4.66.97.0                                                        11/09/2024  20:20:28  PAGE 88


      00000090H.5 SFRSYM    DATA     BIT       P15
      00000080H.6 SFRSYM    DATA     BIT       P06
      000000B0H.4 SFRSYM    DATA     BIT       P34
      000000A0H.5 SFRSYM    DATA     BIT       P25
      00000090H.6 SFRSYM    DATA     BIT       P16
      00000080H.7 SFRSYM    DATA     BIT       P07
      000000B0H.5 SFRSYM    DATA     BIT       P35
      000000A0H.6 SFRSYM    DATA     BIT       P26
      00000090H.7 SFRSYM    DATA     BIT       P17
      000000F2H   SFRSYM    DATA     BYTE      I2CSSR
      000000B0H.6 SFRSYM    DATA     BIT       P36
      000000A0H.7 SFRSYM    DATA     BIT       P27
      000000ECH   SFRSYM    DATA     BYTE      SPCR
      000000DDH   SFRSYM    DATA     BYTE      ADRESH
      000000B0H.7 SFRSYM    DATA     BIT       P37
      000000EEH   SFRSYM    DATA     BYTE      SPDR
      000000EFH   SFRSYM    DATA     BYTE      SSCR
      000000D3H   SFRSYM    DATA     BYTE      ADDLYL
      000000DCH   SFRSYM    DATA     BYTE      ADRESL
      00000088H.1 SFRSYM    DATA     BIT       IE0
      00000088H.3 SFRSYM    DATA     BIT       IE1
      0000008FH   SFRSYM    DATA     BYTE      CLKDIV
      000000F0H   SFRSYM    DATA     BYTE      B
      00000091H   SFRSYM    DATA     BYTE      FUNCCR
      0000009AH   SFRSYM    DATA     BYTE      P0TRIS
      000000A1H   SFRSYM    DATA     BYTE      P1TRIS
      000000A2H   SFRSYM    DATA     BYTE      P2TRIS
      000000E0H   SFRSYM    DATA     BYTE      ACC
      000000A3H   SFRSYM    DATA     BYTE      P3TRIS
      000000A8H.4 SFRSYM    DATA     BIT       ES0
      000000A8H.6 SFRSYM    DATA     BIT       ES1
      000000A8H.1 SFRSYM    DATA     BIT       ET0
      000000EDH   SFRSYM    DATA     BYTE      SPSR
      000000A8H.3 SFRSYM    DATA     BIT       ET1
      00000088H.5 SFRSYM    DATA     BIT       TF0
      000000A8H.5 SFRSYM    DATA     BIT       ET2
      00000098H.0 SFRSYM    DATA     BIT       RI0
      00000088H.7 SFRSYM    DATA     BIT       TF1
      0000008CH   SFRSYM    DATA     BYTE      TH0
      000000A8H.0 SFRSYM    DATA     BIT       EX0
      00000098H.1 SFRSYM    DATA     BIT       TI0
      00000088H.0 SFRSYM    DATA     BIT       IT0
      0000008DH   SFRSYM    DATA     BYTE      TH1
      000000A8H.2 SFRSYM    DATA     BIT       EX1
      00000088H.2 SFRSYM    DATA     BIT       IT1
      000000CDH   SFRSYM    DATA     BYTE      TH2
      000000D0H.0 SFRSYM    DATA     BIT       P
      000000DBH   SFRSYM    DATA     BYTE      TH3
      000000E3H   SFRSYM    DATA     BYTE      TH4
      0000008AH   SFRSYM    DATA     BYTE      TL0
      0000008BH   SFRSYM    DATA     BYTE      TL1
      00000098H.2 SFRSYM    DATA     BIT       U0RB8
      000000CCH   SFRSYM    DATA     BYTE      TL2
      000000B8H.4 SFRSYM    DATA     BIT       PS0
      000000DAH   SFRSYM    DATA     BYTE      TL3
      000000BFH   SFRSYM    DATA     BYTE      BUZCON
      000000B8H.6 SFRSYM    DATA     BIT       PS1
      000000B8H.1 SFRSYM    DATA     BIT       PT0
      00000098H.3 SFRSYM    DATA     BIT       U0TB8
      000000E2H   SFRSYM    DATA     BYTE      TL4
      000000D0H.3 SFRSYM    DATA     BIT       RS0
      000000B8H.3 SFRSYM    DATA     BIT       PT1
      000000D0H.4 SFRSYM    DATA     BIT       RS1
      000000B8H.5 SFRSYM    DATA     BIT       PT2
      00000098H.7 SFRSYM    DATA     BIT       U0SM0
LX51 LINKER/LOCATER V4.66.97.0                                                        11/09/2024  20:20:28  PAGE 89


      00000088H.4 SFRSYM    DATA     BIT       TR0
      000000BEH   SFRSYM    DATA     BYTE      BUZDIV
      00000098H.6 SFRSYM    DATA     BIT       U0SM1
      00000088H.6 SFRSYM    DATA     BIT       TR1
      000000B8H.0 SFRSYM    DATA     BIT       PX0
      00000098H.5 SFRSYM    DATA     BIT       U0SM2
      000000B8H.2 SFRSYM    DATA     BIT       PX1
      000000BDH   SFRSYM    DATA     BYTE      WUTCRH
      00000099H   SFRSYM    DATA     BYTE      SBUF0
      000000EBH   SFRSYM    DATA     BYTE      SBUF1
      000000BCH   SFRSYM    DATA     BYTE      WUTCRL
      00000098H   SFRSYM    DATA     BYTE      SCON0
      000000EAH   SFRSYM    DATA     BYTE      SCON1
      000000C8H   SFRSYM    DATA     BYTE      T2CON
      00000086H   SFRSYM    DATA     BYTE      DPS
      000000FEH   SFRSYM    DATA     BYTE      MDATA
      000000F6H   SFRSYM    DATA     BYTE      I2CMBUF
      000000F1H   SFRSYM    DATA     BYTE      I2CSADR
      00000098H.4 SFRSYM    DATA     BIT       U0REN
      000000C8H.5 SFRSYM    DATA     BIT       CAPES
      000000FDH   SFRSYM    DATA     BYTE      MADRH
      0000008EH   SFRSYM    DATA     BYTE      CKCON
      000000F3H   SFRSYM    DATA     BYTE      I2CSBUF
      000000FCH   SFRSYM    DATA     BYTE      MADRL
      000000D0H.5 SFRSYM    DATA     BIT       F0
      000000FBH   SFRSYM    DATA     BYTE      MLOCK
      000000D0H   SFRSYM    DATA     BYTE      PSW
      00000097H   SFRSYM    DATA     BYTE      WDCON
      01001D49H   SYMBOL    CODE     ---       _PEC8Check

      010035AAH   BLOCK     CODE     ---       LVL=0
      ---         BLOCKEND  ---      ---       LVL=0

      01001D49H   BLOCK     CODE     ---       LVL=0
      00000036H   SYMBOL    DATA     ---       DIN
      00000039H   SYMBOL    DATA     LONG      Len
      01001D57H   BLOCK     CODE     NEAR LAB  LVL=1
      0000003DH   SYMBOL    DATA     BYTE      crcbuf
      0000003EH   SYMBOL    DATA     LONG      i
      00000042H   SYMBOL    DATA     LONG      ptr
      ---         BLOCKEND  ---      ---       LVL=1
      01001D49H   LINE      CODE     ---       #10
      01001D57H   LINE      CODE     ---       #11
      01001D57H   LINE      CODE     ---       #12
      01001D5AH   LINE      CODE     ---       #13
      01001D62H   LINE      CODE     ---       #14
      01001D78H   LINE      CODE     ---       #15
      01001D78H   LINE      CODE     ---       #17
      01001D89H   LINE      CODE     ---       #19
      01001D9BH   LINE      CODE     ---       #20
      01001D9BH   LINE      CODE     ---       #21
      01001DA8H   LINE      CODE     ---       #22
      01001DAEH   LINE      CODE     ---       #23
      01001DC8H   LINE      CODE     ---       #25
      01001DE1H   LINE      CODE     ---       #26
      01001DF9H   LINE      CODE     ---       #27
      01001DFCH   LINE      CODE     ---       #29
      01001E31H   LINE      CODE     ---       #31
      01001E33H   LINE      CODE     ---       #32
      ---         BLOCKEND  ---      ---       LVL=0

      0100294CH   BLOCK     CODE     ---       LVL=0
      0100294CH   BLOCK     CODE     NEAR LAB  LVL=1
      00000023H   SYMBOL    DATA     INT       i
      00000025H   SYMBOL    DATA     ---       ROMData
LX51 LINKER/LOCATER V4.66.97.0                                                        11/09/2024  20:20:28  PAGE 90


      ---         BLOCKEND  ---      ---       LVL=1
      0100294CH   LINE      CODE     ---       #35
      0100294CH   LINE      CODE     ---       #36
      0100294CH   LINE      CODE     ---       #41
      0100294EH   LINE      CODE     ---       #42
      0100294FH   LINE      CODE     ---       #43
      01002952H   LINE      CODE     ---       #45
      01002957H   LINE      CODE     ---       #46
      01002957H   LINE      CODE     ---       #47
      0100295AH   LINE      CODE     ---       #48
      0100295FH   LINE      CODE     ---       #49
      01002960H   LINE      CODE     ---       #50
      01002963H   LINE      CODE     ---       #51
      01002964H   LINE      CODE     ---       #52
      01002965H   LINE      CODE     ---       #53
      01002966H   LINE      CODE     ---       #54
      01002967H   LINE      CODE     ---       #55
      01002968H   LINE      CODE     ---       #56
      01002969H   LINE      CODE     ---       #57
      0100296EH   LINE      CODE     ---       #59
      01002975H   LINE      CODE     ---       #60
      01002983H   LINE      CODE     ---       #62
      01002986H   LINE      CODE     ---       #63
      01002987H   LINE      CODE     ---       #64
      01002989H   LINE      CODE     ---       #66
      01002997H   LINE      CODE     ---       #67
      01002997H   LINE      CODE     ---       #69
      0100299DH   LINE      CODE     ---       #70
      010029A3H   LINE      CODE     ---       #71
      010029ABH   LINE      CODE     ---       #72
      010029ACH   LINE      CODE     ---       #75
      010029ACH   LINE      CODE     ---       #76
      010029B1H   LINE      CODE     ---       #77
      010029B7H   LINE      CODE     ---       #78
      010029C5H   LINE      CODE     ---       #79
      010029E0H   LINE      CODE     ---       #80
      010029E2H   LINE      CODE     ---       #81
      010029E7H   LINE      CODE     ---       #82
      010029E7H   LINE      CODE     ---       #83
      ---         BLOCKEND  ---      ---       LVL=0

      010034D3H   BLOCK     CODE     ---       LVL=0
      010034D3H   BLOCK     CODE     NEAR LAB  LVL=1
      00000006H   SYMBOL    DATA     INT       i
      ---         BLOCKEND  ---      ---       LVL=1
      010034D3H   LINE      CODE     ---       #86
      010034D3H   LINE      CODE     ---       #87
      010034D3H   LINE      CODE     ---       #90
      010034D9H   LINE      CODE     ---       #91
      010034EEH   LINE      CODE     ---       #92
      0100350EH   LINE      CODE     ---       #93
      ---         BLOCKEND  ---      ---       LVL=0

      01001F13H   BLOCK     CODE     ---       LVL=0
      00000022H.1 SYMBOL    BIT      BIT       IsForceSave
      01001F13H   BLOCK     CODE     NEAR LAB  LVL=1
      0000002AH   SYMBOL    DATA     INT       i
      0000002CH   SYMBOL    DATA     ---       ROMData
      00000031H   SYMBOL    DATA     ---       SavedData
      ---         BLOCKEND  ---      ---       LVL=1
      01001F13H   LINE      CODE     ---       #96
      01001F13H   LINE      CODE     ---       #97
      01001F13H   LINE      CODE     ---       #101
      01001F15H   LINE      CODE     ---       #102
      01001F16H   LINE      CODE     ---       #103
LX51 LINKER/LOCATER V4.66.97.0                                                        11/09/2024  20:20:28  PAGE 91


      01001F19H   LINE      CODE     ---       #105
      01001F21H   LINE      CODE     ---       #106
      01001F21H   LINE      CODE     ---       #107
      01001F25H   LINE      CODE     ---       #108
      01001F2BH   LINE      CODE     ---       #109
      01001F2CH   LINE      CODE     ---       #110
      01001F2FH   LINE      CODE     ---       #111
      01001F30H   LINE      CODE     ---       #112
      01001F31H   LINE      CODE     ---       #113
      01001F32H   LINE      CODE     ---       #114
      01001F33H   LINE      CODE     ---       #115
      01001F34H   LINE      CODE     ---       #116
      01001F35H   LINE      CODE     ---       #117
      01001F3AH   LINE      CODE     ---       #119
      01001F41H   LINE      CODE     ---       #120
      01001F4FH   LINE      CODE     ---       #122
      01001F55H   LINE      CODE     ---       #123
      01001F5BH   LINE      CODE     ---       #124
      01001F64H   LINE      CODE     ---       #125
      01001F70H   LINE      CODE     ---       #127
      01001F78H   LINE      CODE     ---       #128
      01001F78H   LINE      CODE     ---       #129
      01001F78H   LINE      CODE     ---       #130
      01001F78H   LINE      CODE     ---       #131
      01001F7AH   LINE      CODE     ---       #133
      01001F7AH   LINE      CODE     ---       #135
      01001F7DH   LINE      CODE     ---       #136
      01001F7FH   LINE      CODE     ---       #137
      01001F80H   LINE      CODE     ---       #138
      01001F83H   LINE      CODE     ---       #139
      01001F84H   LINE      CODE     ---       #140
      01001F85H   LINE      CODE     ---       #141
      01001F86H   LINE      CODE     ---       #142
      01001F87H   LINE      CODE     ---       #143
      01001F88H   LINE      CODE     ---       #144
      01001F89H   LINE      CODE     ---       #145
      01001F94H   LINE      CODE     ---       #147
      01001F99H   LINE      CODE     ---       #148
      01001F99H   LINE      CODE     ---       #149
      01001FA2H   LINE      CODE     ---       #151
      01001FA5H   LINE      CODE     ---       #152
      01001FABH   LINE      CODE     ---       #153
      01001FACH   LINE      CODE     ---       #154
      01001FAFH   LINE      CODE     ---       #155
      01001FB0H   LINE      CODE     ---       #156
      01001FB1H   LINE      CODE     ---       #157
      01001FB2H   LINE      CODE     ---       #158
      01001FB3H   LINE      CODE     ---       #159
      01001FB4H   LINE      CODE     ---       #160
      01001FB5H   LINE      CODE     ---       #161
      01001FC0H   LINE      CODE     ---       #162
      01001FCEH   LINE      CODE     ---       #164
      01001FD1H   LINE      CODE     ---       #165
      01001FD2H   LINE      CODE     ---       #166
      01001FD4H   LINE      CODE     ---       #167
      ---         BLOCKEND  ---      ---       LVL=0

      ---         MODULE    ---      ---       SELFTEST
      0200004CH   PUBLIC    XDATA    CHAR      InputDetectTIM
      02000048H   PUBLIC    XDATA    FLOAT     VBattBeforeTurbo
      01002203H   PUBLIC    CODE     ---       OutputFaultDetect
      0100312EH   PUBLIC    CODE     ---       InputFaultDetect
      01002CACH   PUBLIC    CODE     ---       DisplayErrorIDHandler
      01003396H   PUBLIC    CODE     ---       DisplayErrorTIMHandler
      02000046H   SYMBOL    XDATA    INT       ErrDisplayIndex
LX51 LINKER/LOCATER V4.66.97.0                                                        11/09/2024  20:20:28  PAGE 92


      0200004DH   SYMBOL    XDATA    CHAR      ShortDetectTIM

      0100362FH   BLOCK     CODE     ---       LVL=0
      ---         BLOCKEND  ---      ---       LVL=0

      01003396H   BLOCK     CODE     ---       LVL=0
      01003396H   LINE      CODE     ---       #14
      01003396H   LINE      CODE     ---       #15
      01003396H   LINE      CODE     ---       #17
      010033A4H   LINE      CODE     ---       #19
      010033A4H   LINE      CODE     ---       #20
      010033B2H   LINE      CODE     ---       #21
      010033D7H   LINE      CODE     ---       #22
      010033D7H   LINE      CODE     ---       #23
      ---         BLOCKEND  ---      ---       LVL=0

      01002CACH   BLOCK     CODE     ---       LVL=0
      01002CACH   BLOCK     CODE     NEAR LAB  LVL=1
      00000006H   SYMBOL    DATA     INT       buf
      ---         BLOCKEND  ---      ---       LVL=1
      01002CACH   LINE      CODE     ---       #26
      01002CACH   LINE      CODE     ---       #27
      01002CACH   LINE      CODE     ---       #30
      01002CCCH   LINE      CODE     ---       #31
      01002CCCH   LINE      CODE     ---       #32
      01002CD0H   LINE      CODE     ---       #33
      01002CD4H   LINE      CODE     ---       #34
      01002CD6H   LINE      CODE     ---       #35
      01002CD6H   LINE      CODE     ---       #36
      01002CD8H   LINE      CODE     ---       #37
      01002D01H   LINE      CODE     ---       #38
      01002D01H   LINE      CODE     ---       #39
      01002D10H   LINE      CODE     ---       #40
      01002D1FH   LINE      CODE     ---       #41
      01002D1FH   LINE      CODE     ---       #42
      01002D21H   LINE      CODE     ---       #43
      01002D24H   LINE      CODE     ---       #44
      ---         BLOCKEND  ---      ---       LVL=0

      0100312EH   BLOCK     CODE     ---       LVL=0
      0100312EH   LINE      CODE     ---       #47
      0100312EH   LINE      CODE     ---       #48
      0100312EH   LINE      CODE     ---       #49
      0100313BH   LINE      CODE     ---       #50
      0100314FH   LINE      CODE     ---       #51
      0100314FH   LINE      CODE     ---       #52
      01003152H   LINE      CODE     ---       #53
      0100317AH   LINE      CODE     ---       #54
      0100317CH   LINE      CODE     ---       #55
      01003188H   LINE      CODE     ---       #56
      01003188H   LINE      CODE     ---       #57
      ---         BLOCKEND  ---      ---       LVL=0

      01002203H   BLOCK     CODE     ---       LVL=0
      01002203H   BLOCK     CODE     NEAR LAB  LVL=1
      00000023H   SYMBOL    DATA     CHAR      buf
      ---         BLOCKEND  ---      ---       LVL=1
      01002203H   LINE      CODE     ---       #60
      01002203H   LINE      CODE     ---       #61
      01002203H   LINE      CODE     ---       #63
      0100220DH   LINE      CODE     ---       #64
      01002221H   LINE      CODE     ---       #65
      01002221H   LINE      CODE     ---       #66
      01002229H   LINE      CODE     ---       #67
      01002233H   LINE      CODE     ---       #68
LX51 LINKER/LOCATER V4.66.97.0                                                        11/09/2024  20:20:28  PAGE 93


      01002233H   LINE      CODE     ---       #69
      01002243H   LINE      CODE     ---       #70
      0100224AH   LINE      CODE     ---       #71
      0100224CH   LINE      CODE     ---       #72
      01002259H   LINE      CODE     ---       #73
      01002259H   LINE      CODE     ---       #74
      01002268H   LINE      CODE     ---       #75
      0100226FH   LINE      CODE     ---       #76
      01002271H   LINE      CODE     ---       #77
      0100228DH   LINE      CODE     ---       #79
      01002294H   LINE      CODE     ---       #80
      01002297H   LINE      CODE     ---       #82
      0100229CH   LINE      CODE     ---       #83
      010022ABH   LINE      CODE     ---       #84
      010022B7H   LINE      CODE     ---       #85
      010022B7H   LINE      CODE     ---       #86
      ---         BLOCKEND  ---      ---       LVL=0

      ---         MODULE    ---      ---       ?C?FPADD
      01000055H   PUBLIC    CODE     ---       ?C?FPADD
      01000051H   PUBLIC    CODE     ---       ?C?FPSUB

      ---         MODULE    ---      ---       ?C?FPMUL
      01000146H   PUBLIC    CODE     ---       ?C?FPMUL

      ---         MODULE    ---      ---       ?C?FPDIV
      0100024FH   PUBLIC    CODE     ---       ?C?FPDIV

      ---         MODULE    ---      ---       ?C?FPCMP
      010002EEH   PUBLIC    CODE     ---       ?C?FPCMP
      010002ECH   PUBLIC    CODE     ---       ?C?FPCMP3

      ---         MODULE    ---      ---       ?C?FCAST
      0100036FH   PUBLIC    CODE     ---       ?C?FCASTC
      0100036AH   PUBLIC    CODE     ---       ?C?FCASTI
      01000365H   PUBLIC    CODE     ---       ?C?FCASTL

      ---         MODULE    ---      ---       ?C?CASTF
      010003A3H   PUBLIC    CODE     ---       ?C?CASTF

      ---         MODULE    ---      ---       ?C?FPGETOPN
      010003DAH   PUBLIC    CODE     ---       ?C?FPGETOPN2
      0100040FH   PUBLIC    CODE     ---       ?C?FPNANRESULT
      01000419H   PUBLIC    CODE     ---       ?C?FPOVERFLOW
      010003F1H   PUBLIC    CODE     ---       ?C?FPRESULT
      01000405H   PUBLIC    CODE     ---       ?C?FPRESULT2
      01000416H   PUBLIC    CODE     ---       ?C?FPUNDERFLOW

      ---         MODULE    ---      ---       ?C_INIT
      01002A3DH   PUBLIC    CODE     ---       ?C_START

      ---         MODULE    ---      ---       ?C?COPY
      010004F4H   PUBLIC    CODE     ---       ?C?COPY

      ---         MODULE    ---      ---       ?C?SCDIV
      0100051AH   PUBLIC    CODE     ---       ?C?SCDIV

      ---         MODULE    ---      ---       ?C?CLDPTR
      0100053CH   PUBLIC    CODE     ---       ?C?CLDPTR

      ---         MODULE    ---      ---       ?C?CLDOPTR
      01000555H   PUBLIC    CODE     ---       ?C?CLDOPTR

      ---         MODULE    ---      ---       ?C?CSTPTR
      01000582H   PUBLIC    CODE     ---       ?C?CSTPTR
LX51 LINKER/LOCATER V4.66.97.0                                                        11/09/2024  20:20:28  PAGE 94



      ---         MODULE    ---      ---       ?C?IMUL
      01000594H   PUBLIC    CODE     ---       ?C?IMUL

      ---         MODULE    ---      ---       ?C?SIDIV
      010005A6H   PUBLIC    CODE     ---       ?C?SIDIV

      ---         MODULE    ---      ---       ?C?ILDOPTR
      010005DCH   PUBLIC    CODE     ---       ?C?ILDOPTR

      ---         MODULE    ---      ---       ?C?ISTPTR
      01000614H   PUBLIC    CODE     ---       ?C?ISTPTR

      ---         MODULE    ---      ---       ?C?LMUL
      01000633H   PUBLIC    CODE     ---       ?C?LMUL

      ---         MODULE    ---      ---       ?C?ULDIV
      010006BEH   PUBLIC    CODE     ---       ?C?ULDIV

      ---         MODULE    ---      ---       ?C?SLDIV
      01003352H   PUBLIC    CODE     ---       ?C?SLDIV

      ---         MODULE    ---      ---       ?C?LNEG
      01000750H   PUBLIC    CODE     ---       ?C?LNEG

      ---         MODULE    ---      ---       ?C?SLCMP
      0100075EH   PUBLIC    CODE     ---       ?C?SLCMP

      ---         MODULE    ---      ---       ?C?ULCMP
      01000774H   PUBLIC    CODE     ---       ?C?ULCMP

      ---         MODULE    ---      ---       ?C?ULSHR
      01000785H   PUBLIC    CODE     ---       ?C?ULSHR

      ---         MODULE    ---      ---       ?C?LLDCODE
      01000798H   PUBLIC    CODE     ---       ?C?LLDCODE

      ---         MODULE    ---      ---       ?C?LSTXDATA
      010007A8H   PUBLIC    CODE     ---       ?C?LSTXDATA

      ---         MODULE    ---      ---       ?C?LSTKXDATA
      010007B4H   PUBLIC    CODE     ---       ?C?LSTKXDATA

      ---         MODULE    ---      ---       ?C?OFFXADD
      010007E5H   PUBLIC    CODE     ---       ?C?OFFXADD

      ---         MODULE    ---      ---       ?C?UIDIV
      010007F1H   PUBLIC    CODE     ---       ?C?UIDIV

Program Size: data=100.4 xdata=88 const=646 code=14664
LX51 RUN COMPLETE.  0 WARNING(S),  0 ERROR(S)
