LX51 LINKER/LOCATER V4.66.97.0                                                          11/10/2024  11:26:37  PAGE 1


LX51 LINKER/LOCATER V4.66.97.0, INVOKED BY:
C:\KEIL_V5\C51\BIN\LX51.EXE .\Objects\STARTUP_CMS8S6990.obj, .\Objects\main.obj, .\Objects\gpio.obj, .\Objects\ADCCfg.ob
>> j, .\Objects\delay.obj, .\Objects\NTC.obj, .\Objects\SideKey.obj, .\Objects\LEDMgmt.obj, .\Objects\PWM.obj, .\Objects
>> \OutputChannel.obj, .\Objects\Watchdog.obj, .\Objects\BattVoltDisplay.obj, .\Objects\TempControl.obj, .\Objects\Sleep
>> .obj, .\Objects\ModeControl.obj, .\Objects\RampConfig.obj, .\Objects\SelfTest.obj TO .\Objects\XRLite PRINT (.\Listin
>> gs\XRLite.map)


CPU MODE:     8051 MODE
MEMORY MODEL: SMALL WITH FLOATING POINT ARITHMETIC


INPUT MODULES INCLUDED:
  .\Objects\STARTUP_CMS8S6990.obj (?C_STARTUP)
         COMMENT TYPE 0: AX51 V3.15.3.0
  .\Objects\main.obj (MAIN)
         COMMENT TYPE 0: C51 V9.60.0.0
  .\Objects\gpio.obj (GPIO)
         COMMENT TYPE 0: C51 V9.60.0.0
  .\Objects\ADCCfg.obj (ADCCFG)
         COMMENT TYPE 0: C51 V9.60.0.0
  .\Objects\delay.obj (DELAY)
         COMMENT TYPE 0: C51 V9.60.0.0
  .\Objects\NTC.obj (NTC)
         COMMENT TYPE 0: C51 V9.60.0.0
  .\Objects\SideKey.obj (SIDEKEY)
         COMMENT TYPE 0: C51 V9.60.0.0
  .\Objects\LEDMgmt.obj (LEDMGMT)
         COMMENT TYPE 0: C51 V9.60.0.0
  .\Objects\PWM.obj (PWM)
         COMMENT TYPE 0: C51 V9.60.0.0
  .\Objects\OutputChannel.obj (OUTPUTCHANNEL)
         COMMENT TYPE 0: C51 V9.60.0.0
  .\Objects\Watchdog.obj (WATCHDOG)
         COMMENT TYPE 0: C51 V9.60.0.0
  .\Objects\BattVoltDisplay.obj (BATTVOLTDISPLAY)
         COMMENT TYPE 0: C51 V9.60.0.0
  .\Objects\TempControl.obj (TEMPCONTROL)
         COMMENT TYPE 0: C51 V9.60.0.0
  .\Objects\Sleep.obj (SLEEP)
         COMMENT TYPE 0: C51 V9.60.0.0
  .\Objects\ModeControl.obj (MODECONTROL)
         COMMENT TYPE 0: C51 V9.60.0.0
  .\Objects\RampConfig.obj (RAMPCONFIG)
         COMMENT TYPE 0: C51 V9.60.0.0
  .\Objects\SelfTest.obj (SELFTEST)
         COMMENT TYPE 0: C51 V9.60.0.0
  C:\KEIL_V5\C51\LIB\C51FPS.LIB (?C?FPADD)
         COMMENT TYPE 1: A51 / ASM51 Assembler
  C:\KEIL_V5\C51\LIB\C51FPS.LIB (?C?FPMUL)
         COMMENT TYPE 1: A51 / ASM51 Assembler
  C:\KEIL_V5\C51\LIB\C51FPS.LIB (?C?FPDIV)
         COMMENT TYPE 1: A51 / ASM51 Assembler
  C:\KEIL_V5\C51\LIB\C51FPS.LIB (?C?FPCMP)
         COMMENT TYPE 1: A51 / ASM51 Assembler
  C:\KEIL_V5\C51\LIB\C51FPS.LIB (?C?FCAST)
         COMMENT TYPE 1: A51 / ASM51 Assembler
  C:\KEIL_V5\C51\LIB\C51FPS.LIB (?C?CASTF)
         COMMENT TYPE 1: A51 / ASM51 Assembler
  C:\KEIL_V5\C51\LIB\C51FPS.LIB (?C?FPGETOPN)
         COMMENT TYPE 1: A51 / ASM51 Assembler
  C:\KEIL_V5\C51\LIB\C51S.LIB (?C_INIT)
         COMMENT TYPE 1: A51 / ASM51 Assembler
  C:\KEIL_V5\C51\LIB\C51S.LIB (?C?COPY)
         COMMENT TYPE 1: A51 / ASM51 Assembler
  C:\KEIL_V5\C51\LIB\C51S.LIB (?C?SCDIV)
LX51 LINKER/LOCATER V4.66.97.0                                                        11/10/2024  11:26:37  PAGE 2


         COMMENT TYPE 1: A51 / ASM51 Assembler
  C:\KEIL_V5\C51\LIB\C51S.LIB (?C?CLDPTR)
         COMMENT TYPE 1: A51 / ASM51 Assembler
  C:\KEIL_V5\C51\LIB\C51S.LIB (?C?CLDOPTR)
         COMMENT TYPE 1: A51 / ASM51 Assembler
  C:\KEIL_V5\C51\LIB\C51S.LIB (?C?CSTPTR)
         COMMENT TYPE 1: A51 / ASM51 Assembler
  C:\KEIL_V5\C51\LIB\C51S.LIB (?C?IMUL)
         COMMENT TYPE 1: A51 / ASM51 Assembler
  C:\KEIL_V5\C51\LIB\C51S.LIB (?C?SIDIV)
         COMMENT TYPE 1: A51 / ASM51 Assembler
  C:\KEIL_V5\C51\LIB\C51S.LIB (?C?ILDOPTR)
         COMMENT TYPE 1: A51 / ASM51 Assembler
  C:\KEIL_V5\C51\LIB\C51S.LIB (?C?ISTPTR)
         COMMENT TYPE 1: A51 / ASM51 Assembler
  C:\KEIL_V5\C51\LIB\C51S.LIB (?C?LMUL)
         COMMENT TYPE 1: A51 / ASM51 Assembler
  C:\KEIL_V5\C51\LIB\C51S.LIB (?C?ULDIV)
         COMMENT TYPE 1: A51 / ASM51 Assembler
  C:\KEIL_V5\C51\LIB\C51S.LIB (?C?SLDIV)
         COMMENT TYPE 1: A51 / ASM51 Assembler
  C:\KEIL_V5\C51\LIB\C51S.LIB (?C?LNEG)
         COMMENT TYPE 1: A51 / ASM51 Assembler
  C:\KEIL_V5\C51\LIB\C51S.LIB (?C?SLCMP)
         COMMENT TYPE 1: A51 / ASM51 Assembler
  C:\KEIL_V5\C51\LIB\C51S.LIB (?C?ULCMP)
         COMMENT TYPE 1: A51 / ASM51 Assembler
  C:\KEIL_V5\C51\LIB\C51S.LIB (?C?ULSHR)
         COMMENT TYPE 1: A51 / ASM51 Assembler
  C:\KEIL_V5\C51\LIB\C51S.LIB (?C?LLDCODE)
         COMMENT TYPE 1: A51 / ASM51 Assembler
  C:\KEIL_V5\C51\LIB\C51S.LIB (?C?LSTXDATA)
         COMMENT TYPE 1: A51 / ASM51 Assembler
  C:\KEIL_V5\C51\LIB\C51S.LIB (?C?LSTKXDATA)
         COMMENT TYPE 1: A51 / ASM51 Assembler
  C:\KEIL_V5\C51\LIB\C51S.LIB (?C?OFFXADD)
         COMMENT TYPE 1: A51 / ASM51 Assembler
  C:\KEIL_V5\C51\LIB\C51S.LIB (?C?UIDIV)
         COMMENT TYPE 1: A51 / ASM51 Assembler


ACTIVE MEMORY CLASSES OF MODULE:  .\Objects\XRLite (?C_STARTUP)

BASE        START       END         USED      MEMORY CLASS
==========================================================
C:000000H   C:000000H   C:00FFFFH   003B60H   CODE
I:000000H   I:000000H   I:0000FFH   000001H   IDATA
I:000000H   I:000000H   I:00007FH   000061H   DATA
I:000020H.0 I:000020H.0 I:00002FH.7 000003H.0 BIT
C:000000H   C:000000H   C:00FFFFH   000286H   CONST
X:000000H   X:000000H   X:00FFFFH   000058H   XDATA


MEMORY MAP OF MODULE:  .\Objects\XRLite (?C_STARTUP)


START     STOP      LENGTH    ALIGN  RELOC    MEMORY CLASS   SEGMENT NAME
=========================================================================

* * * * * * * * * * *   D A T A   M E M O R Y   * * * * * * * * * * * * *
000000H   000007H   000008H   ---    AT..     DATA           "REG BANK 0"
000008H   00001AH   000013H   BYTE   UNIT     DATA           ?DT?ADCCFG
00001BH   00001EH   000004H   BYTE   UNIT     DATA           ?DT?TEMPCONTROL
00001FH   00001FH   000001H   BYTE   UNIT     DATA           ?DT?DELAY
000020H.0 000020H.5 000000H.6 BIT    UNIT     BIT            ?BI?MODECONTROL
LX51 LINKER/LOCATER V4.66.97.0                                                        11/10/2024  11:26:37  PAGE 3


000020H.6 000021H.2 000000H.5 BIT    UNIT     BIT            _BIT_GROUP_
000021H.3 000021H.5 000000H.3 BIT    UNIT     BIT            ?BI?DELAY
000021H.6 000022H.0 000000H.3 BIT    UNIT     BIT            ?BI?PWM
000022H.1 000022H.3 000000H.3 BIT    UNIT     BIT            ?BI?TEMPCONTROL
000022H.4 000022H.5 000000H.2 BIT    UNIT     BIT            ?BI?BATTVOLTDISPLAY
000022H.6 000022H.6 000000H.1 BIT    UNIT     BIT            ?BI?SIDEKEY
000022H.7 000022H.7 000000H.1 BIT    UNIT     BIT            ?BI?SLEEP
000023H   00004FH   00002DH   BYTE   UNIT     DATA           _DATA_GROUP_
000050H   000058H   000009H   BYTE   UNIT     DATA           ?DT?SIDEKEY
000059H   00005FH   000007H   BYTE   UNIT     DATA           ?DT?MODECONTROL
000060H   000061H   000002H   BYTE   UNIT     DATA           ?DT?LEDMGMT
000062H   000062H   000001H   BYTE   UNIT     DATA           ?DT?WDOG_INIT?WATCHDOG
000063H   000063H   000001H   BYTE   UNIT     DATA           ?DT?GETIFWDOGCAUSERST?WATCHDOG
000064H   000064H   000001H   BYTE   UNIT     IDATA          ?STACK

* * * * * * * * * * *   C O D E   M E M O R Y   * * * * * * * * * * * * *
000000H   000002H   000003H   ---    OFFS..   CODE           ?CO?STARTUP_CMS8S6990?3
000003H   00000AH   000008H   BYTE   UNIT     CODE           ?PR?SIDEKEY
00000BH   00000DH   000003H   BYTE   OFFS..   CODE           ?DELAY?0000B
00000EH   000029H   00001CH   BYTE   UNIT     CODE           ?PR?WDOG_INIT?WATCHDOG
00002AH   00002AH   000001H   ---    ---      **GAP**
00002BH   00002DH   000003H   BYTE   OFFS..   CODE           ?DELAY?0002B
00002EH   000046H   000019H   BYTE   UNIT     CODE           ?PR?GETIFWDOGCAUSERST?WATCHDOG
000047H   000049H   000003H   BYTE   UNIT     CODE           ?PR?SYSTEMTELEMHANDLER?ADCCFG
00004AH   00004AH   000001H   ---    ---      **GAP**
00004BH   00004DH   000003H   BYTE   OFFS..   CODE           ?MAIN?0004B
00004EH   000845H   0007F8H   BYTE   UNIT     CODE           ?C?LIB_CODE
000846H   000CFAH   0004B5H   BYTE   UNIT     CODE           ?PR?MODESWITCHFSM?MODECONTROL
000CFBH   000FC7H   0002CDH   BYTE   UNIT     CODE           ?PR?_GPIO_CONFIGGPIOMODE?GPIO
000FC8H   001219H   000252H   BYTE   UNIT     CODE           ?PR?BATTERYTELEMHANDLER?BATTVOLTDISPLAY
00121AH   00145BH   000242H   BYTE   UNIT     CODE           ?PR?OUTPUTCHANNEL_TESTRUN?OUTPUTCHANNEL
00145CH   00164CH   0001F1H   BYTE   UNIT     CODE           ?PR?BATVSHOWFSM?BATTVOLTDISPLAY
00164DH   0017CEH   000182H   BYTE   UNIT     CODE           ?PR?THERMALCALCPROCESS?TEMPCONTROL
0017CFH   001943H   000175H   BYTE   UNIT     CODE           ?PR?_ADC_WRITEOUTPUTBUF?ADCCFG
001944H   001A62H   00011FH   BYTE   UNIT     CODE           ?PR?LEDCONTROLHANDLER?LEDMGMT
001A63H   001B78H   000116H   BYTE   UNIT     CODE           ?PR?BATTVOLTDISPLAY
001B79H   001C7FH   000107H   BYTE   UNIT     CODE           ?PR?ADCENGINEHANDLER?ADCCFG
001C80H   001D7CH   0000FDH   BYTE   UNIT     CODE           ?PR?_THERMALILIMCALC?TEMPCONTROL
001D7DH   001E67H   0000EBH   BYTE   UNIT     CODE           ?PR?_PEC8CHECK?RAMPCONFIG
001E68H   001F46H   0000DFH   BYTE   UNIT     CODE           ?PR?_CALCNTCTEMP?NTC
001F47H   002012H   0000CCH   BYTE   UNIT     CODE           ?PR?SAVERAMPCONFIG?RAMPCONFIG
002013H   0020D1H   0000BFH   BYTE   UNIT     CODE           ?PR?PWM_OUTPUTCTRLHANDLER?PWM
0020D2H   002190H   0000BFH   BYTE   UNIT     CODE           ?PR?MODECONTROL
002191H   002249H   0000B9H   BYTE   UNIT     CODE           ?PR?SOSFSM?MODECONTROL
00224AH   0022FFH   0000B6H   BYTE   UNIT     CODE           ?PR?_DELAY_MS?DELAY
002300H   0023B4H   0000B5H   BYTE   UNIT     CODE           ?PR?OUTPUTFAULTDETECT?SELFTEST
0023B5H   002468H   0000B4H   BYTE   UNIT     CODE           ?PR?_GPIO_WRITEBIT?GPIO
002469H   002519H   0000B1H   BYTE   UNIT     CODE           ?PR?READRAMPCONFIG?RAMPCONFIG
00251AH   0025C6H   0000ADH   BYTE   UNIT     CODE           ?PR?GPIO
0025C7H   002673H   0000ADH   BYTE   UNIT     CODE           ?PR?ADC_DEINIT?ADCCFG
002674H   00271FH   0000ACH   BYTE   UNIT     CODE           ?PR?OUTPUTCHANNEL_CALC?OUTPUTCHANNEL
002720H   0027C8H   0000A9H   BYTE   UNIT     CODE           ?PR?_ADC_READBACKRESULT?ADCCFG
0027C9H   00286CH   0000A4H   BYTE   UNIT     CODE           ?PR?OUTPUTCHANNEL
00286DH   00290AH   00009EH   BYTE   UNIT     CODE           ?PR?ADC_INIT?ADCCFG
00290BH   0029A8H   00009EH   BYTE   UNIT     CODE           ?PR?SIDEKEY_LOGICHANDLER?SIDEKEY
0029A9H   002A45H   00009DH   BYTE   UNIT     CODE           ?PR?_DUTY_CALC?OUTPUTCHANNEL
002A46H   002ADFH   00009AH   BYTE   UNIT     CODE           ?C_C51STARTUP
002AE0H   002B72H   000093H   BYTE   UNIT     CODE           ?PR?_GPIO_GETEXTINTMODE?GPIO
002B73H   002BFFH   00008DH   BYTE   UNIT     CODE           ?PR?LEDMGMT_SWITCHTOPWM?LEDMGMT
002C00H   002C8BH   00008CH   BYTE   UNIT     CODE           ?PR?SLEEPMGMT?SLEEP
002C8CH   002D12H   000087H   BYTE   UNIT     CODE           ?PR?PWM_INIT?PWM
002D13H   002D96H   000084H   BYTE   UNIT     CODE           ?PR?RAMPADJHANDLER?MODECONTROL
002D97H   002E0FH   000079H   BYTE   UNIT     CODE           ?PR?DISPLAYERRORIDHANDLER?SELFTEST
002E10H   002E83H   000074H   BYTE   UNIT     CODE           ?PR?_SWITCHTOGEAR?MODECONTROL
002E84H   002EF7H   000074H   BYTE   UNIT     CODE           ?PR?HOLDSWITCHGEARCMDHANDLER?MODECONTROL
LX51 LINKER/LOCATER V4.66.97.0                                                        11/10/2024  11:26:37  PAGE 4


002EF8H   002F69H   000072H   BYTE   UNIT     CODE           ?PR?_GPIO_SETMUXMODE?GPIO
002F6AH   002FD4H   00006BH   BYTE   UNIT     CODE           ?PR?MAIN?MAIN
002FD5H   00303FH   00006BH   BYTE   UNIT     CODE           ?PR?DISPLAYVBATTATSTART?BATTVOLTDISPLAY
003040H   0030A8H   000069H   BYTE   UNIT     CODE           ?PR?SIDEKEYLEDBRIADJHANDLER?MODECONTROL
0030A9H   00310FH   000067H   BYTE   UNIT     CODE           ?PR?SIDEKEY_INT_CALLBACK?SIDEKEY
003110H   003170H   000061H   BYTE   UNIT     CODE           ?PR?_BATTERYLOWALERTPROCESS?MODECONTROL
003171H   0031CEH   00005EH   BYTE   UNIT     CODE           ?PR?ADCCFG
0031CFH   003229H   00005BH   BYTE   UNIT     CODE           ?PR?_GPIO_SETEXTINTMODE?GPIO
00322AH   003284H   00005BH   BYTE   UNIT     CODE           ?PR?MODEFSMTIMHANDLER?MODECONTROL
003285H   0032DFH   00005BH   BYTE   UNIT     CODE           ?PR?INPUTFAULTDETECT?SELFTEST
0032E0H   003333H   000054H   BYTE   UNIT     CODE           ?PR?_GPIO_GETINTFLAG?GPIO
003334H   003382H   00004FH   BYTE   UNIT     CODE           ?PR?_ADC_SUBMITMISSON?ADCCFG
003383H   0033CEH   00004CH   BYTE   UNIT     CODE           ?PR?KEY_IRQHANDLER?MAIN
0033CFH   003419H   00004BH   BYTE   UNIT     CODE           ?PR?TIMER2_IRQHANDLER?DELAY
00341AH   003461H   000048H   BYTE   UNIT     CODE           ?PR?_GPIO_CLEARINTFLAG?GPIO
003462H   0034A8H   000047H   BYTE   UNIT     CODE           ?C_INITSEG
0034A9H   0034EFH   000047H   BYTE   UNIT     CODE           ?PR?SIDEKEYINIT?SIDEKEY
0034F0H   003535H   000046H   BYTE   UNIT     CODE           ?PR?LEDMGMT
003536H   003579H   000044H   BYTE   UNIT     CODE           ?C?LDIV
00357AH   0035BBH   000042H   BYTE   UNIT     CODE           ?PR?DISPLAYERRORTIMHANDLER?SELFTEST
0035BCH   0035FCH   000041H   BYTE   UNIT     CODE           ?PR?MOONCONFIGHANDLER?MODECONTROL
0035FDH   00363BH   00003FH   BYTE   UNIT     CODE           ?PR?_DELAY_US?DELAY
00363CH   003677H   00003CH   BYTE   UNIT     CODE           ?PR?BATTDISPLAYTIM?BATTVOLTDISPLAY
003678H   0036B3H   00003CH   BYTE   UNIT     CODE           ?PR?RESTORETOMINIMUMRAMPCURRENT?RAMPCONFIG
0036B4H   0036EDH   00003AH   BYTE   UNIT     CODE           ?PR?_MAKEFASTSTROBE?LEDMGMT
0036EEH   003727H   00003AH   BYTE   UNIT     CODE           ?PR?OUTPUTCHANNEL_INIT?OUTPUTCHANNEL
003728H   00375CH   000035H   BYTE   UNIT     CODE           ?PR?PWM_FORCESETDUTY?PWM
00375DH   00378EH   000032H   BYTE   UNIT     CODE           ?PR?SIDEKEY_TIM_CALLBACK?SIDEKEY
00378FH   0037C0H   000032H   BYTE   UNIT     CODE           ?PR?SETLEDONOFF?LEDMGMT
0037C1H   0037EFH   00002FH   BYTE   UNIT     CODE           ?PR?_PRESENTLIM?TEMPCONTROL
0037F0H   00381DH   00002EH   BYTE   UNIT     CODE           ?PR?RAMPCONFIG
00381EH   00384AH   00002DH   BYTE   UNIT     CODE           ?PR?LEDMGMT_SETBRIGHTNESS?LEDMGMT
00384BH   003876H   00002CH   BYTE   UNIT     CODE           ?PR?_GPIO_CHECKIFINTENABLED?GPIO
003877H   0038A2H   00002CH   BYTE   UNIT     CODE           ?PR?SYSTEMPERIPHERALCTRL?SLEEP
0038A3H   0038CDH   00002BH   BYTE   UNIT     CODE           ?PR?TEMPCONTROL
0038CEH   0038F8H   00002BH   BYTE   UNIT     CODE           ?PR?SELFTEST
0038F9H   003920H   000028H   BYTE   UNIT     CODE           ?PR?LED_INIT?LEDMGMT
003921H   003947H   000027H   BYTE   UNIT     CODE           ?PR?SETSYSTEMHBTIMER?DELAY
003948H   00396DH   000026H   BYTE   UNIT     CODE           ?PR?MODEFSMINIT?MODECONTROL
00396EH   003990H   000023H   BYTE   UNIT     CODE           ?PR?CHECKIFHBTIMISREADY?DELAY
003991H   0039B3H   000023H   BYTE   UNIT     CODE           ?PR?PWM_DEINIT?PWM
0039B4H   0039D5H   000022H   BYTE   UNIT     CODE           ?PR?_GPIO_DISABLEINT?GPIO
0039D6H   0039F7H   000022H   BYTE   UNIT     CODE           ?PR?NTC
0039F8H   003A18H   000021H   BYTE   UNIT     CODE           ?PR?CHECKNTCSTATUS?TEMPCONTROL
003A19H   003A38H   000020H   BYTE   UNIT     CODE           ?PR?MARKASKEYPRESSED?SIDEKEY
003A39H   003A57H   00001FH   BYTE   UNIT     CODE           ?PR?GETSIDEKEYSHORTPRESSCOUNT?SIDEKEY
003A58H   003A75H   00001EH   BYTE   UNIT     CODE           ?PR?_GPIO_ENABLEINT?GPIO
003A76H   003A8EH   000019H   BYTE   UNIT     CODE           ?PR?RETURNTOOFFSTATE?MODECONTROL
003A8FH   003AA6H   000018H   BYTE   UNIT     CODE           ?PR?_CLICKANDHOLDEVENTHANDLER?SIDEKEY
003AA7H   003ABBH   000015H   BYTE   UNIT     CODE           ?PR?ADC_SETVREF?ADCCFG
003ABCH   003AD0H   000015H   BYTE   UNIT     CODE           ?PR?DELAY_INIT?DELAY
003AD1H   003AE3H   000013H   BYTE   UNIT     CODE           ?PR?ISKEYEVENTOCCURRED?SIDEKEY
003AE4H   003AF3H   000010H   BYTE   UNIT     CODE           ?PR?WDOG_DEINIT?WATCHDOG
003AF4H   003B03H   000010H   BYTE   UNIT     CODE           ?PR?WDOG_FEED?WATCHDOG
003B04H   003B13H   000010H   BYTE   UNIT     CODE           ?PR?_SIDEKEYSWITCHGEARHANDLER?MODECONTROL
003B14H   003B23H   000010H   BYTE   UNIT     CODE           ?PR?_SIDEKEY1HREVGEARHANDLER?MODECONTROL
003B24H   003B32H   00000FH   BYTE   UNIT     CODE           ?PR?PWM
003B33H   003B3DH   00000BH   BYTE   UNIT     CODE           ?PR?GETSIDEKEYLONGPRESSEVENT?SIDEKEY
003B3EH   003B46H   000009H   BYTE   UNIT     CODE           ?PR?TRIGGERVSHOWDISPLAY?BATTVOLTDISPLAY
003B47H   003B4DH   000007H   BYTE   UNIT     CODE           ?PR?GETSIDEKEYHOLDEVENT?SIDEKEY
003B4EH   003B54H   000007H   BYTE   UNIT     CODE           ?PR?GETSIDEKEYCLICKANDHOLDEVENT?SIDEKEY
003B55H   003B5BH   000007H   BYTE   UNIT     CODE           ?PR?OUTPUTCHANNEL_DEINIT?OUTPUTCHANNEL
003B5CH   003B61H   000006H   BYTE   UNIT     CODE           ?PR?TIMER0_IRQHANDLER?DELAY
003B62H   003D43H   0001E2H   BYTE   UNIT     CONST          ?CO?NTC
003D44H   003DA6H   000063H   BYTE   UNIT     CONST          ?CO?MODECONTROL
LX51 LINKER/LOCATER V4.66.97.0                                                        11/10/2024  11:26:37  PAGE 5


003DA7H   003DCFH   000029H   BYTE   UNIT     CONST          ?CO?RAMPCONFIG
003DD0H   003DE3H   000014H   BYTE   UNIT     CONST          ?CO?OUTPUTCHANNEL
003DE4H   003DE7H   000004H   BYTE   UNIT     CONST          ?CO?ADCCFG

* * * * * * * * * * *  X D A T A   M E M O R Y  * * * * * * * * * * * * *
000000H   000016H   000017H   BYTE   UNIT     XDATA          ?XD?BATTVOLTDISPLAY
000017H   00002AH   000014H   BYTE   UNIT     XDATA          _XDATA_GROUP_
00002BH   000037H   00000DH   BYTE   UNIT     XDATA          ?XD?ADCCFG
000038H   000043H   00000CH   BYTE   UNIT     XDATA          ?XD?MODECONTROL
000044H   00004BH   000008H   BYTE   UNIT     XDATA          ?XD?SELFTEST
00004CH   00004FH   000004H   BYTE   UNIT     XDATA          ?XD?PWM
000050H   000053H   000004H   BYTE   UNIT     XDATA          ?XD?OUTPUTCHANNEL
000054H   000056H   000003H   BYTE   UNIT     XDATA          ?XD?LEDMGMT
000057H   000057H   000001H   BYTE   UNIT     XDATA          ?XD?SIDEKEY



OVERLAY MAP OF MODULE:   .\Objects\XRLite (?C_STARTUP)


FUNCTION/MODULE                              BIT_GROUP   DATA_GROUP   XDATA_GROUP
--> CALLED FUNCTION/MODULE                  START  STOP  START  STOP  START  STOP
=================================================================================
?C_C51STARTUP                               ----- -----  ----- -----  ----- -----
  +--> MAIN/MAIN
  +--> ?C_INITSEG

MAIN/MAIN                                   ----- -----  ----- -----  ----- -----
  +--> DELAY_INIT/DELAY
  +--> SETSYSTEMHBTIMER/DELAY
  +--> CHECKIFHBTIMISREADY/DELAY
  +--> LED_INIT/LEDMGMT
  +--> ADC_INIT/ADCCFG
  +--> CHECKNTCSTATUS/TEMPCONTROL
  +--> MODEFSMINIT/MODECONTROL
  +--> SIDEKEYINIT/SIDEKEY
  +--> PWM_INIT/PWM
  +--> OUTPUTCHANNEL_INIT/OUTPUTCHANNEL
  +--> OUTPUTCHANNEL_TESTRUN/OUTPUTCHANNEL
  +--> DISPLAYVBATTATSTART/BATTVOLTDISPLAY
  +--> LEDMGMT_SWITCHTOPWM/LEDMGMT
  +--> WDOG_INIT/WATCHDOG
  +--> SYSTEMTELEMHANDLER/ADCCFG
  +--> SIDEKEY_LOGICHANDLER/SIDEKEY
  +--> BATTERYTELEMHANDLER/BATTVOLTDISPLAY
  +--> MODESWITCHFSM/MODECONTROL
  +--> THERMALCALCPROCESS/TEMPCONTROL
  +--> OUTPUTCHANNEL_CALC/OUTPUTCHANNEL
  +--> PWM_OUTPUTCTRLHANDLER/PWM
  +--> WDOG_FEED/WATCHDOG
  +--> BATTDISPLAYTIM/BATTVOLTDISPLAY
  +--> LEDCONTROLHANDLER/LEDMGMT
  +--> MODEFSMTIMHANDLER/MODECONTROL
  +--> HOLDSWITCHGEARCMDHANDLER/MODECONTROL
  +--> DISPLAYERRORTIMHANDLER/SELFTEST
  +--> MOONCONFIGHANDLER/MODECONTROL
  +--> OUTPUTFAULTDETECT/SELFTEST
  +--> INPUTFAULTDETECT/SELFTEST
  +--> SLEEPMGMT/SLEEP

DELAY_INIT/DELAY                            ----- -----  ----- -----  ----- -----

SETSYSTEMHBTIMER/DELAY                      20H.7 20H.7  ----- -----  ----- -----

CHECKIFHBTIMISREADY/DELAY                   ----- -----  0023H 0024H  ----- -----
LX51 LINKER/LOCATER V4.66.97.0                                                        11/10/2024  11:26:37  PAGE 6


  +--> _DELAY_MS/DELAY

_DELAY_MS/DELAY                             ----- -----  002FH 0036H  ----- -----

LED_INIT/LEDMGMT                            ----- -----  0025H 0027H  ----- -----
  +--> _GPIO_CONFIGGPIOMODE/GPIO

_GPIO_CONFIGGPIOMODE/GPIO                   ----- -----  0028H 0032H  ----- -----
  +--> GPIO

GPIO                                        ----- -----  ----- -----  ----- -----

ADC_INIT/ADCCFG                             ----- -----  0025H 0027H  ----- -----
  +--> _GPIO_CONFIGGPIOMODE/GPIO
  +--> _GPIO_SETMUXMODE/GPIO
  +--> _GPIO_WRITEBIT/GPIO
  +--> ADCCFG
  +--> SYSTEMTELEMHANDLER/ADCCFG

_GPIO_SETMUXMODE/GPIO                       ----- -----  0028H 0029H  ----- -----
  +--> GPIO

_GPIO_WRITEBIT/GPIO                         20H.7 20H.7  ----- -----  ----- -----
  +--> GPIO

ADCCFG                                      ----- -----  ----- -----  ----- -----

SYSTEMTELEMHANDLER/ADCCFG                   ----- -----  ----- -----  ----- -----
  +--> ADCENGINEHANDLER/ADCCFG

ADCENGINEHANDLER/ADCCFG                     ----- -----  002FH 0033H  ----- -----
  +--> ADC_SETVREF/ADCCFG
  +--> ADCCFG
  +--> _ADC_SUBMITMISSON/ADCCFG
  +--> _ADC_READBACKRESULT/ADCCFG
  +--> _ADC_WRITEOUTPUTBUF/ADCCFG

ADC_SETVREF/ADCCFG                          20H.7 20H.7  ----- -----  ----- -----

_ADC_SUBMITMISSON/ADCCFG                    ----- -----  ----- -----  ----- -----
  +--> ADCCFG
  +--> _DELAY_US/DELAY

_DELAY_US/DELAY                             20H.7 20H.7  ----- -----  ----- -----

_ADC_READBACKRESULT/ADCCFG                  ----- -----  0034H 0039H  ----- -----

_ADC_WRITEOUTPUTBUF/ADCCFG                  ----- -----  0034H 0042H  ----- -----
  +--> ADCCFG
  +--> _CALCNTCTEMP/NTC

_CALCNTCTEMP/NTC                            ----- -----  0043H 004FH  ----- -----
  +--> NTC

NTC                                         ----- -----  ----- -----  ----- -----

CHECKNTCSTATUS/TEMPCONTROL                  ----- -----  0023H 0023H  ----- -----
  +--> _DELAY_MS/DELAY
  +--> SYSTEMTELEMHANDLER/ADCCFG
  +--> LEDCONTROLHANDLER/LEDMGMT

LEDCONTROLHANDLER/LEDMGMT                   20H.6 21H.0  ----- -----  ----- -----
  +--> LEDMGMT
  +--> SETLEDONOFF/LEDMGMT

LX51 LINKER/LOCATER V4.66.97.0                                                        11/10/2024  11:26:37  PAGE 7


LEDMGMT                                     ----- -----  ----- -----  ----- -----

SETLEDONOFF/LEDMGMT                         21H.1 21H.2  ----- -----  ----- -----

MODEFSMINIT/MODECONTROL                     ----- -----  ----- -----  ----- -----
  +--> READRAMPCONFIG/RAMPCONFIG

READRAMPCONFIG/RAMPCONFIG                   ----- -----  0023H 002BH  ----- -----
  +--> RAMPCONFIG
  +--> _PEC8CHECK/RAMPCONFIG
  +--> SAVERAMPCONFIG/RAMPCONFIG

RAMPCONFIG                                  ----- -----  ----- -----  ----- -----

_PEC8CHECK/RAMPCONFIG                       ----- -----  003CH 004BH  ----- -----
  +--> RAMPCONFIG

SAVERAMPCONFIG/RAMPCONFIG                   20H.7 20H.7  002CH 003BH  ----- -----
  +--> RAMPCONFIG
  +--> _PEC8CHECK/RAMPCONFIG

SIDEKEYINIT/SIDEKEY                         ----- -----  0023H 0025H  ----- -----
  +--> _GPIO_SETMUXMODE/GPIO
  +--> _GPIO_CONFIGGPIOMODE/GPIO
  +--> _GPIO_ENABLEINT/GPIO
  +--> _GPIO_SETEXTINTMODE/GPIO

_GPIO_ENABLEINT/GPIO                        ----- -----  ----- -----  ----- -----

_GPIO_SETEXTINTMODE/GPIO                    ----- -----  0026H 0027H  ----- -----
  +--> GPIO

PWM_INIT/PWM                                ----- -----  0025H 0027H  ----- -----
  +--> _GPIO_WRITEBIT/GPIO
  +--> _GPIO_CONFIGGPIOMODE/GPIO
  +--> _GPIO_SETMUXMODE/GPIO

OUTPUTCHANNEL_INIT/OUTPUTCHANNEL            ----- -----  0025H 0027H  ----- -----
  +--> OUTPUTCHANNEL
  +--> _GPIO_CONFIGGPIOMODE/GPIO

OUTPUTCHANNEL                               ----- -----  ----- -----  ----- -----

OUTPUTCHANNEL_TESTRUN/OUTPUTCHANNEL         ----- -----  0023H 002EH  0017H 002AH
  +--> GETIFWDOGCAUSERST/WATCHDOG
  +--> OUTPUTCHANNEL
  +--> PWM_FORCESETDUTY/PWM
  +--> _DELAY_MS/DELAY
  +--> SYSTEMTELEMHANDLER/ADCCFG
  +--> _SWITCHTOGEAR/MODECONTROL

GETIFWDOGCAUSERST/WATCHDOG                  ----- -----  ----- -----  ----- -----

PWM_FORCESETDUTY/PWM                        20H.6 20H.6  ----- -----  ----- -----

_SWITCHTOGEAR/MODECONTROL                   ----- -----  002FH 0032H  ----- -----
  +--> MODECONTROL

MODECONTROL                                 ----- -----  ----- -----  ----- -----

DISPLAYVBATTATSTART/BATTVOLTDISPLAY         ----- -----  ----- -----  ----- -----
  +--> BATTVOLTDISPLAY

BATTVOLTDISPLAY                             ----- -----  ----- -----  ----- -----

LX51 LINKER/LOCATER V4.66.97.0                                                        11/10/2024  11:26:37  PAGE 8


LEDMGMT_SWITCHTOPWM/LEDMGMT                 ----- -----  ----- -----  ----- -----
  +--> _GPIO_SETMUXMODE/GPIO
  +--> LEDMGMT

WDOG_INIT/WATCHDOG                          ----- -----  ----- -----  ----- -----

SIDEKEY_LOGICHANDLER/SIDEKEY                ----- -----  ----- -----  ----- -----
  +--> _GPIO_CHECKIFINTENABLED/GPIO
  +--> _GPIO_SETEXTINTMODE/GPIO
  +--> _GPIO_ENABLEINT/GPIO
  +--> SIDEKEY
  +--> _CLICKANDHOLDEVENTHANDLER/SIDEKEY

_GPIO_CHECKIFINTENABLED/GPIO                ----- -----  ----- -----  ----- -----

SIDEKEY                                     ----- -----  ----- -----  ----- -----

_CLICKANDHOLDEVENTHANDLER/SIDEKEY           ----- -----  ----- -----  ----- -----

BATTERYTELEMHANDLER/BATTVOLTDISPLAY         ----- -----  0025H 0028H  ----- -----
  +--> BATTVOLTDISPLAY
  +--> DISPLAYERRORIDHANDLER/SELFTEST
  +--> BATVSHOWFSM/BATTVOLTDISPLAY

DISPLAYERRORIDHANDLER/SELFTEST              ----- -----  ----- -----  ----- -----

BATVSHOWFSM/BATTVOLTDISPLAY                 ----- -----  0029H 002AH  ----- -----
  +--> BATTVOLTDISPLAY
  +--> _MAKEFASTSTROBE/LEDMGMT
  +--> GETSIDEKEYCLICKANDHOLDEVENT/SIDEKEY

_MAKEFASTSTROBE/LEDMGMT                     20H.6 20H.7  ----- -----  ----- -----
  +--> SETLEDONOFF/LEDMGMT
  +--> _DELAY_MS/DELAY

GETSIDEKEYCLICKANDHOLDEVENT/SIDEKEY         ----- -----  ----- -----  ----- -----

MODESWITCHFSM/MODECONTROL                   20H.6 20H.6  0023H 0024H  0017H 001AH
  +--> GETSIDEKEYLONGPRESSEVENT/SIDEKEY
  +--> GETSIDEKEYSHORTPRESSCOUNT/SIDEKEY
  +--> MODECONTROL
  +--> ISKEYEVENTOCCURRED/SIDEKEY
  +--> GETSIDEKEYHOLDEVENT/SIDEKEY
  +--> SAVERAMPCONFIG/RAMPCONFIG
  +--> GETSIDEKEYCLICKANDHOLDEVENT/SIDEKEY
  +--> TRIGGERVSHOWDISPLAY/BATTVOLTDISPLAY
  +--> RETURNTOOFFSTATE/MODECONTROL
  +--> SIDEKEYLEDBRIADJHANDLER/MODECONTROL
  +--> _SWITCHTOGEAR/MODECONTROL
  +--> RESTORETOMINIMUMRAMPCURRENT/RAMPCONFIG
  +--> RAMPADJHANDLER/MODECONTROL
  +--> _SIDEKEYSWITCHGEARHANDLER/MODECONTROL
  +--> _SIDEKEY1HREVGEARHANDLER/MODECONTROL
  +--> _BATTERYLOWALERTPROCESS/MODECONTROL
  +--> SOSFSM/MODECONTROL
  +--> _THERMALILIMCALC/TEMPCONTROL

GETSIDEKEYLONGPRESSEVENT/SIDEKEY            ----- -----  ----- -----  ----- -----

GETSIDEKEYSHORTPRESSCOUNT/SIDEKEY           20H.7 20H.7  ----- -----  ----- -----
  +--> SIDEKEY

ISKEYEVENTOCCURRED/SIDEKEY                  ----- -----  ----- -----  ----- -----

GETSIDEKEYHOLDEVENT/SIDEKEY                 ----- -----  ----- -----  ----- -----
LX51 LINKER/LOCATER V4.66.97.0                                                        11/10/2024  11:26:37  PAGE 9



TRIGGERVSHOWDISPLAY/BATTVOLTDISPLAY         ----- -----  ----- -----  ----- -----

RETURNTOOFFSTATE/MODECONTROL                ----- -----  ----- -----  ----- -----
  +--> MODECONTROL
  +--> _SWITCHTOGEAR/MODECONTROL

SIDEKEYLEDBRIADJHANDLER/MODECONTROL         ----- -----  ----- -----  ----- -----
  +--> LEDMGMT_SETBRIGHTNESS/LEDMGMT

LEDMGMT_SETBRIGHTNESS/LEDMGMT               ----- -----  ----- -----  ----- -----
  +--> LEDMGMT

RESTORETOMINIMUMRAMPCURRENT/RAMPCONFIG      ----- -----  ----- -----  ----- -----
  +--> RAMPCONFIG

RAMPADJHANDLER/MODECONTROL                  ----- -----  ----- -----  ----- -----
  +--> GETSIDEKEYHOLDEVENT/SIDEKEY
  +--> GETSIDEKEYCLICKANDHOLDEVENT/SIDEKEY
  +--> MODECONTROL
  +--> SAVERAMPCONFIG/RAMPCONFIG

_SIDEKEYSWITCHGEARHANDLER/MODECONTROL       ----- -----  ----- -----  ----- -----
  +--> MODECONTROL
  +--> _SWITCHTOGEAR/MODECONTROL

_SIDEKEY1HREVGEARHANDLER/MODECONTROL        ----- -----  ----- -----  ----- -----
  +--> MODECONTROL
  +--> _SWITCHTOGEAR/MODECONTROL

_BATTERYLOWALERTPROCESS/MODECONTROL         ----- -----  0025H 0027H  ----- -----
  +--> MODECONTROL
  +--> RETURNTOOFFSTATE/MODECONTROL
  +--> _SWITCHTOGEAR/MODECONTROL

SOSFSM/MODECONTROL                          ----- -----  0025H 0026H  ----- -----
  +--> MODECONTROL

_THERMALILIMCALC/TEMPCONTROL                ----- -----  0025H 0032H  ----- -----
  +--> TEMPCONTROL
  +--> _PRESENTLIM/TEMPCONTROL

TEMPCONTROL                                 ----- -----  ----- -----  ----- -----

_PRESENTLIM/TEMPCONTROL                     ----- -----  0033H 0036H  ----- -----
  +--> TEMPCONTROL

THERMALCALCPROCESS/TEMPCONTROL              ----- -----  ----- -----  ----- -----
  +--> TEMPCONTROL
  +--> _SWITCHTOGEAR/MODECONTROL

OUTPUTCHANNEL_CALC/OUTPUTCHANNEL            ----- -----  ----- -----  ----- -----
  +--> OUTPUTCHANNEL
  +--> _DUTY_CALC/OUTPUTCHANNEL

_DUTY_CALC/OUTPUTCHANNEL                    ----- -----  0023H 0030H  ----- -----
  +--> OUTPUTCHANNEL

PWM_OUTPUTCTRLHANDLER/PWM                   ----- -----  0023H 0026H  ----- -----
  +--> PWM

PWM                                         ----- -----  ----- -----  ----- -----

WDOG_FEED/WATCHDOG                          ----- -----  ----- -----  ----- -----

LX51 LINKER/LOCATER V4.66.97.0                                                        11/10/2024  11:26:37  PAGE 10


BATTDISPLAYTIM/BATTVOLTDISPLAY              ----- -----  ----- -----  ----- -----
  +--> BATTVOLTDISPLAY

MODEFSMTIMHANDLER/MODECONTROL               ----- -----  ----- -----  ----- -----
  +--> MODECONTROL

HOLDSWITCHGEARCMDHANDLER/MODECONTROL        ----- -----  0023H 0023H  ----- -----
  +--> GETSIDEKEYHOLDEVENT/SIDEKEY
  +--> MODECONTROL
  +--> GETSIDEKEYCLICKANDHOLDEVENT/SIDEKEY

DISPLAYERRORTIMHANDLER/SELFTEST             ----- -----  ----- -----  ----- -----

MOONCONFIGHANDLER/MODECONTROL               ----- -----  ----- -----  ----- -----
  +--> MODECONTROL

OUTPUTFAULTDETECT/SELFTEST                  ----- -----  0023H 0023H  ----- -----
  +--> SELFTEST
  +--> _SWITCHTOGEAR/MODECONTROL

SELFTEST                                    ----- -----  ----- -----  ----- -----

INPUTFAULTDETECT/SELFTEST                   ----- -----  ----- -----  ----- -----
  +--> SELFTEST
  +--> _SWITCHTOGEAR/MODECONTROL

SLEEPMGMT/SLEEP                             ----- -----  0023H 0024H  ----- -----
  +--> SYSTEMPERIPHERALCTRL/SLEEP
  +--> DELAY_INIT/DELAY
  +--> SETSYSTEMHBTIMER/DELAY
  +--> MARKASKEYPRESSED/SIDEKEY
  +--> _DELAY_MS/DELAY
  +--> SIDEKEY_LOGICHANDLER/SIDEKEY
  +--> ISKEYEVENTOCCURRED/SIDEKEY
  +--> SYSTEMTELEMHANDLER/ADCCFG
  +--> BATTERYTELEMHANDLER/BATTVOLTDISPLAY

SYSTEMPERIPHERALCTRL/SLEEP                  20H.6 20H.6  ----- -----  ----- -----
  +--> LED_INIT/LEDMGMT
  +--> ADC_INIT/ADCCFG
  +--> PWM_INIT/PWM
  +--> OUTPUTCHANNEL_INIT/OUTPUTCHANNEL
  +--> LEDMGMT_SWITCHTOPWM/LEDMGMT
  +--> WDOG_INIT/WATCHDOG
  +--> WDOG_DEINIT/WATCHDOG
  +--> SETSYSTEMHBTIMER/DELAY
  +--> PWM_DEINIT/PWM
  +--> ADC_DEINIT/ADCCFG
  +--> OUTPUTCHANNEL_DEINIT/OUTPUTCHANNEL

WDOG_DEINIT/WATCHDOG                        ----- -----  ----- -----  ----- -----

PWM_DEINIT/PWM                              ----- -----  ----- -----  ----- -----
  +--> _GPIO_SETMUXMODE/GPIO
  +--> _GPIO_WRITEBIT/GPIO

ADC_DEINIT/ADCCFG                           ----- -----  0025H 0027H  ----- -----
  +--> ADCCFG
  +--> _GPIO_SETMUXMODE/GPIO
  +--> _GPIO_CONFIGGPIOMODE/GPIO
  +--> _GPIO_WRITEBIT/GPIO

OUTPUTCHANNEL_DEINIT/OUTPUTCHANNEL          ----- -----  ----- -----  ----- -----
  +--> OUTPUTCHANNEL

LX51 LINKER/LOCATER V4.66.97.0                                                        11/10/2024  11:26:37  PAGE 11


MARKASKEYPRESSED/SIDEKEY                    ----- -----  ----- -----  ----- -----
  +--> _GPIO_DISABLEINT/GPIO

_GPIO_DISABLEINT/GPIO                       ----- -----  ----- -----  ----- -----

?C_INITSEG                                  ----- -----  ----- -----  ----- -----

*** NEW ROOT ******************************

KEY_IRQHANDLER/MAIN                         ----- -----  ----- -----  ----- -----
  +--> _GPIO_GETINTFLAG/GPIO
  +--> SIDEKEY_INT_CALLBACK/SIDEKEY
  +--> _GPIO_CLEARINTFLAG/GPIO

_GPIO_GETINTFLAG/GPIO                       ----- -----  ----- -----  ----- -----
  +--> GPIO

SIDEKEY_INT_CALLBACK/SIDEKEY                ----- -----  ----- -----  ----- -----
  +--> _GPIO_GETEXTINTMODE/GPIO
  +--> SIDEKEY
  +--> _GPIO_DISABLEINT/GPIO

_GPIO_GETEXTINTMODE/GPIO                    ----- -----  ----- -----  ----- -----
  +--> GPIO

_GPIO_CLEARINTFLAG/GPIO                     ----- -----  ----- -----  ----- -----
  +--> GPIO

*** NEW ROOT ******************************

TIMER2_IRQHANDLER/DELAY                     ----- -----  ----- -----  ----- -----
  +--> SIDEKEY_TIM_CALLBACK/SIDEKEY

SIDEKEY_TIM_CALLBACK/SIDEKEY                ----- -----  ----- -----  ----- -----

*** NEW ROOT ******************************

TIMER0_IRQHANDLER/DELAY                     ----- -----  ----- -----  ----- -----



PUBLIC SYMBOLS OF MODULE:  .\Objects\XRLite (?C_STARTUP)


      VALUE       CLASS    TYPE      PUBLIC SYMBOL NAME
      =================================================
      00000020H.7 BIT      BIT       ?_GPIO_WriteBit?BIT
      010003A3H   CODE     ---       ?C?CASTF
      01000555H   CODE     ---       ?C?CLDOPTR
      0100053CH   CODE     ---       ?C?CLDPTR
      00000000H   NUMBER   ---       ?C?CODESEG
      010004F4H   CODE     ---       ?C?COPY
      01000582H   CODE     ---       ?C?CSTPTR
      0100036FH   CODE     ---       ?C?FCASTC
      0100036AH   CODE     ---       ?C?FCASTI
      01000365H   CODE     ---       ?C?FCASTL
      01000055H   CODE     ---       ?C?FPADD
      010002EEH   CODE     ---       ?C?FPCMP
      010002ECH   CODE     ---       ?C?FPCMP3
      0100024FH   CODE     ---       ?C?FPDIV
      010003DAH   CODE     ---       ?C?FPGETOPN2
      01000146H   CODE     ---       ?C?FPMUL
      0100040FH   CODE     ---       ?C?FPNANRESULT
      01000419H   CODE     ---       ?C?FPOVERFLOW
      010003F1H   CODE     ---       ?C?FPRESULT
LX51 LINKER/LOCATER V4.66.97.0                                                        11/10/2024  11:26:37  PAGE 12


      01000405H   CODE     ---       ?C?FPRESULT2
      01000051H   CODE     ---       ?C?FPSUB
      01000416H   CODE     ---       ?C?FPUNDERFLOW
      010005DCH   CODE     ---       ?C?ILDOPTR
      01000594H   CODE     ---       ?C?IMUL
      01000614H   CODE     ---       ?C?ISTPTR
      01000798H   CODE     ---       ?C?LLDCODE
      01000633H   CODE     ---       ?C?LMUL
      01000750H   CODE     ---       ?C?LNEG
      010007B4H   CODE     ---       ?C?LSTKXDATA
      010007A8H   CODE     ---       ?C?LSTXDATA
      010007E5H   CODE     ---       ?C?OFFXADD
      0100051AH   CODE     ---       ?C?SCDIV
      010005A6H   CODE     ---       ?C?SIDIV
      0100075EH   CODE     ---       ?C?SLCMP
      01003536H   CODE     ---       ?C?SLDIV
      010007F1H   CODE     ---       ?C?UIDIV
      01000774H   CODE     ---       ?C?ULCMP
      010006BEH   CODE     ---       ?C?ULDIV
      01000785H   CODE     ---       ?C?ULSHR
      00000000H   NUMBER   ---       ?C?XDATASEG
      01002A9BH   CODE     ---       ?C_START
      01000000H   CODE     NEAR LAB  ?C_STARTUP
      00000020H.7 BIT      BIT       ?getSideKeyShortPressCount?BIT
      00000020H.6 BIT      BIT       ?PWM_ForceSetDuty?BIT
      00000020H.7 BIT      BIT       ?SaveRampConfig?BIT
      00000020H.7 BIT      BIT       ?SetSystemHBTimer?BIT
      01001E68H   CODE     ---       _CalcNTCTemp
      0100224AH   CODE     ---       _delay_ms
      010035FDH   CODE     ---       _delay_us
      0100384BH   CODE     ---       _GPIO_CheckIfIntEnabled
      0100341AH   CODE     ---       _GPIO_ClearIntFlag
      01000CFBH   CODE     ---       _GPIO_ConfigGPIOMode
      010039B4H   CODE     ---       _GPIO_DisableInt
      01003A58H   CODE     ---       _GPIO_EnableInt
      01002AE0H   CODE     ---       _GPIO_GetExtIntMode
      010032E0H   CODE     ---       _GPIO_GetIntFlag
      010031CFH   CODE     ---       _GPIO_SetExtIntMode
      01002EF8H   CODE     ---       _GPIO_SetMUXMode
      010023B5H   CODE     ---       _GPIO_WriteBit
      010036B4H   CODE     ---       _MakeFastStrobe
      01002E10H   CODE     ---       _SwitchToGear
      01001C80H   CODE     ---       _ThermalILIMCalc
*SFR* 000000D0H.6 DATA     BIT       AC
*SFR* 000000E0H   DATA     BYTE      ACC
      010025C7H   CODE     ---       ADC_DeInit
      0100286DH   CODE     ---       ADC_Init
      01003DE4H   CONST    ---       ADCChQueue
*SFR* 000000D1H   DATA     BYTE      ADCMPC
*SFR* 000000D5H   DATA     BYTE      ADCMPH
*SFR* 000000D4H   DATA     BYTE      ADCMPL
*SFR* 000000DFH   DATA     BYTE      ADCON0
*SFR* 000000DEH   DATA     BYTE      ADCON1
*SFR* 000000E9H   DATA     BYTE      ADCON2
*SFR* 000000D3H   DATA     BYTE      ADDLYL
*SFR* 000000DDH   DATA     BYTE      ADRESH
*SFR* 000000DCH   DATA     BYTE      ADRESL
*SFR* 000000F0H   DATA     BYTE      B
      0200003AH   XDATA    CHAR      BattAlertTimer
      0100363CH   CODE     ---       BattDisplayTIM
      0200000FH   XDATA    FLOAT     Battery
      01000FC8H   CODE     ---       BatteryTelemHandler
*SFR* 000000BFH   DATA     BYTE      BUZCON
*SFR* 000000BEH   DATA     BYTE      BUZDIV
*SFR* 000000C8H.5 DATA     BIT       CAPES
LX51 LINKER/LOCATER V4.66.97.0                                                        11/10/2024  11:26:37  PAGE 13


*SFR* 000000CEH   DATA     BYTE      CCEN
*SFR* 000000C3H   DATA     BYTE      CCH1
*SFR* 000000C5H   DATA     BYTE      CCH2
*SFR* 000000C7H   DATA     BYTE      CCH3
*SFR* 000000C2H   DATA     BYTE      CCL1
*SFR* 000000C4H   DATA     BYTE      CCL2
*SFR* 000000C6H   DATA     BYTE      CCL3
      0100396EH   CODE     ---       CheckIfHBTIMIsReady
      010039F8H   CODE     ---       CheckNTCStatus
*SFR* 0000008EH   DATA     BYTE      CKCON
      02000041H   XDATA    CHAR      ClickHoldReverseGearTIM
*SFR* 0000008FH   DATA     BYTE      CLKDIV
      02000052H   XDATA    INT       Current
      0000005DH   DATA     ---       CurrentMode
*SFR* 000000D0H.7 DATA     BIT       CY
      00000009H   DATA     ---       Data
*SFR* 00000080H.4 DATA     BIT       DCDCEN
      01003ABCH   CODE     ---       delay_init
      01002D97H   CODE     ---       DisplayErrorIDHandler
      0100357AH   CODE     ---       DisplayErrorTIMHandler
      0200003CH   XDATA    CHAR      DisplayLockedTIM
      01002FD5H   CODE     ---       DisplayVBattAtStart
*SFR* 00000083H   DATA     BYTE      DPH
*SFR* 00000083H   DATA     BYTE      DPH0
*SFR* 00000085H   DATA     BYTE      DPH1
*SFR* 00000082H   DATA     BYTE      DPL
*SFR* 00000082H   DATA     BYTE      DPL0
*SFR* 00000084H   DATA     BYTE      DPL1
*SFR* 00000086H   DATA     BYTE      DPS
*SFR* 00000093H   DATA     BYTE      DPX0
*SFR* 00000095H   DATA     BYTE      DPX1
*SFR* 000000A8H.7 DATA     BIT       EA
*SFR* 000000AAH   DATA     BYTE      EIE2
*SFR* 000000B2H   DATA     BYTE      EIF2
*SFR* 000000B9H   DATA     BYTE      EIP1
*SFR* 000000BAH   DATA     BYTE      EIP2
      0200003EH   XDATA    BYTE      ErrCode
*SFR* 000000A8H.4 DATA     BIT       ES0
*SFR* 000000A8H.6 DATA     BIT       ES1
*SFR* 000000A8H.1 DATA     BIT       ET0
*SFR* 000000A8H.3 DATA     BIT       ET1
*SFR* 000000A8H.5 DATA     BIT       ET2
*SFR* 000000A8H.0 DATA     BIT       EX0
*SFR* 000000A8H.2 DATA     BIT       EX1
*SFR* 000000D0H.5 DATA     BIT       F0
*SFR* 00000091H   DATA     BYTE      FUNCCR
      0100002EH   CODE     ---       GetIfWDogCauseRST
      01003B4EH   CODE     ---       getSideKeyClickAndHoldEvent
      01003B47H   CODE     ---       getSideKeyHoldEvent
      01003B33H   CODE     ---       getSideKeyLongPressEvent
      01003A39H   CODE     ---       getSideKeyShortPressCount
*SFR* 000000A0H.5 DATA     BIT       GreenLED
      0000001FH   DATA     CHAR      HBcounter
      02000040H   XDATA    CHAR      HoldChangeGearTIM
      01002E84H   CODE     ---       HoldSwitchGearCmdHandler
*SFR* 00000080H.5 DATA     BIT       HShuntSEL
*SFR* 000000F6H   DATA     BYTE      I2CMBUF
*SFR* 000000F5H   DATA     BYTE      I2CMCR
*SFR* 000000F4H   DATA     BYTE      I2CMSA
*SFR* 000000F5H   DATA     BYTE      I2CMSR
*SFR* 000000F7H   DATA     BYTE      I2CMTP
*SFR* 000000F1H   DATA     BYTE      I2CSADR
*SFR* 000000F3H   DATA     BYTE      I2CSBUF
*SFR* 000000F2H   DATA     BYTE      I2CSCR
*SFR* 000000F2H   DATA     BYTE      I2CSSR
LX51 LINKER/LOCATER V4.66.97.0                                                        11/10/2024  11:26:37  PAGE 14


*SFR* 000000C8H.6 DATA     BIT       I3FR
*SFR* 000000A8H   DATA     BYTE      IE
*SFR* 00000088H.1 DATA     BIT       IE0
*SFR* 00000088H.3 DATA     BIT       IE1
      0200004AH   XDATA    CHAR      InputDetectTIM
      01003285H   CODE     ---       InputFaultDetect
*SFR* 000000B8H   DATA     BYTE      IP
      00000022H.4 BIT      BIT       IsBatteryAlert
      00000022H.5 BIT      BIT       IsBatteryFault
      00000022H.1 BIT      BIT       IsDisableTurbo
      00000020H.2 BIT      BIT       IsEnableMoonConfigMode
      00000022H.3 BIT      BIT       IsForceLeaveTurbo
      01003AD1H   CODE     ---       IsKeyEventOccurred
      00000020H.3 BIT      BIT       IsLocked
      00000021H.6 BIT      BIT       IsNeedToUploadPWM
      02000037H   XDATA    BYTE      IsNotAllowAsync
      00000020H.1 BIT      BIT       IsRampEnabled
      00000020H.4 BIT      BIT       IsSideLEDCfgMode
      00000021H.3 BIT      BIT       IsT0OVF
      00000020H.5 BIT      BIT       IsTacMode
      00000022H.2 BIT      BIT       IsTempLIMActive
      00000022H.7 BIT      BIT       IsWakupFromSleep
*SFR* 00000088H.0 DATA     BIT       IT0
*SFR* 00000088H.2 DATA     BIT       IT1
      01003383H   CODE     ---       Key_IRQHandler
*SFR* 000000A0H.3 DATA     BIT       KeyPress
      02000057H   XDATA    BYTE      KeyState
      0200003DH   XDATA    BYTE      LastMode
      010038F9H   CODE     ---       LED_Init
      02000055H   XDATA    INT       LEDBrightNess
      01001944H   CODE     ---       LEDControlHandler
      0100381EH   CODE     ---       LEDMgmt_SetBrightness
      01002B73H   CODE     ---       LEDMgmt_SwitchToPWM
      00000061H   DATA     BYTE      LEDMode
*SFR* 00000080H.3 DATA     BIT       LShuntSEL
*SFR* 000000FDH   DATA     BYTE      MADRH
*SFR* 000000FCH   DATA     BYTE      MADRL
      01002F6AH   CODE     ---       main
      01003A19H   CODE     ---       MarkAsKeyPressed
*SFR* 000000FFH   DATA     BYTE      MCTRL
*SFR* 000000FEH   DATA     BYTE      MDATA
*SFR* 000000FBH   DATA     BYTE      MLOCK
      01003948H   CODE     ---       ModeFSMInit
      0100322AH   CODE     ---       ModeFSMTIMHandler
      01003D44H   CONST    ---       ModeSettings
      01000846H   CODE     ---       ModeSwitchFSM
      0200003FH   XDATA    BYTE      MoonCfg
      0200003BH   XDATA    CHAR      MoonCfgTIM
      010035BCH   CODE     ---       MoonConfigHandler
      01003C8EH   CONST    ---       NTCTableBottom
      01003B62H   CONST    ---       NTCTableTop
      01002674H   CODE     ---       OutputChannel_Calc
      01003B55H   CODE     ---       OutputChannel_DeInit
      010036EEH   CODE     ---       OutputChannel_Init
      0100121AH   CODE     ---       OutputChannel_TestRun
      01002300H   CODE     ---       OutputFaultDetect
*SFR* 000000D0H.2 DATA     BIT       OV
*SFR* 000000D0H.0 DATA     BIT       P
*SFR* 00000080H   DATA     BYTE      P0
*SFR* 00000080H.0 DATA     BIT       P00
*SFR* 00000080H.1 DATA     BIT       P01
*SFR* 00000080H.2 DATA     BIT       P02
*SFR* 00000080H.3 DATA     BIT       P03
*SFR* 00000080H.4 DATA     BIT       P04
*SFR* 00000080H.5 DATA     BIT       P05
LX51 LINKER/LOCATER V4.66.97.0                                                        11/10/2024  11:26:37  PAGE 15


*SFR* 00000080H.6 DATA     BIT       P06
*SFR* 00000080H.7 DATA     BIT       P07
*SFR* 000000ACH   DATA     BYTE      P0EXTIE
*SFR* 000000B4H   DATA     BYTE      P0EXTIF
*SFR* 0000009AH   DATA     BYTE      P0TRIS
*SFR* 00000090H   DATA     BYTE      P1
*SFR* 00000090H.0 DATA     BIT       P10
*SFR* 00000090H.1 DATA     BIT       P11
*SFR* 00000090H.2 DATA     BIT       P12
*SFR* 00000090H.3 DATA     BIT       P13
*SFR* 00000090H.4 DATA     BIT       P14
*SFR* 00000090H.5 DATA     BIT       P15
*SFR* 00000090H.6 DATA     BIT       P16
*SFR* 00000090H.7 DATA     BIT       P17
*SFR* 000000ADH   DATA     BYTE      P1EXTIE
*SFR* 000000B5H   DATA     BYTE      P1EXTIF
*SFR* 000000A1H   DATA     BYTE      P1TRIS
*SFR* 000000A0H   DATA     BYTE      P2
*SFR* 000000A0H.0 DATA     BIT       P20
*SFR* 000000A0H.1 DATA     BIT       P21
*SFR* 000000A0H.2 DATA     BIT       P22
*SFR* 000000A0H.3 DATA     BIT       P23
*SFR* 000000A0H.4 DATA     BIT       P24
*SFR* 000000A0H.5 DATA     BIT       P25
*SFR* 000000A0H.6 DATA     BIT       P26
*SFR* 000000A0H.7 DATA     BIT       P27
*SFR* 000000AEH   DATA     BYTE      P2EXTIE
*SFR* 000000B6H   DATA     BYTE      P2EXTIF
*SFR* 000000A2H   DATA     BYTE      P2TRIS
*SFR* 000000B0H   DATA     BYTE      P3
*SFR* 000000B0H.0 DATA     BIT       P30
*SFR* 000000B0H.1 DATA     BIT       P31
*SFR* 000000B0H.2 DATA     BIT       P32
*SFR* 000000B0H.3 DATA     BIT       P33
*SFR* 000000B0H.4 DATA     BIT       P34
*SFR* 000000B0H.5 DATA     BIT       P35
*SFR* 000000B0H.6 DATA     BIT       P36
*SFR* 000000B0H.7 DATA     BIT       P37
*SFR* 000000AFH   DATA     BYTE      P3EXTIE
*SFR* 000000B7H   DATA     BYTE      P3EXTIF
*SFR* 000000A3H   DATA     BYTE      P3TRIS
*SFR* 00000087H   DATA     BYTE      PCON
*SFR* 000000A0H   DATA     BYTE      PPAGE_SFR
*SFR* 000000B8H.4 DATA     BIT       PS0
*SFR* 000000B8H.6 DATA     BIT       PS1
*SFR* 000000D0H   DATA     BYTE      PSW
*SFR* 000000B8H.1 DATA     BIT       PT0
*SFR* 000000B8H.3 DATA     BIT       PT1
*SFR* 000000B8H.5 DATA     BIT       PT2
      01003991H   CODE     ---       PWM_DeInit
      01003728H   CODE     ---       PWM_ForceSetDuty
      01002C8CH   CODE     ---       PWM_Init
      01002013H   CODE     ---       PWM_OutputCtrlHandler
      0200004CH   XDATA    FLOAT     PWMDuty
*SFR* 000000B8H.0 DATA     BIT       PX0
*SFR* 000000B8H.2 DATA     BIT       PX1
      00000059H   DATA     ---       RampCfg
      01002469H   CODE     ---       ReadRampConfig
*SFR* 000000A0H.4 DATA     BIT       RedLED
      01003678H   CODE     ---       RestoreToMinimumRampCurrent
      01003A76H   CODE     ---       ReturnToOFFState
*SFR* 00000080H.1 DATA     BIT       RevPGate
*SFR* 00000098H.0 DATA     BIT       RI0
*SFR* 000000CBH   DATA     BYTE      RLDH
*SFR* 000000CAH   DATA     BYTE      RLDL
LX51 LINKER/LOCATER V4.66.97.0                                                        11/10/2024  11:26:37  PAGE 16


*SFR* 000000D0H.3 DATA     BIT       RS0
*SFR* 000000D0H.4 DATA     BIT       RS1
      01001F47H   CODE     ---       SaveRampConfig
*SFR* 00000099H   DATA     BYTE      SBUF
*SFR* 00000099H   DATA     BYTE      SBUF0
*SFR* 000000EBH   DATA     BYTE      SBUF1
*SFR* 00000098H   DATA     BYTE      SCON0
*SFR* 000000EAH   DATA     BYTE      SCON1
      01003921H   CODE     ---       SetSystemHBTimer
      010030A9H   CODE     ---       SideKey_Int_Callback
      0100290BH   CODE     ---       SideKey_LogicHandler
      0100375DH   CODE     ---       SideKey_TIM_Callback
      010034A9H   CODE     ---       SideKeyInit
      01003040H   CODE     ---       SideKeyLEDBriAdjHandler
      01002C00H   CODE     ---       SleepMgmt
      00000050H   DATA     INT       SleepTimer
      02000042H   XDATA    CHAR      SOSTIM
*SFR* 00000081H   DATA     BYTE      SP
*SFR* 000000ECH   DATA     BYTE      SPCR
*SFR* 000000EEH   DATA     BYTE      SPDR
*SFR* 000000EDH   DATA     BYTE      SPSR
*SFR* 000000EFH   DATA     BYTE      SSCR
      00000021H.5 BIT      BIT       StrobeFlag
      00000021H.4 BIT      BIT       SysHBFlag
      01000047H   CODE     ---       SystemTelemHandler
*SFR* 000000C8H.2 DATA     BIT       T2CM
*SFR* 000000C8H   DATA     BYTE      T2CON
*SFR* 000000C8H.0 DATA     BIT       T2I0
*SFR* 000000C8H.1 DATA     BIT       T2I1
*SFR* 000000CFH   DATA     BYTE      T2IE
*SFR* 000000C9H   DATA     BYTE      T2IF
*SFR* 000000C8H.7 DATA     BIT       T2PS
*SFR* 000000C8H.3 DATA     BIT       T2R0
*SFR* 000000C8H.4 DATA     BIT       T2R1
*SFR* 000000D2H   DATA     BYTE      T34MOD
*SFR* 00000096H   DATA     BYTE      TA
*SFR* 00000088H   DATA     BYTE      TCON
*SFR* 00000088H.5 DATA     BIT       TF0
*SFR* 00000088H.7 DATA     BIT       TF1
*SFR* 0000008CH   DATA     BYTE      TH0
*SFR* 0000008DH   DATA     BYTE      TH1
*SFR* 000000CDH   DATA     BYTE      TH2
*SFR* 000000DBH   DATA     BYTE      TH3
*SFR* 000000E3H   DATA     BYTE      TH4
      0100164DH   CODE     ---       ThermalCalcProcess
*SFR* 00000098H.1 DATA     BIT       TI0
      01003B5CH   CODE     ---       Timer0_IRQHandler
      010033CFH   CODE     ---       Timer2_IRQHandler
*SFR* 0000008AH   DATA     BYTE      TL0
*SFR* 0000008BH   DATA     BYTE      TL1
*SFR* 000000CCH   DATA     BYTE      TL2
*SFR* 000000DAH   DATA     BYTE      TL3
*SFR* 000000E2H   DATA     BYTE      TL4
*SFR* 00000089H   DATA     BYTE      TMOD
*SFR* 00000088H.4 DATA     BIT       TR0
*SFR* 00000088H.6 DATA     BIT       TR1
      01003B3EH   CODE     ---       TriggerVshowDisplay
*SFR* 00000098H.2 DATA     BIT       U0RB8
*SFR* 00000098H.4 DATA     BIT       U0REN
*SFR* 00000098H.7 DATA     BIT       U0SM0
*SFR* 00000098H.6 DATA     BIT       U0SM1
*SFR* 00000098H.5 DATA     BIT       U0SM2
*SFR* 00000098H.3 DATA     BIT       U0TB8
      02000046H   XDATA    FLOAT     VBattBeforeTurbo
      01003DA7H   CONST    ---       VendorString
LX51 LINKER/LOCATER V4.66.97.0                                                        11/10/2024  11:26:37  PAGE 17


      02000002H   XDATA    BYTE      VshowFSMState
*SFR* 00000097H   DATA     BYTE      WDCON
      01003AE4H   CODE     ---       WDog_DeInit
      01003AF4H   CODE     ---       WDog_Feed
      0100000EH   CODE     ---       WDog_Init
*SFR* 000000BDH   DATA     BYTE      WUTCRH
*SFR* 000000BCH   DATA     BYTE      WUTCRL



SYMBOL TABLE OF MODULE:  .\Objects\XRLite (?C_STARTUP)

      VALUE       REP       CLASS    TYPE      SYMBOL NAME
      ====================================================
      ---         MODULE    ---      ---       ?C_STARTUP
      01000000H   PUBLIC    CODE     NEAR LAB  ?C_STARTUP
      000000E0H   SFRSYM    DATA     BYTE      ACC
      000000F0H   SFRSYM    DATA     BYTE      B
      00000083H   SFRSYM    DATA     BYTE      DPH
      00000082H   SFRSYM    DATA     BYTE      DPL
      000000A0H   SFRSYM    DATA     BYTE      PPAGE_SFR
      00000081H   SFRSYM    DATA     BYTE      SP
      00000000H   SYMBOL    NUMBER   ---       IBPSTACK
      00000100H   SYMBOL    NUMBER   ---       IBPSTACKTOP
      00000100H   SYMBOL    NUMBER   ---       IDATALEN
      01002A49H   SYMBOL    CODE     NEAR LAB  IDATALOOP
      00000000H   SYMBOL    NUMBER   ---       PBPSTACK
      00000100H   SYMBOL    NUMBER   ---       PBPSTACKTOP
      00000000H   SYMBOL    NUMBER   ---       PDATALEN
      00000000H   SYMBOL    NUMBER   ---       PDATASTART
      00000000H   SYMBOL    NUMBER   ---       PPAGE
      00000000H   SYMBOL    NUMBER   ---       PPAGEENABLE
      01002A46H   SYMBOL    CODE     NEAR LAB  STARTUP1
      00000000H   SYMBOL    NUMBER   ---       XBPSTACK
      00010000H   SYMBOL    NUMBER   ---       XBPSTACKTOP
      00000400H   SYMBOL    NUMBER   ---       XDATALEN
      01002A54H   SYMBOL    CODE     NEAR LAB  XDATALOOP
      00000000H   SYMBOL    NUMBER   ---       XDATASTART

      01000000H   BLOCK     CODE     NEAR LAB  LVL=0
      01000000H   LINE      CODE     ---       #126
      ---         BLOCKEND  ---      ---       LVL=0

      01002A46H   BLOCK     CODE     NEAR LAB  LVL=0
      01002A46H   LINE      CODE     ---       #133
      01002A48H   LINE      CODE     ---       #134
      01002A49H   LINE      CODE     ---       #135
      01002A4AH   LINE      CODE     ---       #136
      01002A4CH   LINE      CODE     ---       #140
      01002A4FH   LINE      CODE     ---       #141
      01002A51H   LINE      CODE     ---       #145
      01002A53H   LINE      CODE     ---       #147
      01002A54H   LINE      CODE     ---       #148
      01002A55H   LINE      CODE     ---       #149
      01002A56H   LINE      CODE     ---       #150
      01002A58H   LINE      CODE     ---       #151
      01002A5AH   LINE      CODE     ---       #185
      01002A5DH   LINE      CODE     ---       #196
      ---         BLOCKEND  ---      ---       LVL=0

      ---         MODULE    ---      ---       MAIN
      01003383H   PUBLIC    CODE     ---       Key_IRQHandler
      01002F6AH   PUBLIC    CODE     ---       main
      000000C8H.0 SFRSYM    DATA     BIT       T2I0
      000000C3H   SFRSYM    DATA     BYTE      CCH1
LX51 LINKER/LOCATER V4.66.97.0                                                        11/10/2024  11:26:37  PAGE 18


      00000080H   SFRSYM    DATA     BYTE      P0
      000000C8H.1 SFRSYM    DATA     BIT       T2I1
      000000C5H   SFRSYM    DATA     BYTE      CCH2
      00000090H   SFRSYM    DATA     BYTE      P1
      000000C7H   SFRSYM    DATA     BYTE      CCH3
      000000ACH   SFRSYM    DATA     BYTE      P0EXTIE
      000000A0H   SFRSYM    DATA     BYTE      P2
      000000B4H   SFRSYM    DATA     BYTE      P0EXTIF
      000000B0H   SFRSYM    DATA     BYTE      P3
      000000ADH   SFRSYM    DATA     BYTE      P1EXTIE
      000000D0H.6 SFRSYM    DATA     BIT       AC
      000000FFH   SFRSYM    DATA     BYTE      MCTRL
      000000C2H   SFRSYM    DATA     BYTE      CCL1
      000000B5H   SFRSYM    DATA     BYTE      P1EXTIF
      000000AEH   SFRSYM    DATA     BYTE      P2EXTIE
      000000C4H   SFRSYM    DATA     BYTE      CCL2
      000000B6H   SFRSYM    DATA     BYTE      P2EXTIF
      000000AFH   SFRSYM    DATA     BYTE      P3EXTIE
      000000A8H.7 SFRSYM    DATA     BIT       EA
      000000C6H   SFRSYM    DATA     BYTE      CCL3
      000000B7H   SFRSYM    DATA     BYTE      P3EXTIF
      000000AAH   SFRSYM    DATA     BYTE      EIE2
      000000B2H   SFRSYM    DATA     BYTE      EIF2
      000000C8H.3 SFRSYM    DATA     BIT       T2R0
      000000C8H.4 SFRSYM    DATA     BIT       T2R1
      00000083H   SFRSYM    DATA     BYTE      DPH0
      000000A8H   SFRSYM    DATA     BYTE      IE
      00000085H   SFRSYM    DATA     BYTE      DPH1
      000000B9H   SFRSYM    DATA     BYTE      EIP1
      000000BAH   SFRSYM    DATA     BYTE      EIP2
      00000082H   SFRSYM    DATA     BYTE      DPL0
      00000084H   SFRSYM    DATA     BYTE      DPL1
      000000C8H.6 SFRSYM    DATA     BIT       I3FR
      000000CFH   SFRSYM    DATA     BYTE      T2IE
      00000096H   SFRSYM    DATA     BYTE      TA
      000000C9H   SFRSYM    DATA     BYTE      T2IF
      000000C8H.2 SFRSYM    DATA     BIT       T2CM
      000000DFH   SFRSYM    DATA     BYTE      ADCON0
      000000DEH   SFRSYM    DATA     BYTE      ADCON1
      000000E9H   SFRSYM    DATA     BYTE      ADCON2
      000000B8H   SFRSYM    DATA     BYTE      IP
      000000CEH   SFRSYM    DATA     BYTE      CCEN
      000000D0H.7 SFRSYM    DATA     BIT       CY
      000000D2H   SFRSYM    DATA     BYTE      T34MOD
      00000093H   SFRSYM    DATA     BYTE      DPX0
      00000095H   SFRSYM    DATA     BYTE      DPX1
      000000F4H   SFRSYM    DATA     BYTE      I2CMSA
      000000F5H   SFRSYM    DATA     BYTE      I2CMCR
      00000081H   SFRSYM    DATA     BYTE      SP
      000000D0H.2 SFRSYM    DATA     BIT       OV
      000000F2H   SFRSYM    DATA     BYTE      I2CSCR
      000000C8H.7 SFRSYM    DATA     BIT       T2PS
      000000D1H   SFRSYM    DATA     BYTE      ADCMPC
      000000CBH   SFRSYM    DATA     BYTE      RLDH
      000000D5H   SFRSYM    DATA     BYTE      ADCMPH
      000000CAH   SFRSYM    DATA     BYTE      RLDL
      00000080H.0 SFRSYM    DATA     BIT       P00
      00000090H.0 SFRSYM    DATA     BIT       P10
      00000080H.1 SFRSYM    DATA     BIT       P01
      000000F7H   SFRSYM    DATA     BYTE      I2CMTP
      00000099H   SFRSYM    DATA     BYTE      SBUF
      00000087H   SFRSYM    DATA     BYTE      PCON
      000000A0H.0 SFRSYM    DATA     BIT       P20
      00000090H.1 SFRSYM    DATA     BIT       P11
      00000080H.2 SFRSYM    DATA     BIT       P02
LX51 LINKER/LOCATER V4.66.97.0                                                        11/10/2024  11:26:37  PAGE 19


      000000F5H   SFRSYM    DATA     BYTE      I2CMSR
      000000B0H.0 SFRSYM    DATA     BIT       P30
      000000A0H.1 SFRSYM    DATA     BIT       P21
      00000090H.2 SFRSYM    DATA     BIT       P12
      00000080H.3 SFRSYM    DATA     BIT       P03
      000000D4H   SFRSYM    DATA     BYTE      ADCMPL
      000000B0H.1 SFRSYM    DATA     BIT       P31
      000000A0H.2 SFRSYM    DATA     BIT       P22
      00000090H.3 SFRSYM    DATA     BIT       P13
      00000080H.4 SFRSYM    DATA     BIT       P04
      000000B0H.2 SFRSYM    DATA     BIT       P32
      000000A0H.3 SFRSYM    DATA     BIT       P23
      00000090H.4 SFRSYM    DATA     BIT       P14
      00000080H.5 SFRSYM    DATA     BIT       P05
      00000089H   SFRSYM    DATA     BYTE      TMOD
      00000088H   SFRSYM    DATA     BYTE      TCON
      000000B0H.3 SFRSYM    DATA     BIT       P33
      000000A0H.4 SFRSYM    DATA     BIT       P24
      00000090H.5 SFRSYM    DATA     BIT       P15
      00000080H.6 SFRSYM    DATA     BIT       P06
      000000B0H.4 SFRSYM    DATA     BIT       P34
      000000A0H.5 SFRSYM    DATA     BIT       P25
      00000090H.6 SFRSYM    DATA     BIT       P16
      00000080H.7 SFRSYM    DATA     BIT       P07
      000000B0H.5 SFRSYM    DATA     BIT       P35
      000000A0H.6 SFRSYM    DATA     BIT       P26
      00000090H.7 SFRSYM    DATA     BIT       P17
      000000F2H   SFRSYM    DATA     BYTE      I2CSSR
      000000B0H.6 SFRSYM    DATA     BIT       P36
      000000A0H.7 SFRSYM    DATA     BIT       P27
      000000ECH   SFRSYM    DATA     BYTE      SPCR
      000000DDH   SFRSYM    DATA     BYTE      ADRESH
      000000B0H.7 SFRSYM    DATA     BIT       P37
      000000EEH   SFRSYM    DATA     BYTE      SPDR
      000000EFH   SFRSYM    DATA     BYTE      SSCR
      000000D3H   SFRSYM    DATA     BYTE      ADDLYL
      000000DCH   SFRSYM    DATA     BYTE      ADRESL
      00000088H.1 SFRSYM    DATA     BIT       IE0
      00000088H.3 SFRSYM    DATA     BIT       IE1
      0000008FH   SFRSYM    DATA     BYTE      CLKDIV
      000000F0H   SFRSYM    DATA     BYTE      B
      00000091H   SFRSYM    DATA     BYTE      FUNCCR
      0000009AH   SFRSYM    DATA     BYTE      P0TRIS
      000000A1H   SFRSYM    DATA     BYTE      P1TRIS
      000000A2H   SFRSYM    DATA     BYTE      P2TRIS
      000000E0H   SFRSYM    DATA     BYTE      ACC
      000000A3H   SFRSYM    DATA     BYTE      P3TRIS
      000000A8H.4 SFRSYM    DATA     BIT       ES0
      000000A8H.6 SFRSYM    DATA     BIT       ES1
      000000A8H.1 SFRSYM    DATA     BIT       ET0
      000000EDH   SFRSYM    DATA     BYTE      SPSR
      000000A8H.3 SFRSYM    DATA     BIT       ET1
      00000088H.5 SFRSYM    DATA     BIT       TF0
      000000A8H.5 SFRSYM    DATA     BIT       ET2
      00000098H.0 SFRSYM    DATA     BIT       RI0
      00000088H.7 SFRSYM    DATA     BIT       TF1
      0000008CH   SFRSYM    DATA     BYTE      TH0
      000000A8H.0 SFRSYM    DATA     BIT       EX0
      00000098H.1 SFRSYM    DATA     BIT       TI0
      00000088H.0 SFRSYM    DATA     BIT       IT0
      0000008DH   SFRSYM    DATA     BYTE      TH1
      000000A8H.2 SFRSYM    DATA     BIT       EX1
      00000088H.2 SFRSYM    DATA     BIT       IT1
      000000CDH   SFRSYM    DATA     BYTE      TH2
      000000D0H.0 SFRSYM    DATA     BIT       P
LX51 LINKER/LOCATER V4.66.97.0                                                        11/10/2024  11:26:37  PAGE 20


      000000DBH   SFRSYM    DATA     BYTE      TH3
      000000E3H   SFRSYM    DATA     BYTE      TH4
      0000008AH   SFRSYM    DATA     BYTE      TL0
      0000008BH   SFRSYM    DATA     BYTE      TL1
      00000098H.2 SFRSYM    DATA     BIT       U0RB8
      000000CCH   SFRSYM    DATA     BYTE      TL2
      000000B8H.4 SFRSYM    DATA     BIT       PS0
      000000DAH   SFRSYM    DATA     BYTE      TL3
      000000BFH   SFRSYM    DATA     BYTE      BUZCON
      000000B8H.6 SFRSYM    DATA     BIT       PS1
      000000B8H.1 SFRSYM    DATA     BIT       PT0
      00000098H.3 SFRSYM    DATA     BIT       U0TB8
      000000E2H   SFRSYM    DATA     BYTE      TL4
      000000D0H.3 SFRSYM    DATA     BIT       RS0
      000000B8H.3 SFRSYM    DATA     BIT       PT1
      000000D0H.4 SFRSYM    DATA     BIT       RS1
      000000B8H.5 SFRSYM    DATA     BIT       PT2
      00000098H.7 SFRSYM    DATA     BIT       U0SM0
      00000088H.4 SFRSYM    DATA     BIT       TR0
      000000BEH   SFRSYM    DATA     BYTE      BUZDIV
      00000098H.6 SFRSYM    DATA     BIT       U0SM1
      00000088H.6 SFRSYM    DATA     BIT       TR1
      000000B8H.0 SFRSYM    DATA     BIT       PX0
      00000098H.5 SFRSYM    DATA     BIT       U0SM2
      000000B8H.2 SFRSYM    DATA     BIT       PX1
      000000BDH   SFRSYM    DATA     BYTE      WUTCRH
      00000099H   SFRSYM    DATA     BYTE      SBUF0
      000000EBH   SFRSYM    DATA     BYTE      SBUF1
      000000BCH   SFRSYM    DATA     BYTE      WUTCRL
      00000098H   SFRSYM    DATA     BYTE      SCON0
      000000EAH   SFRSYM    DATA     BYTE      SCON1
      000000C8H   SFRSYM    DATA     BYTE      T2CON
      00000086H   SFRSYM    DATA     BYTE      DPS
      000000FEH   SFRSYM    DATA     BYTE      MDATA
      000000F6H   SFRSYM    DATA     BYTE      I2CMBUF
      000000F1H   SFRSYM    DATA     BYTE      I2CSADR
      00000098H.4 SFRSYM    DATA     BIT       U0REN
      000000C8H.5 SFRSYM    DATA     BIT       CAPES
      000000FDH   SFRSYM    DATA     BYTE      MADRH
      0000008EH   SFRSYM    DATA     BYTE      CKCON
      000000F3H   SFRSYM    DATA     BYTE      I2CSBUF
      000000FCH   SFRSYM    DATA     BYTE      MADRL
      000000D0H.5 SFRSYM    DATA     BIT       F0
      000000FBH   SFRSYM    DATA     BYTE      MLOCK
      000000D0H   SFRSYM    DATA     BYTE      PSW
      00000097H   SFRSYM    DATA     BYTE      WDCON

      01002F6AH   BLOCK     CODE     ---       LVL=0
      01002F6AH   LINE      CODE     ---       #23
      01002F6AH   LINE      CODE     ---       #24
      01002F6AH   LINE      CODE     ---       #26
      01002F6DH   LINE      CODE     ---       #27
      01002F72H   LINE      CODE     ---       #29
      01002F75H   LINE      CODE     ---       #30
      01002F78H   LINE      CODE     ---       #31
      01002F7BH   LINE      CODE     ---       #32
      01002F7EH   LINE      CODE     ---       #33
      01002F81H   LINE      CODE     ---       #34
      01002F84H   LINE      CODE     ---       #35
      01002F87H   LINE      CODE     ---       #36
      01002F8AH   LINE      CODE     ---       #37
      01002F8DH   LINE      CODE     ---       #38
      01002F90H   LINE      CODE     ---       #39
      01002F93H   LINE      CODE     ---       #40
      01002F96H   LINE      CODE     ---       #41
LX51 LINKER/LOCATER V4.66.97.0                                                        11/10/2024  11:26:37  PAGE 21


      01002F9BH   LINE      CODE     ---       #43
      01002F9BH   LINE      CODE     ---       #44
      01002F9BH   LINE      CODE     ---       #46
      01002F9EH   LINE      CODE     ---       #47
      01002FA1H   LINE      CODE     ---       #48
      01002FA4H   LINE      CODE     ---       #49
      01002FA7H   LINE      CODE     ---       #50
      01002FAAH   LINE      CODE     ---       #51
      01002FADH   LINE      CODE     ---       #52
      01002FB0H   LINE      CODE     ---       #54
      01002FB3H   LINE      CODE     ---       #55
      01002FB5H   LINE      CODE     ---       #56
      01002FB8H   LINE      CODE     ---       #57
      01002FBBH   LINE      CODE     ---       #58
      01002FBEH   LINE      CODE     ---       #59
      01002FC1H   LINE      CODE     ---       #60
      01002FC4H   LINE      CODE     ---       #61
      01002FC7H   LINE      CODE     ---       #62
      01002FCAH   LINE      CODE     ---       #63
      01002FCDH   LINE      CODE     ---       #64
      01002FD0H   LINE      CODE     ---       #65
      01002FD3H   LINE      CODE     ---       #66
      ---         BLOCKEND  ---      ---       LVL=0

      01003383H   BLOCK     CODE     ---       LVL=0
      01003383H   LINE      CODE     ---       #70
      010033A0H   LINE      CODE     ---       #73
      010033AAH   LINE      CODE     ---       #74
      010033AAH   LINE      CODE     ---       #75
      010033ADH   LINE      CODE     ---       #76
      010033B4H   LINE      CODE     ---       #77
      010033B4H   LINE      CODE     ---       #78
      ---         BLOCKEND  ---      ---       LVL=0

      ---         MODULE    ---      ---       GPIO
      0100341AH   PUBLIC    CODE     ---       _GPIO_ClearIntFlag
      010032E0H   PUBLIC    CODE     ---       _GPIO_GetIntFlag
      01002EF8H   PUBLIC    CODE     ---       _GPIO_SetMUXMode
      01002AE0H   PUBLIC    CODE     ---       _GPIO_GetExtIntMode
      010031CFH   PUBLIC    CODE     ---       _GPIO_SetExtIntMode
      00000020H.7 PUBLIC    BIT      BIT       ?_GPIO_WriteBit?BIT
      010023B5H   PUBLIC    CODE     ---       _GPIO_WriteBit
      010039B4H   PUBLIC    CODE     ---       _GPIO_DisableInt
      0100384BH   PUBLIC    CODE     ---       _GPIO_CheckIfIntEnabled
      01003A58H   PUBLIC    CODE     ---       _GPIO_EnableInt
      01000CFBH   PUBLIC    CODE     ---       _GPIO_ConfigGPIOMode
      000000C8H.0 SFRSYM    DATA     BIT       T2I0
      000000C3H   SFRSYM    DATA     BYTE      CCH1
      00000080H   SFRSYM    DATA     BYTE      P0
      000000C8H.1 SFRSYM    DATA     BIT       T2I1
      000000C5H   SFRSYM    DATA     BYTE      CCH2
      00000090H   SFRSYM    DATA     BYTE      P1
      000000C7H   SFRSYM    DATA     BYTE      CCH3
      000000ACH   SFRSYM    DATA     BYTE      P0EXTIE
      000000A0H   SFRSYM    DATA     BYTE      P2
      000000B4H   SFRSYM    DATA     BYTE      P0EXTIF
      000000B0H   SFRSYM    DATA     BYTE      P3
      000000ADH   SFRSYM    DATA     BYTE      P1EXTIE
      000000D0H.6 SFRSYM    DATA     BIT       AC
      000000FFH   SFRSYM    DATA     BYTE      MCTRL
      000000C2H   SFRSYM    DATA     BYTE      CCL1
      000000B5H   SFRSYM    DATA     BYTE      P1EXTIF
      000000AEH   SFRSYM    DATA     BYTE      P2EXTIE
      000000C4H   SFRSYM    DATA     BYTE      CCL2
      000000B6H   SFRSYM    DATA     BYTE      P2EXTIF
LX51 LINKER/LOCATER V4.66.97.0                                                        11/10/2024  11:26:37  PAGE 22


      000000AFH   SFRSYM    DATA     BYTE      P3EXTIE
      000000A8H.7 SFRSYM    DATA     BIT       EA
      000000C6H   SFRSYM    DATA     BYTE      CCL3
      000000B7H   SFRSYM    DATA     BYTE      P3EXTIF
      000000AAH   SFRSYM    DATA     BYTE      EIE2
      000000B2H   SFRSYM    DATA     BYTE      EIF2
      000000C8H.3 SFRSYM    DATA     BIT       T2R0
      000000C8H.4 SFRSYM    DATA     BIT       T2R1
      00000083H   SFRSYM    DATA     BYTE      DPH0
      000000A8H   SFRSYM    DATA     BYTE      IE
      00000085H   SFRSYM    DATA     BYTE      DPH1
      000000B9H   SFRSYM    DATA     BYTE      EIP1
      000000BAH   SFRSYM    DATA     BYTE      EIP2
      00000082H   SFRSYM    DATA     BYTE      DPL0
      00000084H   SFRSYM    DATA     BYTE      DPL1
      000000C8H.6 SFRSYM    DATA     BIT       I3FR
      000000CFH   SFRSYM    DATA     BYTE      T2IE
      00000096H   SFRSYM    DATA     BYTE      TA
      000000C9H   SFRSYM    DATA     BYTE      T2IF
      000000C8H.2 SFRSYM    DATA     BIT       T2CM
      000000DFH   SFRSYM    DATA     BYTE      ADCON0
      000000DEH   SFRSYM    DATA     BYTE      ADCON1
      000000E9H   SFRSYM    DATA     BYTE      ADCON2
      000000B8H   SFRSYM    DATA     BYTE      IP
      000000CEH   SFRSYM    DATA     BYTE      CCEN
      000000D0H.7 SFRSYM    DATA     BIT       CY
      000000D2H   SFRSYM    DATA     BYTE      T34MOD
      00000093H   SFRSYM    DATA     BYTE      DPX0
      00000095H   SFRSYM    DATA     BYTE      DPX1
      000000F4H   SFRSYM    DATA     BYTE      I2CMSA
      000000F5H   SFRSYM    DATA     BYTE      I2CMCR
      00000081H   SFRSYM    DATA     BYTE      SP
      000000D0H.2 SFRSYM    DATA     BIT       OV
      000000F2H   SFRSYM    DATA     BYTE      I2CSCR
      000000C8H.7 SFRSYM    DATA     BIT       T2PS
      000000D1H   SFRSYM    DATA     BYTE      ADCMPC
      000000CBH   SFRSYM    DATA     BYTE      RLDH
      000000D5H   SFRSYM    DATA     BYTE      ADCMPH
      000000CAH   SFRSYM    DATA     BYTE      RLDL
      00000080H.0 SFRSYM    DATA     BIT       P00
      00000090H.0 SFRSYM    DATA     BIT       P10
      00000080H.1 SFRSYM    DATA     BIT       P01
      000000F7H   SFRSYM    DATA     BYTE      I2CMTP
      00000099H   SFRSYM    DATA     BYTE      SBUF
      00000087H   SFRSYM    DATA     BYTE      PCON
      000000A0H.0 SFRSYM    DATA     BIT       P20
      00000090H.1 SFRSYM    DATA     BIT       P11
      00000080H.2 SFRSYM    DATA     BIT       P02
      000000F5H   SFRSYM    DATA     BYTE      I2CMSR
      000000B0H.0 SFRSYM    DATA     BIT       P30
      000000A0H.1 SFRSYM    DATA     BIT       P21
      00000090H.2 SFRSYM    DATA     BIT       P12
      00000080H.3 SFRSYM    DATA     BIT       P03
      000000D4H   SFRSYM    DATA     BYTE      ADCMPL
      000000B0H.1 SFRSYM    DATA     BIT       P31
      000000A0H.2 SFRSYM    DATA     BIT       P22
      00000090H.3 SFRSYM    DATA     BIT       P13
      00000080H.4 SFRSYM    DATA     BIT       P04
      000000B0H.2 SFRSYM    DATA     BIT       P32
      000000A0H.3 SFRSYM    DATA     BIT       P23
      00000090H.4 SFRSYM    DATA     BIT       P14
      00000080H.5 SFRSYM    DATA     BIT       P05
      00000089H   SFRSYM    DATA     BYTE      TMOD
      00000088H   SFRSYM    DATA     BYTE      TCON
      000000B0H.3 SFRSYM    DATA     BIT       P33
LX51 LINKER/LOCATER V4.66.97.0                                                        11/10/2024  11:26:37  PAGE 23


      000000A0H.4 SFRSYM    DATA     BIT       P24
      00000090H.5 SFRSYM    DATA     BIT       P15
      00000080H.6 SFRSYM    DATA     BIT       P06
      000000B0H.4 SFRSYM    DATA     BIT       P34
      000000A0H.5 SFRSYM    DATA     BIT       P25
      00000090H.6 SFRSYM    DATA     BIT       P16
      00000080H.7 SFRSYM    DATA     BIT       P07
      000000B0H.5 SFRSYM    DATA     BIT       P35
      000000A0H.6 SFRSYM    DATA     BIT       P26
      00000090H.7 SFRSYM    DATA     BIT       P17
      000000F2H   SFRSYM    DATA     BYTE      I2CSSR
      000000B0H.6 SFRSYM    DATA     BIT       P36
      000000A0H.7 SFRSYM    DATA     BIT       P27
      000000ECH   SFRSYM    DATA     BYTE      SPCR
      000000DDH   SFRSYM    DATA     BYTE      ADRESH
      000000B0H.7 SFRSYM    DATA     BIT       P37
      000000EEH   SFRSYM    DATA     BYTE      SPDR
      000000EFH   SFRSYM    DATA     BYTE      SSCR
      000000D3H   SFRSYM    DATA     BYTE      ADDLYL
      000000DCH   SFRSYM    DATA     BYTE      ADRESL
      00000088H.1 SFRSYM    DATA     BIT       IE0
      00000088H.3 SFRSYM    DATA     BIT       IE1
      0000008FH   SFRSYM    DATA     BYTE      CLKDIV
      000000F0H   SFRSYM    DATA     BYTE      B
      00000091H   SFRSYM    DATA     BYTE      FUNCCR
      0000009AH   SFRSYM    DATA     BYTE      P0TRIS
      000000A1H   SFRSYM    DATA     BYTE      P1TRIS
      000000A2H   SFRSYM    DATA     BYTE      P2TRIS
      000000E0H   SFRSYM    DATA     BYTE      ACC
      000000A3H   SFRSYM    DATA     BYTE      P3TRIS
      000000A8H.4 SFRSYM    DATA     BIT       ES0
      000000A8H.6 SFRSYM    DATA     BIT       ES1
      000000A8H.1 SFRSYM    DATA     BIT       ET0
      000000EDH   SFRSYM    DATA     BYTE      SPSR
      000000A8H.3 SFRSYM    DATA     BIT       ET1
      00000088H.5 SFRSYM    DATA     BIT       TF0
      000000A8H.5 SFRSYM    DATA     BIT       ET2
      00000098H.0 SFRSYM    DATA     BIT       RI0
      00000088H.7 SFRSYM    DATA     BIT       TF1
      0000008CH   SFRSYM    DATA     BYTE      TH0
      000000A8H.0 SFRSYM    DATA     BIT       EX0
      00000098H.1 SFRSYM    DATA     BIT       TI0
      00000088H.0 SFRSYM    DATA     BIT       IT0
      0000008DH   SFRSYM    DATA     BYTE      TH1
      000000A8H.2 SFRSYM    DATA     BIT       EX1
      00000088H.2 SFRSYM    DATA     BIT       IT1
      000000CDH   SFRSYM    DATA     BYTE      TH2
      000000D0H.0 SFRSYM    DATA     BIT       P
      000000DBH   SFRSYM    DATA     BYTE      TH3
      000000E3H   SFRSYM    DATA     BYTE      TH4
      0000008AH   SFRSYM    DATA     BYTE      TL0
      0000008BH   SFRSYM    DATA     BYTE      TL1
      00000098H.2 SFRSYM    DATA     BIT       U0RB8
      000000CCH   SFRSYM    DATA     BYTE      TL2
      000000B8H.4 SFRSYM    DATA     BIT       PS0
      000000DAH   SFRSYM    DATA     BYTE      TL3
      000000BFH   SFRSYM    DATA     BYTE      BUZCON
      000000B8H.6 SFRSYM    DATA     BIT       PS1
      000000B8H.1 SFRSYM    DATA     BIT       PT0
      00000098H.3 SFRSYM    DATA     BIT       U0TB8
      000000E2H   SFRSYM    DATA     BYTE      TL4
      000000D0H.3 SFRSYM    DATA     BIT       RS0
      000000B8H.3 SFRSYM    DATA     BIT       PT1
      000000D0H.4 SFRSYM    DATA     BIT       RS1
      000000B8H.5 SFRSYM    DATA     BIT       PT2
LX51 LINKER/LOCATER V4.66.97.0                                                        11/10/2024  11:26:37  PAGE 24


      00000098H.7 SFRSYM    DATA     BIT       U0SM0
      00000088H.4 SFRSYM    DATA     BIT       TR0
      000000BEH   SFRSYM    DATA     BYTE      BUZDIV
      00000098H.6 SFRSYM    DATA     BIT       U0SM1
      00000088H.6 SFRSYM    DATA     BIT       TR1
      000000B8H.0 SFRSYM    DATA     BIT       PX0
      00000098H.5 SFRSYM    DATA     BIT       U0SM2
      000000B8H.2 SFRSYM    DATA     BIT       PX1
      000000BDH   SFRSYM    DATA     BYTE      WUTCRH
      00000099H   SFRSYM    DATA     BYTE      SBUF0
      000000EBH   SFRSYM    DATA     BYTE      SBUF1
      000000BCH   SFRSYM    DATA     BYTE      WUTCRL
      00000098H   SFRSYM    DATA     BYTE      SCON0
      000000EAH   SFRSYM    DATA     BYTE      SCON1
      000000C8H   SFRSYM    DATA     BYTE      T2CON
      00000086H   SFRSYM    DATA     BYTE      DPS
      000000FEH   SFRSYM    DATA     BYTE      MDATA
      000000F6H   SFRSYM    DATA     BYTE      I2CMBUF
      000000F1H   SFRSYM    DATA     BYTE      I2CSADR
      00000098H.4 SFRSYM    DATA     BIT       U0REN
      000000C8H.5 SFRSYM    DATA     BIT       CAPES
      000000FDH   SFRSYM    DATA     BYTE      MADRH
      0000008EH   SFRSYM    DATA     BYTE      CKCON
      000000F3H   SFRSYM    DATA     BYTE      I2CSBUF
      000000FCH   SFRSYM    DATA     BYTE      MADRL
      000000D0H.5 SFRSYM    DATA     BIT       F0
      000000FBH   SFRSYM    DATA     BYTE      MLOCK
      000000D0H   SFRSYM    DATA     BYTE      PSW
      00000097H   SFRSYM    DATA     BYTE      WDCON

      0100251AH   BLOCK     CODE     ---       LVL=0
      ---         BLOCKEND  ---      ---       LVL=0

      01000CFBH   BLOCK     CODE     ---       LVL=0
      00000028H   SYMBOL    DATA     BYTE      Port
      00000005H   SYMBOL    DATA     BYTE      PinMSK
      00000001H   SYMBOL    DATA     ---       Cfg
      01000CFDH   BLOCK     CODE     NEAR LAB  LVL=1
      00000029H   SYMBOL    DATA     INT       TRISMSK
      0000002BH   SYMBOL    DATA     INT       ODMSK
      0000002DH   SYMBOL    DATA     INT       UPMSK
      0000002FH   SYMBOL    DATA     INT       RDMSK
      00000006H   SYMBOL    DATA     INT       DRMSK
      00000031H   SYMBOL    DATA     INT       SRMSK
      ---         BLOCKEND  ---      ---       LVL=1
      01000CFBH   LINE      CODE     ---       #77
      01000CFDH   LINE      CODE     ---       #78
      01000CFDH   LINE      CODE     ---       #82
      01000D11H   LINE      CODE     ---       #83
      01000D11H   LINE      CODE     ---       #84
      01000D11H   LINE      CODE     ---       #85
      01000D11H   LINE      CODE     ---       #86
      01000D11H   LINE      CODE     ---       #87
      01000D14H   LINE      CODE     ---       #88
      01000D17H   LINE      CODE     ---       #89
      01000D19H   LINE      CODE     ---       #90
      01000D19H   LINE      CODE     ---       #91
      01000D19H   LINE      CODE     ---       #92
      01000D19H   LINE      CODE     ---       #93
      01000D25H   LINE      CODE     ---       #94
      01000D2DH   LINE      CODE     ---       #95
      01000D2FH   LINE      CODE     ---       #96
      01000D2FH   LINE      CODE     ---       #97
      01000D2FH   LINE      CODE     ---       #98
      01000D2FH   LINE      CODE     ---       #99
LX51 LINKER/LOCATER V4.66.97.0                                                        11/10/2024  11:26:37  PAGE 25


      01000D3BH   LINE      CODE     ---       #100
      01000D45H   LINE      CODE     ---       #101
      01000D47H   LINE      CODE     ---       #102
      01000D47H   LINE      CODE     ---       #103
      01000D47H   LINE      CODE     ---       #104
      01000D48H   LINE      CODE     ---       #105
      01000D4EH   LINE      CODE     ---       #106
      01000D58H   LINE      CODE     ---       #107
      01000D6DH   LINE      CODE     ---       #108
      01000D6DH   LINE      CODE     ---       #109
      01000D85H   LINE      CODE     ---       #110
      01000D99H   LINE      CODE     ---       #112
      01000DB4H   LINE      CODE     ---       #113
      01000DB4H   LINE      CODE     ---       #114
      01000DB4H   LINE      CODE     ---       #115
      01000DC7H   LINE      CODE     ---       #116
      01000DDFH   LINE      CODE     ---       #117
      01000DF4H   LINE      CODE     ---       #118
      01000E09H   LINE      CODE     ---       #119
      01000E1FH   LINE      CODE     ---       #120
      01000E36H   LINE      CODE     ---       #121
      01000E37H   LINE      CODE     ---       #122
      01000E37H   LINE      CODE     ---       #123
      01000E4AH   LINE      CODE     ---       #124
      01000E62H   LINE      CODE     ---       #125
      01000E77H   LINE      CODE     ---       #126
      01000E8CH   LINE      CODE     ---       #127
      01000EA2H   LINE      CODE     ---       #128
      01000EB9H   LINE      CODE     ---       #129
      01000EBAH   LINE      CODE     ---       #130
      01000EBAH   LINE      CODE     ---       #131
      01000ECDH   LINE      CODE     ---       #132
      01000EE5H   LINE      CODE     ---       #133
      01000EFAH   LINE      CODE     ---       #134
      01000F0FH   LINE      CODE     ---       #135
      01000F25H   LINE      CODE     ---       #136
      01000F3CH   LINE      CODE     ---       #137
      01000F3DH   LINE      CODE     ---       #138
      01000F3DH   LINE      CODE     ---       #139
      01000F50H   LINE      CODE     ---       #140
      01000F68H   LINE      CODE     ---       #141
      01000F7DH   LINE      CODE     ---       #142
      01000F92H   LINE      CODE     ---       #143
      01000FABH   LINE      CODE     ---       #144
      01000FC7H   LINE      CODE     ---       #145
      01000FC7H   LINE      CODE     ---       #146
      01000FC7H   LINE      CODE     ---       #147
      ---         BLOCKEND  ---      ---       LVL=0

      01003A58H   BLOCK     CODE     ---       LVL=0
      00000007H   SYMBOL    DATA     BYTE      Port
      00000005H   SYMBOL    DATA     BYTE      PinMSK
      01003A58H   LINE      CODE     ---       #161
      01003A58H   LINE      CODE     ---       #162
      01003A58H   LINE      CODE     ---       #163
      01003A66H   LINE      CODE     ---       #164
      01003A66H   LINE      CODE     ---       #165
      01003A66H   LINE      CODE     ---       #166
      01003A69H   LINE      CODE     ---       #167
      01003A6AH   LINE      CODE     ---       #168
      01003A6AH   LINE      CODE     ---       #169
      01003A6DH   LINE      CODE     ---       #170
      01003A6EH   LINE      CODE     ---       #171
      01003A6EH   LINE      CODE     ---       #172
      01003A71H   LINE      CODE     ---       #173
LX51 LINKER/LOCATER V4.66.97.0                                                        11/10/2024  11:26:37  PAGE 26


      01003A72H   LINE      CODE     ---       #174
      01003A72H   LINE      CODE     ---       #175
      01003A75H   LINE      CODE     ---       #176
      01003A75H   LINE      CODE     ---       #177
      01003A75H   LINE      CODE     ---       #178
      01003A75H   LINE      CODE     ---       #179
      01003A75H   LINE      CODE     ---       #180
      ---         BLOCKEND  ---      ---       LVL=0

      0100384BH   BLOCK     CODE     ---       LVL=0
      00000007H   SYMBOL    DATA     BYTE      Port
      00000005H   SYMBOL    DATA     BYTE      PinMSK
      0100384BH   LINE      CODE     ---       #193
      0100384BH   LINE      CODE     ---       #194
      0100384BH   LINE      CODE     ---       #195
      01003859H   LINE      CODE     ---       #196
      01003859H   LINE      CODE     ---       #197
      01003859H   LINE      CODE     ---       #198
      01003860H   LINE      CODE     ---       #199
      01003860H   LINE      CODE     ---       #200
      01003860H   LINE      CODE     ---       #201
      01003867H   LINE      CODE     ---       #202
      01003867H   LINE      CODE     ---       #203
      01003867H   LINE      CODE     ---       #204
      0100386EH   LINE      CODE     ---       #205
      0100386EH   LINE      CODE     ---       #206
      0100386EH   LINE      CODE     ---       #207
      01003875H   LINE      CODE     ---       #208
      01003875H   LINE      CODE     ---       #209
      01003875H   LINE      CODE     ---       #211
      01003876H   LINE      CODE     ---       #212
      ---         BLOCKEND  ---      ---       LVL=0

      010039B4H   BLOCK     CODE     ---       LVL=0
      00000007H   SYMBOL    DATA     BYTE      Port
      00000005H   SYMBOL    DATA     BYTE      PinMSK
      010039B4H   LINE      CODE     ---       #225
      010039B4H   LINE      CODE     ---       #226
      010039B4H   LINE      CODE     ---       #227
      010039C2H   LINE      CODE     ---       #228
      010039C2H   LINE      CODE     ---       #229
      010039C2H   LINE      CODE     ---       #230
      010039C6H   LINE      CODE     ---       #231
      010039C7H   LINE      CODE     ---       #232
      010039C7H   LINE      CODE     ---       #233
      010039CBH   LINE      CODE     ---       #234
      010039CCH   LINE      CODE     ---       #235
      010039CCH   LINE      CODE     ---       #236
      010039D0H   LINE      CODE     ---       #237
      010039D1H   LINE      CODE     ---       #238
      010039D1H   LINE      CODE     ---       #239
      010039D5H   LINE      CODE     ---       #240
      010039D5H   LINE      CODE     ---       #241
      010039D5H   LINE      CODE     ---       #242
      010039D5H   LINE      CODE     ---       #243
      010039D5H   LINE      CODE     ---       #244
      ---         BLOCKEND  ---      ---       LVL=0

      010023B5H   BLOCK     CODE     ---       LVL=0
      00000007H   SYMBOL    DATA     BYTE      Port
      00000005H   SYMBOL    DATA     BYTE      PinNum
      00000020H.7 SYMBOL    BIT      BIT       Val
      010023B5H   LINE      CODE     ---       #259
      010023B5H   LINE      CODE     ---       #260
      010023B5H   LINE      CODE     ---       #261
LX51 LINKER/LOCATER V4.66.97.0                                                        11/10/2024  11:26:37  PAGE 27


      010023C9H   LINE      CODE     ---       #262
      010023C9H   LINE      CODE     ---       #263
      010023C9H   LINE      CODE     ---       #264
      010023D1H   LINE      CODE     ---       #265
      010023E2H   LINE      CODE     ---       #266
      010023F0H   LINE      CODE     ---       #267
      010023F1H   LINE      CODE     ---       #268
      010023F1H   LINE      CODE     ---       #269
      010023FBH   LINE      CODE     ---       #270
      0100240CH   LINE      CODE     ---       #271
      0100241AH   LINE      CODE     ---       #272
      0100241BH   LINE      CODE     ---       #273
      0100241BH   LINE      CODE     ---       #274
      01002425H   LINE      CODE     ---       #275
      01002436H   LINE      CODE     ---       #276
      01002444H   LINE      CODE     ---       #277
      01002445H   LINE      CODE     ---       #278
      01002445H   LINE      CODE     ---       #279
      0100244BH   LINE      CODE     ---       #280
      0100245CH   LINE      CODE     ---       #281
      01002468H   LINE      CODE     ---       #282
      01002468H   LINE      CODE     ---       #283
      01002468H   LINE      CODE     ---       #284
      01002468H   LINE      CODE     ---       #285
      ---         BLOCKEND  ---      ---       LVL=0

      010031CFH   BLOCK     CODE     ---       LVL=0
      00000007H   SYMBOL    DATA     BYTE      Port
      00000005H   SYMBOL    DATA     BYTE      PinNum
      00000003H   SYMBOL    DATA     BYTE      Mode
      010031CFH   BLOCK     CODE     NEAR LAB  LVL=1
      00000026H   SYMBOL    DATA     ---       PCFG
      ---         BLOCKEND  ---      ---       LVL=1
      010031CFH   LINE      CODE     ---       #302
      010031CFH   LINE      CODE     ---       #303
      010031CFH   LINE      CODE     ---       #306
      010031D6H   LINE      CODE     ---       #308
      010031E4H   LINE      CODE     ---       #309
      010031E4H   LINE      CODE     ---       #310
      010031E4H   LINE      CODE     ---       #311
      010031E9H   LINE      CODE     ---       #312
      010031ECH   LINE      CODE     ---       #313
      010031EEH   LINE      CODE     ---       #314
      010031EEH   LINE      CODE     ---       #315
      010031F8H   LINE      CODE     ---       #316
      010031FBH   LINE      CODE     ---       #317
      010031FDH   LINE      CODE     ---       #318
      010031FDH   LINE      CODE     ---       #319
      01003207H   LINE      CODE     ---       #320
      0100320DH   LINE      CODE     ---       #321
      0100320FH   LINE      CODE     ---       #322
      0100320FH   LINE      CODE     ---       #323
      01003215H   LINE      CODE     ---       #324
      0100321FH   LINE      CODE     ---       #325
      0100321FH   LINE      CODE     ---       #326
      0100321FH   LINE      CODE     ---       #327
      0100321FH   LINE      CODE     ---       #328
      01003229H   LINE      CODE     ---       #329
      ---         BLOCKEND  ---      ---       LVL=0

      01002AE0H   BLOCK     CODE     ---       LVL=0
      00000007H   SYMBOL    DATA     BYTE      Port
      00000005H   SYMBOL    DATA     BYTE      PinNum
      01002AE0H   BLOCK     CODE     NEAR LAB  LVL=1
      00000004H   SYMBOL    DATA     BYTE      flag
LX51 LINKER/LOCATER V4.66.97.0                                                        11/10/2024  11:26:37  PAGE 28


      00000002H   SYMBOL    DATA     ---       PCFG
      ---         BLOCKEND  ---      ---       LVL=1
      01002AE0H   LINE      CODE     ---       #347
      01002AE0H   LINE      CODE     ---       #348
      01002AE0H   LINE      CODE     ---       #352
      01002AEEH   LINE      CODE     ---       #353
      01002AEEH   LINE      CODE     ---       #354
      01002AEEH   LINE      CODE     ---       #355
      01002AF5H   LINE      CODE     ---       #356
      01002AF8H   LINE      CODE     ---       #357
      01002B04H   LINE      CODE     ---       #358
      01002B06H   LINE      CODE     ---       #359
      01002B06H   LINE      CODE     ---       #360
      01002B12H   LINE      CODE     ---       #361
      01002B15H   LINE      CODE     ---       #362
      01002B21H   LINE      CODE     ---       #363
      01002B23H   LINE      CODE     ---       #364
      01002B23H   LINE      CODE     ---       #365
      01002B2FH   LINE      CODE     ---       #366
      01002B32H   LINE      CODE     ---       #367
      01002B3EH   LINE      CODE     ---       #368
      01002B40H   LINE      CODE     ---       #369
      01002B40H   LINE      CODE     ---       #370
      01002B48H   LINE      CODE     ---       #371
      01002B50H   LINE      CODE     ---       #372
      01002B5CH   LINE      CODE     ---       #373
      01002B5EH   LINE      CODE     ---       #374
      01002B62H   LINE      CODE     ---       #375
      01002B62H   LINE      CODE     ---       #377
      01002B68H   LINE      CODE     ---       #378
      01002B72H   LINE      CODE     ---       #379
      ---         BLOCKEND  ---      ---       LVL=0

      01002EF8H   BLOCK     CODE     ---       LVL=0
      00000007H   SYMBOL    DATA     BYTE      Port
      00000005H   SYMBOL    DATA     BYTE      PinNum
      00000003H   SYMBOL    DATA     BYTE      Mode
      01002EF8H   BLOCK     CODE     NEAR LAB  LVL=1
      00000028H   SYMBOL    DATA     ---       PCFG
      ---         BLOCKEND  ---      ---       LVL=1
      01002EF8H   LINE      CODE     ---       #418
      01002EF8H   LINE      CODE     ---       #419
      01002EF8H   LINE      CODE     ---       #422
      01002F05H   LINE      CODE     ---       #423
      01002F16H   LINE      CODE     ---       #425
      01002F24H   LINE      CODE     ---       #426
      01002F24H   LINE      CODE     ---       #427
      01002F24H   LINE      CODE     ---       #428
      01002F29H   LINE      CODE     ---       #429
      01002F2CH   LINE      CODE     ---       #430
      01002F2EH   LINE      CODE     ---       #431
      01002F2EH   LINE      CODE     ---       #432
      01002F38H   LINE      CODE     ---       #433
      01002F3BH   LINE      CODE     ---       #434
      01002F3DH   LINE      CODE     ---       #435
      01002F3DH   LINE      CODE     ---       #436
      01002F47H   LINE      CODE     ---       #437
      01002F4DH   LINE      CODE     ---       #438
      01002F4FH   LINE      CODE     ---       #439
      01002F4FH   LINE      CODE     ---       #440
      01002F55H   LINE      CODE     ---       #441
      01002F5FH   LINE      CODE     ---       #442
      01002F5FH   LINE      CODE     ---       #443
      01002F5FH   LINE      CODE     ---       #444
      01002F5FH   LINE      CODE     ---       #445
LX51 LINKER/LOCATER V4.66.97.0                                                        11/10/2024  11:26:37  PAGE 29


      01002F69H   LINE      CODE     ---       #446
      ---         BLOCKEND  ---      ---       LVL=0

      010032E0H   BLOCK     CODE     ---       LVL=0
      00000007H   SYMBOL    DATA     BYTE      Port
      00000005H   SYMBOL    DATA     BYTE      PinNum
      010032E0H   BLOCK     CODE     NEAR LAB  LVL=1
      00000006H   SYMBOL    DATA     BYTE      PinIntFlag
      ---         BLOCKEND  ---      ---       LVL=1
      010032E0H   LINE      CODE     ---       #461
      010032E0H   LINE      CODE     ---       #462
      010032E0H   LINE      CODE     ---       #463
      010032E2H   LINE      CODE     ---       #464
      010032F0H   LINE      CODE     ---       #465
      010032F0H   LINE      CODE     ---       #466
      010032F0H   LINE      CODE     ---       #467
      010032FEH   LINE      CODE     ---       #468
      01003300H   LINE      CODE     ---       #469
      01003300H   LINE      CODE     ---       #470
      0100330EH   LINE      CODE     ---       #471
      01003310H   LINE      CODE     ---       #472
      01003310H   LINE      CODE     ---       #473
      0100331EH   LINE      CODE     ---       #474
      01003320H   LINE      CODE     ---       #475
      01003320H   LINE      CODE     ---       #476
      0100332CH   LINE      CODE     ---       #477
      0100332CH   LINE      CODE     ---       #478
      0100332CH   LINE      CODE     ---       #479
      0100332CH   LINE      CODE     ---       #480
      0100332CH   LINE      CODE     ---       #481
      01003333H   LINE      CODE     ---       #482
      ---         BLOCKEND  ---      ---       LVL=0

      0100341AH   BLOCK     CODE     ---       LVL=0
      00000007H   SYMBOL    DATA     BYTE      Port
      00000005H   SYMBOL    DATA     BYTE      PinNum
      0100341AH   LINE      CODE     ---       #495
      0100341AH   LINE      CODE     ---       #496
      0100341AH   LINE      CODE     ---       #497
      01003428H   LINE      CODE     ---       #498
      01003428H   LINE      CODE     ---       #499
      01003428H   LINE      CODE     ---       #500
      01003436H   LINE      CODE     ---       #501
      01003437H   LINE      CODE     ---       #502
      01003437H   LINE      CODE     ---       #503
      01003445H   LINE      CODE     ---       #504
      01003446H   LINE      CODE     ---       #505
      01003446H   LINE      CODE     ---       #506
      01003454H   LINE      CODE     ---       #507
      01003455H   LINE      CODE     ---       #508
      01003455H   LINE      CODE     ---       #509
      01003461H   LINE      CODE     ---       #510
      01003461H   LINE      CODE     ---       #511
      01003461H   LINE      CODE     ---       #512
      01003461H   LINE      CODE     ---       #513
      01003461H   LINE      CODE     ---       #514
      ---         BLOCKEND  ---      ---       LVL=0

      ---         MODULE    ---      ---       ADCCFG
      00000009H   PUBLIC    DATA     ---       Data
      02000037H   PUBLIC    XDATA    BYTE      IsNotAllowAsync
      01003DE4H   PUBLIC    CONST    ---       ADCChQueue
      0100286DH   PUBLIC    CODE     ---       ADC_Init
      010025C7H   PUBLIC    CODE     ---       ADC_DeInit
      01000047H   PUBLIC    CODE     ---       SystemTelemHandler
LX51 LINKER/LOCATER V4.66.97.0                                                        11/10/2024  11:26:37  PAGE 30


      000000C8H.0 SFRSYM    DATA     BIT       T2I0
      000000C3H   SFRSYM    DATA     BYTE      CCH1
      00000080H   SFRSYM    DATA     BYTE      P0
      000000C8H.1 SFRSYM    DATA     BIT       T2I1
      000000C5H   SFRSYM    DATA     BYTE      CCH2
      00000090H   SFRSYM    DATA     BYTE      P1
      000000C7H   SFRSYM    DATA     BYTE      CCH3
      000000ACH   SFRSYM    DATA     BYTE      P0EXTIE
      000000A0H   SFRSYM    DATA     BYTE      P2
      000000B4H   SFRSYM    DATA     BYTE      P0EXTIF
      000000B0H   SFRSYM    DATA     BYTE      P3
      000000ADH   SFRSYM    DATA     BYTE      P1EXTIE
      000000D0H.6 SFRSYM    DATA     BIT       AC
      000000FFH   SFRSYM    DATA     BYTE      MCTRL
      000000C2H   SFRSYM    DATA     BYTE      CCL1
      000000B5H   SFRSYM    DATA     BYTE      P1EXTIF
      000000AEH   SFRSYM    DATA     BYTE      P2EXTIE
      000000C4H   SFRSYM    DATA     BYTE      CCL2
      000000B6H   SFRSYM    DATA     BYTE      P2EXTIF
      000000AFH   SFRSYM    DATA     BYTE      P3EXTIE
      000000A8H.7 SFRSYM    DATA     BIT       EA
      000000C6H   SFRSYM    DATA     BYTE      CCL3
      000000B7H   SFRSYM    DATA     BYTE      P3EXTIF
      000000AAH   SFRSYM    DATA     BYTE      EIE2
      000000B2H   SFRSYM    DATA     BYTE      EIF2
      000000C8H.3 SFRSYM    DATA     BIT       T2R0
      000000C8H.4 SFRSYM    DATA     BIT       T2R1
      00000083H   SFRSYM    DATA     BYTE      DPH0
      000000A8H   SFRSYM    DATA     BYTE      IE
      00000085H   SFRSYM    DATA     BYTE      DPH1
      000000B9H   SFRSYM    DATA     BYTE      EIP1
      000000BAH   SFRSYM    DATA     BYTE      EIP2
      00000082H   SFRSYM    DATA     BYTE      DPL0
      00000084H   SFRSYM    DATA     BYTE      DPL1
      000000C8H.6 SFRSYM    DATA     BIT       I3FR
      000000CFH   SFRSYM    DATA     BYTE      T2IE
      00000096H   SFRSYM    DATA     BYTE      TA
      000000C9H   SFRSYM    DATA     BYTE      T2IF
      000000C8H.2 SFRSYM    DATA     BIT       T2CM
      000000DFH   SFRSYM    DATA     BYTE      ADCON0
      000000DEH   SFRSYM    DATA     BYTE      ADCON1
      000000E9H   SFRSYM    DATA     BYTE      ADCON2
      000000B8H   SFRSYM    DATA     BYTE      IP
      000000CEH   SFRSYM    DATA     BYTE      CCEN
      000000D0H.7 SFRSYM    DATA     BIT       CY
      000000D2H   SFRSYM    DATA     BYTE      T34MOD
      00000093H   SFRSYM    DATA     BYTE      DPX0
      00000095H   SFRSYM    DATA     BYTE      DPX1
      000000F4H   SFRSYM    DATA     BYTE      I2CMSA
      000000F5H   SFRSYM    DATA     BYTE      I2CMCR
      00000081H   SFRSYM    DATA     BYTE      SP
      000000D0H.2 SFRSYM    DATA     BIT       OV
      000000F2H   SFRSYM    DATA     BYTE      I2CSCR
      000000C8H.7 SFRSYM    DATA     BIT       T2PS
      000000D1H   SFRSYM    DATA     BYTE      ADCMPC
      000000CBH   SFRSYM    DATA     BYTE      RLDH
      000000D5H   SFRSYM    DATA     BYTE      ADCMPH
      000000CAH   SFRSYM    DATA     BYTE      RLDL
      00000080H.0 SFRSYM    DATA     BIT       P00
      00000090H.0 SFRSYM    DATA     BIT       P10
      00000080H.1 SFRSYM    DATA     BIT       P01
      000000F7H   SFRSYM    DATA     BYTE      I2CMTP
      00000099H   SFRSYM    DATA     BYTE      SBUF
      00000087H   SFRSYM    DATA     BYTE      PCON
      000000A0H.0 SFRSYM    DATA     BIT       P20
LX51 LINKER/LOCATER V4.66.97.0                                                        11/10/2024  11:26:37  PAGE 31


      00000090H.1 SFRSYM    DATA     BIT       P11
      00000080H.2 SFRSYM    DATA     BIT       P02
      000000F5H   SFRSYM    DATA     BYTE      I2CMSR
      000000B0H.0 SFRSYM    DATA     BIT       P30
      000000A0H.1 SFRSYM    DATA     BIT       P21
      00000090H.2 SFRSYM    DATA     BIT       P12
      00000080H.3 SFRSYM    DATA     BIT       P03
      000000D4H   SFRSYM    DATA     BYTE      ADCMPL
      000000B0H.1 SFRSYM    DATA     BIT       P31
      000000A0H.2 SFRSYM    DATA     BIT       P22
      00000090H.3 SFRSYM    DATA     BIT       P13
      00000080H.4 SFRSYM    DATA     BIT       P04
      000000B0H.2 SFRSYM    DATA     BIT       P32
      000000A0H.3 SFRSYM    DATA     BIT       P23
      00000090H.4 SFRSYM    DATA     BIT       P14
      00000080H.5 SFRSYM    DATA     BIT       P05
      00000089H   SFRSYM    DATA     BYTE      TMOD
      00000088H   SFRSYM    DATA     BYTE      TCON
      000000B0H.3 SFRSYM    DATA     BIT       P33
      000000A0H.4 SFRSYM    DATA     BIT       P24
      00000090H.5 SFRSYM    DATA     BIT       P15
      00000080H.6 SFRSYM    DATA     BIT       P06
      000000B0H.4 SFRSYM    DATA     BIT       P34
      000000A0H.5 SFRSYM    DATA     BIT       P25
      00000090H.6 SFRSYM    DATA     BIT       P16
      00000080H.7 SFRSYM    DATA     BIT       P07
      000000B0H.5 SFRSYM    DATA     BIT       P35
      000000A0H.6 SFRSYM    DATA     BIT       P26
      00000090H.7 SFRSYM    DATA     BIT       P17
      000000F2H   SFRSYM    DATA     BYTE      I2CSSR
      000000B0H.6 SFRSYM    DATA     BIT       P36
      000000A0H.7 SFRSYM    DATA     BIT       P27
      000000ECH   SFRSYM    DATA     BYTE      SPCR
      000000DDH   SFRSYM    DATA     BYTE      ADRESH
      000000B0H.7 SFRSYM    DATA     BIT       P37
      000000EEH   SFRSYM    DATA     BYTE      SPDR
      000000EFH   SFRSYM    DATA     BYTE      SSCR
      000000D3H   SFRSYM    DATA     BYTE      ADDLYL
      000000DCH   SFRSYM    DATA     BYTE      ADRESL
      00000088H.1 SFRSYM    DATA     BIT       IE0
      00000088H.3 SFRSYM    DATA     BIT       IE1
      0000008FH   SFRSYM    DATA     BYTE      CLKDIV
      000000F0H   SFRSYM    DATA     BYTE      B
      00000091H   SFRSYM    DATA     BYTE      FUNCCR
      0000009AH   SFRSYM    DATA     BYTE      P0TRIS
      000000A1H   SFRSYM    DATA     BYTE      P1TRIS
      000000A2H   SFRSYM    DATA     BYTE      P2TRIS
      000000E0H   SFRSYM    DATA     BYTE      ACC
      000000A3H   SFRSYM    DATA     BYTE      P3TRIS
      000000A8H.4 SFRSYM    DATA     BIT       ES0
      000000A8H.6 SFRSYM    DATA     BIT       ES1
      000000A8H.1 SFRSYM    DATA     BIT       ET0
      000000EDH   SFRSYM    DATA     BYTE      SPSR
      000000A8H.3 SFRSYM    DATA     BIT       ET1
      00000088H.5 SFRSYM    DATA     BIT       TF0
      000000A8H.5 SFRSYM    DATA     BIT       ET2
      00000098H.0 SFRSYM    DATA     BIT       RI0
      00000088H.7 SFRSYM    DATA     BIT       TF1
      0000008CH   SFRSYM    DATA     BYTE      TH0
      000000A8H.0 SFRSYM    DATA     BIT       EX0
      00000098H.1 SFRSYM    DATA     BIT       TI0
      00000088H.0 SFRSYM    DATA     BIT       IT0
      0000008DH   SFRSYM    DATA     BYTE      TH1
      000000A8H.2 SFRSYM    DATA     BIT       EX1
      00000088H.2 SFRSYM    DATA     BIT       IT1
LX51 LINKER/LOCATER V4.66.97.0                                                        11/10/2024  11:26:37  PAGE 32


      000000CDH   SFRSYM    DATA     BYTE      TH2
      000000D0H.0 SFRSYM    DATA     BIT       P
      000000DBH   SFRSYM    DATA     BYTE      TH3
      000000E3H   SFRSYM    DATA     BYTE      TH4
      0000008AH   SFRSYM    DATA     BYTE      TL0
      0000008BH   SFRSYM    DATA     BYTE      TL1
      00000098H.2 SFRSYM    DATA     BIT       U0RB8
      000000CCH   SFRSYM    DATA     BYTE      TL2
      000000B8H.4 SFRSYM    DATA     BIT       PS0
      000000DAH   SFRSYM    DATA     BYTE      TL3
      000000BFH   SFRSYM    DATA     BYTE      BUZCON
      000000B8H.6 SFRSYM    DATA     BIT       PS1
      000000B8H.1 SFRSYM    DATA     BIT       PT0
      00000098H.3 SFRSYM    DATA     BIT       U0TB8
      000000E2H   SFRSYM    DATA     BYTE      TL4
      000000D0H.3 SFRSYM    DATA     BIT       RS0
      000000B8H.3 SFRSYM    DATA     BIT       PT1
      000000D0H.4 SFRSYM    DATA     BIT       RS1
      000000B8H.5 SFRSYM    DATA     BIT       PT2
      00000098H.7 SFRSYM    DATA     BIT       U0SM0
      00000088H.4 SFRSYM    DATA     BIT       TR0
      000000BEH   SFRSYM    DATA     BYTE      BUZDIV
      00000098H.6 SFRSYM    DATA     BIT       U0SM1
      00000088H.6 SFRSYM    DATA     BIT       TR1
      000000B8H.0 SFRSYM    DATA     BIT       PX0
      00000098H.5 SFRSYM    DATA     BIT       U0SM2
      000000B8H.2 SFRSYM    DATA     BIT       PX1
      000000BDH   SFRSYM    DATA     BYTE      WUTCRH
      00000099H   SFRSYM    DATA     BYTE      SBUF0
      000000EBH   SFRSYM    DATA     BYTE      SBUF1
      000000BCH   SFRSYM    DATA     BYTE      WUTCRL
      00000098H   SFRSYM    DATA     BYTE      SCON0
      000000EAH   SFRSYM    DATA     BYTE      SCON1
      000000C8H   SFRSYM    DATA     BYTE      T2CON
      00000086H   SFRSYM    DATA     BYTE      DPS
      000000FEH   SFRSYM    DATA     BYTE      MDATA
      000000F6H   SFRSYM    DATA     BYTE      I2CMBUF
      000000F1H   SFRSYM    DATA     BYTE      I2CSADR
      00000098H.4 SFRSYM    DATA     BIT       U0REN
      000000C8H.5 SFRSYM    DATA     BIT       CAPES
      000000FDH   SFRSYM    DATA     BYTE      MADRH
      0000008EH   SFRSYM    DATA     BYTE      CKCON
      000000F3H   SFRSYM    DATA     BYTE      I2CSBUF
      000000FCH   SFRSYM    DATA     BYTE      MADRL
      000000D0H.5 SFRSYM    DATA     BIT       F0
      000000FBH   SFRSYM    DATA     BYTE      MLOCK
      000000D0H   SFRSYM    DATA     BYTE      PSW
      00000097H   SFRSYM    DATA     BYTE      WDCON
      01003AA7H   SYMBOL    CODE     ---       ADC_SetVREF
      01002720H   SYMBOL    CODE     ---       _ADC_ReadBackResult
      01003334H   SYMBOL    CODE     ---       _ADC_SubmitMisson
      0200002BH   SYMBOL    XDATA    ---       ADCConvertQueue
      00000008H   SYMBOL    DATA     BYTE      ADCState
      0200002FH   SYMBOL    XDATA    ---       ADCTemp
      01001B79H   SYMBOL    CODE     ---       ADCEngineHandler
      010017CFH   SYMBOL    CODE     ---       _ADC_WriteOutputBuf

      01003171H   BLOCK     CODE     ---       LVL=0
      ---         BLOCKEND  ---      ---       LVL=0

      01003334H   BLOCK     CODE     ---       LVL=0
      00000003H   SYMBOL    DATA     CHAR      Ch
      01003334H   LINE      CODE     ---       #18
      01003336H   LINE      CODE     ---       #19
      01003336H   LINE      CODE     ---       #21
LX51 LINKER/LOCATER V4.66.97.0                                                        11/10/2024  11:26:37  PAGE 33


      0100333CH   LINE      CODE     ---       #22
      01003351H   LINE      CODE     ---       #24
      0100335BH   LINE      CODE     ---       #25
      0100335BH   LINE      CODE     ---       #26
      01003360H   LINE      CODE     ---       #27
      01003364H   LINE      CODE     ---       #29
      0100336DH   LINE      CODE     ---       #30
      01003370H   LINE      CODE     ---       #31
      01003373H   LINE      CODE     ---       #32
      01003378H   LINE      CODE     ---       #34
      0100337FH   LINE      CODE     ---       #35
      01003382H   LINE      CODE     ---       #36
      ---         BLOCKEND  ---      ---       LVL=0

      01002720H   BLOCK     CODE     ---       LVL=0
      00000034H   SYMBOL    DATA     ---       Result
      00000037H   SYMBOL    DATA     ---       Queue
      01002720H   LINE      CODE     ---       #39
      01002726H   LINE      CODE     ---       #40
      01002726H   LINE      CODE     ---       #42
      0100272DH   LINE      CODE     ---       #44
      0100273BH   LINE      CODE     ---       #45
      01002769H   LINE      CODE     ---       #46
      0100277AH   LINE      CODE     ---       #47
      0100277AH   LINE      CODE     ---       #48
      0100277DH   LINE      CODE     ---       #49
      01002781H   LINE      CODE     ---       #50
      01002781H   LINE      CODE     ---       #52
      0100279EH   LINE      CODE     ---       #53
      010027B3H   LINE      CODE     ---       #54
      010027C0H   LINE      CODE     ---       #55
      010027C5H   LINE      CODE     ---       #56
      010027C8H   LINE      CODE     ---       #57
      ---         BLOCKEND  ---      ---       LVL=0

      01003AA7H   BLOCK     CODE     ---       LVL=0
      00000020H.7 SYMBOL    BIT      BIT       IsUsingVDD
      01003AA7H   LINE      CODE     ---       #60
      01003AA7H   LINE      CODE     ---       #61
      01003AA7H   LINE      CODE     ---       #62
      01003AAAH   LINE      CODE     ---       #63
      01003AABH   LINE      CODE     ---       #64
      01003AB7H   LINE      CODE     ---       #65
      01003AB8H   LINE      CODE     ---       #66
      01003ABBH   LINE      CODE     ---       #67
      ---         BLOCKEND  ---      ---       LVL=0

      010017CFH   BLOCK     CODE     ---       LVL=0
      00000034H   SYMBOL    DATA     INT       ADCResult
      00000036H   SYMBOL    DATA     CHAR      Ch
      010017D5H   BLOCK     CODE     NEAR LAB  LVL=1
      00000037H   SYMBOL    DATA     FLOAT     Buf
      0000003BH   SYMBOL    DATA     FLOAT     Rt
      0000003FH   SYMBOL    DATA     FLOAT     Vadc
      00000004H   SYMBOL    DATA     DWORD     NTCRES
      ---         BLOCKEND  ---      ---       LVL=1
      010017CFH   LINE      CODE     ---       #71
      010017D5H   LINE      CODE     ---       #72
      010017D5H   LINE      CODE     ---       #76
      010017EFH   LINE      CODE     ---       #77
      01001824H   LINE      CODE     ---       #79
      0100183DH   LINE      CODE     ---       #80
      0100183DH   LINE      CODE     ---       #82
      0100183DH   LINE      CODE     ---       #83
      01001860H   LINE      CODE     ---       #84
LX51 LINKER/LOCATER V4.66.97.0                                                        11/10/2024  11:26:37  PAGE 34


      01001868H   LINE      CODE     ---       #85
      01001869H   LINE      CODE     ---       #87
      01001869H   LINE      CODE     ---       #88
      01001872H   LINE      CODE     ---       #89
      0100187DH   LINE      CODE     ---       #90
      0100189DH   LINE      CODE     ---       #91
      010018B7H   LINE      CODE     ---       #92
      010018B8H   LINE      CODE     ---       #94
      010018B8H   LINE      CODE     ---       #95
      010018C1H   LINE      CODE     ---       #96
      010018CCH   LINE      CODE     ---       #97
      010018ECH   LINE      CODE     ---       #98
      010018EDH   LINE      CODE     ---       #100
      010018EDH   LINE      CODE     ---       #101
      01001928H   LINE      CODE     ---       #102
      01001935H   LINE      CODE     ---       #103
      01001938H   LINE      CODE     ---       #104
      01001943H   LINE      CODE     ---       #105
      01001943H   LINE      CODE     ---       #106
      01001943H   LINE      CODE     ---       #107
      ---         BLOCKEND  ---      ---       LVL=0

      01001B79H   BLOCK     CODE     ---       LVL=0
      01001B79H   BLOCK     CODE     NEAR LAB  LVL=1
      0000002FH   SYMBOL    DATA     INT       i
      00000031H   SYMBOL    DATA     INT       result
      00000033H   SYMBOL    DATA     CHAR      Ch
      ---         BLOCKEND  ---      ---       LVL=1
      01001B79H   LINE      CODE     ---       #110
      01001B79H   LINE      CODE     ---       #111
      01001B79H   LINE      CODE     ---       #116
      01001B79H   LINE      CODE     ---       #117
      01001B81H   LINE      CODE     ---       #118
      01001B99H   LINE      CODE     ---       #119
      01001B99H   LINE      CODE     ---       #121
      01001B99H   LINE      CODE     ---       #122
      01001B9EH   LINE      CODE     ---       #123
      01001BC5H   LINE      CODE     ---       #124
      01001BC5H   LINE      CODE     ---       #125
      01001BC8H   LINE      CODE     ---       #127
      01001BC8H   LINE      CODE     ---       #128
      01001BCDH   LINE      CODE     ---       #129
      01001BCDH   LINE      CODE     ---       #130
      01001BCDH   LINE      CODE     ---       #131
      01001BE6H   LINE      CODE     ---       #132
      01001BEEH   LINE      CODE     ---       #133
      01001BF4H   LINE      CODE     ---       #135
      01001C01H   LINE      CODE     ---       #136
      01001C01H   LINE      CODE     ---       #137
      01001C07H   LINE      CODE     ---       #138
      01001C1AH   LINE      CODE     ---       #139
      01001C1FH   LINE      CODE     ---       #140
      01001C22H   LINE      CODE     ---       #141
      01001C24H   LINE      CODE     ---       #143
      01001C27H   LINE      CODE     ---       #144
      01001C29H   LINE      CODE     ---       #146
      01001C29H   LINE      CODE     ---       #147
      01001C3FH   LINE      CODE     ---       #148
      01001C48H   LINE      CODE     ---       #149
      01001C68H   LINE      CODE     ---       #150
      01001C6BH   LINE      CODE     ---       #151
      01001C6DH   LINE      CODE     ---       #153
      01001C6DH   LINE      CODE     ---       #155
      01001C70H   LINE      CODE     ---       #156
      01001C70H   LINE      CODE     ---       #157
LX51 LINKER/LOCATER V4.66.97.0                                                        11/10/2024  11:26:37  PAGE 35


      01001C70H   LINE      CODE     ---       #158
      01001C7FH   LINE      CODE     ---       #159
      ---         BLOCKEND  ---      ---       LVL=0

      01000047H   BLOCK     CODE     ---       LVL=0
      01000047H   LINE      CODE     ---       #169
      01000047H   LINE      CODE     ---       #170
      01000047H   LINE      CODE     ---       #172
      ---         BLOCKEND  ---      ---       LVL=0

      010025C7H   BLOCK     CODE     ---       LVL=0
      010025C7H   BLOCK     CODE     NEAR LAB  LVL=1
      00000025H   SYMBOL    DATA     ---       ADCDeInitCfg
      00000007H   SYMBOL    DATA     CHAR      i
      ---         BLOCKEND  ---      ---       LVL=1
      010025C7H   LINE      CODE     ---       #176
      010025C7H   LINE      CODE     ---       #177
      010025C7H   LINE      CODE     ---       #181
      010025CAH   LINE      CODE     ---       #182
      010025CEH   LINE      CODE     ---       #184
      010025D3H   LINE      CODE     ---       #185
      010025D6H   LINE      CODE     ---       #186
      010025FDH   LINE      CODE     ---       #187
      01002607H   LINE      CODE     ---       #188
      01002607H   LINE      CODE     ---       #189
      0100260BH   LINE      CODE     ---       #190
      0100260DH   LINE      CODE     ---       #192
      01002615H   LINE      CODE     ---       #193
      0100261EH   LINE      CODE     ---       #194
      01002625H   LINE      CODE     ---       #196
      01002628H   LINE      CODE     ---       #197
      0100262BH   LINE      CODE     ---       #198
      0100262DH   LINE      CODE     ---       #199
      01002632H   LINE      CODE     ---       #200
      01002639H   LINE      CODE     ---       #201
      01002647H   LINE      CODE     ---       #203
      01002650H   LINE      CODE     ---       #204
      01002659H   LINE      CODE     ---       #205
      01002661H   LINE      CODE     ---       #206
      0100266AH   LINE      CODE     ---       #207
      ---         BLOCKEND  ---      ---       LVL=0

      0100286DH   BLOCK     CODE     ---       LVL=0
      0100286DH   BLOCK     CODE     NEAR LAB  LVL=1
      00000025H   SYMBOL    DATA     ---       ADCInitCfg
      ---         BLOCKEND  ---      ---       LVL=1
      0100286DH   LINE      CODE     ---       #210
      0100286DH   LINE      CODE     ---       #211
      0100286DH   LINE      CODE     ---       #214
      01002870H   LINE      CODE     ---       #215
      01002872H   LINE      CODE     ---       #216
      01002874H   LINE      CODE     ---       #218
      01002880H   LINE      CODE     ---       #219
      0100288DH   LINE      CODE     ---       #220
      01002892H   LINE      CODE     ---       #222
      0100289BH   LINE      CODE     ---       #223
      010028A4H   LINE      CODE     ---       #224
      010028ACH   LINE      CODE     ---       #226
      010028AFH   LINE      CODE     ---       #227
      010028B2H   LINE      CODE     ---       #228
      010028B5H   LINE      CODE     ---       #230
      010028BCH   LINE      CODE     ---       #231
      010028C1H   LINE      CODE     ---       #232
      010028CAH   LINE      CODE     ---       #234
      010028CDH   LINE      CODE     ---       #235
LX51 LINKER/LOCATER V4.66.97.0                                                        11/10/2024  11:26:37  PAGE 36


      010028D0H   LINE      CODE     ---       #236
      010028D3H   LINE      CODE     ---       #237
      010028D5H   LINE      CODE     ---       #238
      010028D7H   LINE      CODE     ---       #239
      010028DAH   LINE      CODE     ---       #240
      010028DDH   LINE      CODE     ---       #241
      010028E3H   LINE      CODE     ---       #243
      010028E6H   LINE      CODE     ---       #244
      010028F0H   LINE      CODE     ---       #245
      010028F0H   LINE      CODE     ---       #246
      010028F4H   LINE      CODE     ---       #247
      010028F6H   LINE      CODE     ---       #248
      010028F9H   LINE      CODE     ---       #250
      010028FCH   LINE      CODE     ---       #251
      010028FFH   LINE      CODE     ---       #252
      ---         BLOCKEND  ---      ---       LVL=0

      ---         MODULE    ---      ---       DELAY
      00000021H.5 PUBLIC    BIT      BIT       StrobeFlag
      00000021H.4 PUBLIC    BIT      BIT       SysHBFlag
      00000021H.3 PUBLIC    BIT      BIT       IsT0OVF
      0000001FH   PUBLIC    DATA     CHAR      HBcounter
      0100224AH   PUBLIC    CODE     ---       _delay_ms
      010035FDH   PUBLIC    CODE     ---       _delay_us
      01003ABCH   PUBLIC    CODE     ---       delay_init
      01003B5CH   PUBLIC    CODE     ---       Timer0_IRQHandler
      010033CFH   PUBLIC    CODE     ---       Timer2_IRQHandler
      0100396EH   PUBLIC    CODE     ---       CheckIfHBTIMIsReady
      00000020H.7 PUBLIC    BIT      BIT       ?SetSystemHBTimer?BIT
      01003921H   PUBLIC    CODE     ---       SetSystemHBTimer
      000000C8H.0 SFRSYM    DATA     BIT       T2I0
      000000C3H   SFRSYM    DATA     BYTE      CCH1
      00000080H   SFRSYM    DATA     BYTE      P0
      000000C8H.1 SFRSYM    DATA     BIT       T2I1
      000000C5H   SFRSYM    DATA     BYTE      CCH2
      00000090H   SFRSYM    DATA     BYTE      P1
      000000C7H   SFRSYM    DATA     BYTE      CCH3
      000000ACH   SFRSYM    DATA     BYTE      P0EXTIE
      000000A0H   SFRSYM    DATA     BYTE      P2
      000000B4H   SFRSYM    DATA     BYTE      P0EXTIF
      000000B0H   SFRSYM    DATA     BYTE      P3
      000000ADH   SFRSYM    DATA     BYTE      P1EXTIE
      000000D0H.6 SFRSYM    DATA     BIT       AC
      000000FFH   SFRSYM    DATA     BYTE      MCTRL
      000000C2H   SFRSYM    DATA     BYTE      CCL1
      000000B5H   SFRSYM    DATA     BYTE      P1EXTIF
      000000AEH   SFRSYM    DATA     BYTE      P2EXTIE
      000000C4H   SFRSYM    DATA     BYTE      CCL2
      000000B6H   SFRSYM    DATA     BYTE      P2EXTIF
      000000AFH   SFRSYM    DATA     BYTE      P3EXTIE
      000000A8H.7 SFRSYM    DATA     BIT       EA
      000000C6H   SFRSYM    DATA     BYTE      CCL3
      000000B7H   SFRSYM    DATA     BYTE      P3EXTIF
      000000AAH   SFRSYM    DATA     BYTE      EIE2
      000000B2H   SFRSYM    DATA     BYTE      EIF2
      000000C8H.3 SFRSYM    DATA     BIT       T2R0
      000000C8H.4 SFRSYM    DATA     BIT       T2R1
      00000083H   SFRSYM    DATA     BYTE      DPH0
      000000A8H   SFRSYM    DATA     BYTE      IE
      00000085H   SFRSYM    DATA     BYTE      DPH1
      000000B9H   SFRSYM    DATA     BYTE      EIP1
      000000BAH   SFRSYM    DATA     BYTE      EIP2
      00000082H   SFRSYM    DATA     BYTE      DPL0
      00000084H   SFRSYM    DATA     BYTE      DPL1
      000000C8H.6 SFRSYM    DATA     BIT       I3FR
LX51 LINKER/LOCATER V4.66.97.0                                                        11/10/2024  11:26:37  PAGE 37


      000000CFH   SFRSYM    DATA     BYTE      T2IE
      00000096H   SFRSYM    DATA     BYTE      TA
      000000C9H   SFRSYM    DATA     BYTE      T2IF
      000000C8H.2 SFRSYM    DATA     BIT       T2CM
      000000DFH   SFRSYM    DATA     BYTE      ADCON0
      000000DEH   SFRSYM    DATA     BYTE      ADCON1
      000000E9H   SFRSYM    DATA     BYTE      ADCON2
      000000B8H   SFRSYM    DATA     BYTE      IP
      000000CEH   SFRSYM    DATA     BYTE      CCEN
      000000D0H.7 SFRSYM    DATA     BIT       CY
      000000D2H   SFRSYM    DATA     BYTE      T34MOD
      00000093H   SFRSYM    DATA     BYTE      DPX0
      00000095H   SFRSYM    DATA     BYTE      DPX1
      000000F4H   SFRSYM    DATA     BYTE      I2CMSA
      000000F5H   SFRSYM    DATA     BYTE      I2CMCR
      00000081H   SFRSYM    DATA     BYTE      SP
      000000D0H.2 SFRSYM    DATA     BIT       OV
      000000F2H   SFRSYM    DATA     BYTE      I2CSCR
      000000C8H.7 SFRSYM    DATA     BIT       T2PS
      000000D1H   SFRSYM    DATA     BYTE      ADCMPC
      000000CBH   SFRSYM    DATA     BYTE      RLDH
      000000D5H   SFRSYM    DATA     BYTE      ADCMPH
      000000CAH   SFRSYM    DATA     BYTE      RLDL
      00000080H.0 SFRSYM    DATA     BIT       P00
      00000090H.0 SFRSYM    DATA     BIT       P10
      00000080H.1 SFRSYM    DATA     BIT       P01
      000000F7H   SFRSYM    DATA     BYTE      I2CMTP
      00000099H   SFRSYM    DATA     BYTE      SBUF
      00000087H   SFRSYM    DATA     BYTE      PCON
      000000A0H.0 SFRSYM    DATA     BIT       P20
      00000090H.1 SFRSYM    DATA     BIT       P11
      00000080H.2 SFRSYM    DATA     BIT       P02
      000000F5H   SFRSYM    DATA     BYTE      I2CMSR
      000000B0H.0 SFRSYM    DATA     BIT       P30
      000000A0H.1 SFRSYM    DATA     BIT       P21
      00000090H.2 SFRSYM    DATA     BIT       P12
      00000080H.3 SFRSYM    DATA     BIT       P03
      000000D4H   SFRSYM    DATA     BYTE      ADCMPL
      000000B0H.1 SFRSYM    DATA     BIT       P31
      000000A0H.2 SFRSYM    DATA     BIT       P22
      00000090H.3 SFRSYM    DATA     BIT       P13
      00000080H.4 SFRSYM    DATA     BIT       P04
      000000B0H.2 SFRSYM    DATA     BIT       P32
      000000A0H.3 SFRSYM    DATA     BIT       P23
      00000090H.4 SFRSYM    DATA     BIT       P14
      00000080H.5 SFRSYM    DATA     BIT       P05
      00000089H   SFRSYM    DATA     BYTE      TMOD
      00000088H   SFRSYM    DATA     BYTE      TCON
      000000B0H.3 SFRSYM    DATA     BIT       P33
      000000A0H.4 SFRSYM    DATA     BIT       P24
      00000090H.5 SFRSYM    DATA     BIT       P15
      00000080H.6 SFRSYM    DATA     BIT       P06
      000000B0H.4 SFRSYM    DATA     BIT       P34
      000000A0H.5 SFRSYM    DATA     BIT       P25
      00000090H.6 SFRSYM    DATA     BIT       P16
      00000080H.7 SFRSYM    DATA     BIT       P07
      000000B0H.5 SFRSYM    DATA     BIT       P35
      000000A0H.6 SFRSYM    DATA     BIT       P26
      00000090H.7 SFRSYM    DATA     BIT       P17
      000000F2H   SFRSYM    DATA     BYTE      I2CSSR
      000000B0H.6 SFRSYM    DATA     BIT       P36
      000000A0H.7 SFRSYM    DATA     BIT       P27
      000000ECH   SFRSYM    DATA     BYTE      SPCR
      000000DDH   SFRSYM    DATA     BYTE      ADRESH
      000000B0H.7 SFRSYM    DATA     BIT       P37
LX51 LINKER/LOCATER V4.66.97.0                                                        11/10/2024  11:26:37  PAGE 38


      000000EEH   SFRSYM    DATA     BYTE      SPDR
      000000EFH   SFRSYM    DATA     BYTE      SSCR
      000000D3H   SFRSYM    DATA     BYTE      ADDLYL
      000000DCH   SFRSYM    DATA     BYTE      ADRESL
      00000088H.1 SFRSYM    DATA     BIT       IE0
      00000088H.3 SFRSYM    DATA     BIT       IE1
      0000008FH   SFRSYM    DATA     BYTE      CLKDIV
      000000F0H   SFRSYM    DATA     BYTE      B
      00000091H   SFRSYM    DATA     BYTE      FUNCCR
      0000009AH   SFRSYM    DATA     BYTE      P0TRIS
      000000A1H   SFRSYM    DATA     BYTE      P1TRIS
      000000A2H   SFRSYM    DATA     BYTE      P2TRIS
      000000E0H   SFRSYM    DATA     BYTE      ACC
      000000A3H   SFRSYM    DATA     BYTE      P3TRIS
      000000A8H.4 SFRSYM    DATA     BIT       ES0
      000000A8H.6 SFRSYM    DATA     BIT       ES1
      000000A8H.1 SFRSYM    DATA     BIT       ET0
      000000EDH   SFRSYM    DATA     BYTE      SPSR
      000000A8H.3 SFRSYM    DATA     BIT       ET1
      00000088H.5 SFRSYM    DATA     BIT       TF0
      000000A8H.5 SFRSYM    DATA     BIT       ET2
      00000098H.0 SFRSYM    DATA     BIT       RI0
      00000088H.7 SFRSYM    DATA     BIT       TF1
      0000008CH   SFRSYM    DATA     BYTE      TH0
      000000A8H.0 SFRSYM    DATA     BIT       EX0
      00000098H.1 SFRSYM    DATA     BIT       TI0
      00000088H.0 SFRSYM    DATA     BIT       IT0
      0000008DH   SFRSYM    DATA     BYTE      TH1
      000000A8H.2 SFRSYM    DATA     BIT       EX1
      00000088H.2 SFRSYM    DATA     BIT       IT1
      000000CDH   SFRSYM    DATA     BYTE      TH2
      000000D0H.0 SFRSYM    DATA     BIT       P
      000000DBH   SFRSYM    DATA     BYTE      TH3
      000000E3H   SFRSYM    DATA     BYTE      TH4
      0000008AH   SFRSYM    DATA     BYTE      TL0
      0000008BH   SFRSYM    DATA     BYTE      TL1
      00000098H.2 SFRSYM    DATA     BIT       U0RB8
      000000CCH   SFRSYM    DATA     BYTE      TL2
      000000B8H.4 SFRSYM    DATA     BIT       PS0
      000000DAH   SFRSYM    DATA     BYTE      TL3
      000000BFH   SFRSYM    DATA     BYTE      BUZCON
      000000B8H.6 SFRSYM    DATA     BIT       PS1
      000000B8H.1 SFRSYM    DATA     BIT       PT0
      00000098H.3 SFRSYM    DATA     BIT       U0TB8
      000000E2H   SFRSYM    DATA     BYTE      TL4
      000000D0H.3 SFRSYM    DATA     BIT       RS0
      000000B8H.3 SFRSYM    DATA     BIT       PT1
      000000D0H.4 SFRSYM    DATA     BIT       RS1
      000000B8H.5 SFRSYM    DATA     BIT       PT2
      00000098H.7 SFRSYM    DATA     BIT       U0SM0
      00000088H.4 SFRSYM    DATA     BIT       TR0
      000000BEH   SFRSYM    DATA     BYTE      BUZDIV
      00000098H.6 SFRSYM    DATA     BIT       U0SM1
      00000088H.6 SFRSYM    DATA     BIT       TR1
      000000B8H.0 SFRSYM    DATA     BIT       PX0
      00000098H.5 SFRSYM    DATA     BIT       U0SM2
      000000B8H.2 SFRSYM    DATA     BIT       PX1
      000000BDH   SFRSYM    DATA     BYTE      WUTCRH
      00000099H   SFRSYM    DATA     BYTE      SBUF0
      000000EBH   SFRSYM    DATA     BYTE      SBUF1
      000000BCH   SFRSYM    DATA     BYTE      WUTCRL
      00000098H   SFRSYM    DATA     BYTE      SCON0
      000000EAH   SFRSYM    DATA     BYTE      SCON1
      000000C8H   SFRSYM    DATA     BYTE      T2CON
      00000086H   SFRSYM    DATA     BYTE      DPS
LX51 LINKER/LOCATER V4.66.97.0                                                        11/10/2024  11:26:37  PAGE 39


      000000FEH   SFRSYM    DATA     BYTE      MDATA
      000000F6H   SFRSYM    DATA     BYTE      I2CMBUF
      000000F1H   SFRSYM    DATA     BYTE      I2CSADR
      00000098H.4 SFRSYM    DATA     BIT       U0REN
      000000C8H.5 SFRSYM    DATA     BIT       CAPES
      000000FDH   SFRSYM    DATA     BYTE      MADRH
      0000008EH   SFRSYM    DATA     BYTE      CKCON
      000000F3H   SFRSYM    DATA     BYTE      I2CSBUF
      000000FCH   SFRSYM    DATA     BYTE      MADRL
      000000D0H.5 SFRSYM    DATA     BIT       F0
      000000FBH   SFRSYM    DATA     BYTE      MLOCK
      000000D0H   SFRSYM    DATA     BYTE      PSW
      00000097H   SFRSYM    DATA     BYTE      WDCON

      01003921H   BLOCK     CODE     ---       LVL=0
      00000020H.7 SYMBOL    BIT      BIT       IsEnable
      01003921H   LINE      CODE     ---       #13
      01003921H   LINE      CODE     ---       #14
      01003921H   LINE      CODE     ---       #15
      01003925H   LINE      CODE     ---       #16
      01003925H   LINE      CODE     ---       #17
      01003927H   LINE      CODE     ---       #18
      0100392BH   LINE      CODE     ---       #20
      0100392BH   LINE      CODE     ---       #22
      0100392DH   LINE      CODE     ---       #23
      01003930H   LINE      CODE     ---       #24
      01003933H   LINE      CODE     ---       #25
      01003936H   LINE      CODE     ---       #26
      01003939H   LINE      CODE     ---       #28
      0100393CH   LINE      CODE     ---       #29
      0100393EH   LINE      CODE     ---       #30
      01003941H   LINE      CODE     ---       #32
      01003944H   LINE      CODE     ---       #33
      01003947H   LINE      CODE     ---       #34
      ---         BLOCKEND  ---      ---       LVL=0

      0100396EH   BLOCK     CODE     ---       LVL=0
      0100396EH   BLOCK     CODE     NEAR LAB  LVL=1
      00000023H   SYMBOL    DATA     INT       retry
      ---         BLOCKEND  ---      ---       LVL=1
      0100396EH   LINE      CODE     ---       #37
      0100396EH   LINE      CODE     ---       #38
      0100396EH   LINE      CODE     ---       #39
      01003974H   LINE      CODE     ---       #40
      01003976H   LINE      CODE     ---       #42
      01003976H   LINE      CODE     ---       #43
      0100397DH   LINE      CODE     ---       #44
      01003980H   LINE      CODE     ---       #45
      01003988H   LINE      CODE     ---       #46
      01003988H   LINE      CODE     ---       #47
      0100398EH   LINE      CODE     ---       #49
      01003990H   LINE      CODE     ---       #50
      ---         BLOCKEND  ---      ---       LVL=0

      010033CFH   BLOCK     CODE     ---       LVL=0
      010033CFH   LINE      CODE     ---       #53
      010033ECH   LINE      CODE     ---       #55
      010033EFH   LINE      CODE     ---       #57
      010033F1H   LINE      CODE     ---       #58
      010033F3H   LINE      CODE     ---       #59
      010033F7H   LINE      CODE     ---       #60
      010033FAH   LINE      CODE     ---       #62
      010033FCH   LINE      CODE     ---       #63
      010033FFH   LINE      CODE     ---       #64
      ---         BLOCKEND  ---      ---       LVL=0
LX51 LINKER/LOCATER V4.66.97.0                                                        11/10/2024  11:26:37  PAGE 40



      01003B5CH   BLOCK     CODE     ---       LVL=0
      01003B5CH   LINE      CODE     ---       #67
      01003B5CH   LINE      CODE     ---       #69
      01003B5FH   LINE      CODE     ---       #70
      01003B61H   LINE      CODE     ---       #71
      ---         BLOCKEND  ---      ---       LVL=0

      01003ABCH   BLOCK     CODE     ---       LVL=0
      01003ABCH   LINE      CODE     ---       #74
      01003ABCH   LINE      CODE     ---       #75
      01003ABCH   LINE      CODE     ---       #76
      01003ABFH   LINE      CODE     ---       #77
      01003AC2H   LINE      CODE     ---       #78
      01003AC5H   LINE      CODE     ---       #79
      01003AC8H   LINE      CODE     ---       #80
      01003ACAH   LINE      CODE     ---       #81
      01003ACDH   LINE      CODE     ---       #82
      01003AD0H   LINE      CODE     ---       #83
      ---         BLOCKEND  ---      ---       LVL=0

      010035FDH   BLOCK     CODE     ---       LVL=0
      00000004H   SYMBOL    DATA     INT       us
      01003601H   BLOCK     CODE     NEAR LAB  LVL=1
      00000020H.7 SYMBOL    BIT      BIT       IsEA
      ---         BLOCKEND  ---      ---       LVL=1
      010035FDH   LINE      CODE     ---       #85
      01003601H   LINE      CODE     ---       #86
      01003601H   LINE      CODE     ---       #87
      01003605H   LINE      CODE     ---       #88
      01003612H   LINE      CODE     ---       #89
      0100361AH   LINE      CODE     ---       #91
      0100361EH   LINE      CODE     ---       #92
      01003623H   LINE      CODE     ---       #93
      01003626H   LINE      CODE     ---       #95
      01003629H   LINE      CODE     ---       #96
      0100362EH   LINE      CODE     ---       #98
      01003631H   LINE      CODE     ---       #99
      01003638H   LINE      CODE     ---       #100
      0100363BH   LINE      CODE     ---       #101
      ---         BLOCKEND  ---      ---       LVL=0

      0100224AH   BLOCK     CODE     ---       LVL=0
      0000002FH   SYMBOL    DATA     INT       ms
      0100224EH   BLOCK     CODE     NEAR LAB  LVL=1
      00000031H   SYMBOL    DATA     DWORD     CNT
      00000035H   SYMBOL    DATA     INT       repcounter
      ---         BLOCKEND  ---      ---       LVL=1
      0100224AH   LINE      CODE     ---       #104
      0100224EH   LINE      CODE     ---       #105
      0100224EH   LINE      CODE     ---       #107
      01002253H   LINE      CODE     ---       #109
      0100225CH   LINE      CODE     ---       #111
      0100225CH   LINE      CODE     ---       #112
      01002264H   LINE      CODE     ---       #113
      01002280H   LINE      CODE     ---       #114
      010022A1H   LINE      CODE     ---       #115
      010022A1H   LINE      CODE     ---       #116
      010022B6H   LINE      CODE     ---       #117
      010022CDH   LINE      CODE     ---       #120
      010022CDH   LINE      CODE     ---       #122
      010022DCH   LINE      CODE     ---       #123
      010022E1H   LINE      CODE     ---       #124
      010022E3H   LINE      CODE     ---       #126
      010022E6H   LINE      CODE     ---       #127
LX51 LINKER/LOCATER V4.66.97.0                                                        11/10/2024  11:26:37  PAGE 41


      010022EEH   LINE      CODE     ---       #129
      010022F1H   LINE      CODE     ---       #130
      010022F9H   LINE      CODE     ---       #131
      010022F9H   LINE      CODE     ---       #132
      010022FFH   LINE      CODE     ---       #133
      ---         BLOCKEND  ---      ---       LVL=0

      ---         MODULE    ---      ---       NTC
      01003C8EH   PUBLIC    CONST    ---       NTCTableBottom
      01003B62H   PUBLIC    CONST    ---       NTCTableTop
      01001E68H   PUBLIC    CODE     ---       _CalcNTCTemp

      010039D6H   BLOCK     CODE     ---       LVL=0
      ---         BLOCKEND  ---      ---       LVL=0

      01001E68H   BLOCK     CODE     ---       LVL=0
      00000043H   SYMBOL    DATA     ---       IsNTCOK
      00000046H   SYMBOL    DATA     DWORD     NTCRes
      01001E76H   BLOCK     CODE     NEAR LAB  LVL=1
      0000004AH   SYMBOL    DATA     INT       i
      0000004CH   SYMBOL    DATA     DWORD     NTCTableValue
      ---         BLOCKEND  ---      ---       LVL=1
      01001E68H   LINE      CODE     ---       #64
      01001E76H   LINE      CODE     ---       #68
      01001E84H   LINE      CODE     ---       #69
      01001E84H   LINE      CODE     ---       #70
      01001E87H   LINE      CODE     ---       #71
      01001E8AH   LINE      CODE     ---       #72
      01001E8AH   LINE      CODE     ---       #74
      01001E95H   LINE      CODE     ---       #75
      01001E95H   LINE      CODE     ---       #76
      01001E98H   LINE      CODE     ---       #77
      01001E9BH   LINE      CODE     ---       #78
      01001E9BH   LINE      CODE     ---       #80
      01001EA0H   LINE      CODE     ---       #81
      01001EE3H   LINE      CODE     ---       #82
      01001EE8H   LINE      CODE     ---       #83
      01001EE8H   LINE      CODE     ---       #84
      01001F0BH   LINE      CODE     ---       #85
      01001F18H   LINE      CODE     ---       #86
      01001F34H   LINE      CODE     ---       #87
      01001F42H   LINE      CODE     ---       #89
      01001F45H   LINE      CODE     ---       #90
      01001F46H   LINE      CODE     ---       #91
      ---         BLOCKEND  ---      ---       LVL=0

      ---         MODULE    ---      ---       SIDEKEY
      02000057H   PUBLIC    XDATA    BYTE      KeyState
      00000050H   PUBLIC    DATA     INT       SleepTimer
      01003B4EH   PUBLIC    CODE     ---       getSideKeyClickAndHoldEvent
      01003B47H   PUBLIC    CODE     ---       getSideKeyHoldEvent
      01003B33H   PUBLIC    CODE     ---       getSideKeyLongPressEvent
      00000020H.7 PUBLIC    BIT      BIT       ?getSideKeyShortPressCount?BIT
      01003A39H   PUBLIC    CODE     ---       getSideKeyShortPressCount
      0100290BH   PUBLIC    CODE     ---       SideKey_LogicHandler
      01003A19H   PUBLIC    CODE     ---       MarkAsKeyPressed
      010030A9H   PUBLIC    CODE     ---       SideKey_Int_Callback
      0100375DH   PUBLIC    CODE     ---       SideKey_TIM_Callback
      01003AD1H   PUBLIC    CODE     ---       IsKeyEventOccurred
      010034A9H   PUBLIC    CODE     ---       SideKeyInit
      000000C8H.0 SFRSYM    DATA     BIT       T2I0
      000000C3H   SFRSYM    DATA     BYTE      CCH1
      00000080H   SFRSYM    DATA     BYTE      P0
      000000C8H.1 SFRSYM    DATA     BIT       T2I1
      000000C5H   SFRSYM    DATA     BYTE      CCH2
LX51 LINKER/LOCATER V4.66.97.0                                                        11/10/2024  11:26:37  PAGE 42


      00000090H   SFRSYM    DATA     BYTE      P1
      000000C7H   SFRSYM    DATA     BYTE      CCH3
      000000ACH   SFRSYM    DATA     BYTE      P0EXTIE
      000000A0H   SFRSYM    DATA     BYTE      P2
      000000B4H   SFRSYM    DATA     BYTE      P0EXTIF
      000000B0H   SFRSYM    DATA     BYTE      P3
      000000ADH   SFRSYM    DATA     BYTE      P1EXTIE
      000000D0H.6 SFRSYM    DATA     BIT       AC
      000000FFH   SFRSYM    DATA     BYTE      MCTRL
      000000C2H   SFRSYM    DATA     BYTE      CCL1
      000000B5H   SFRSYM    DATA     BYTE      P1EXTIF
      000000AEH   SFRSYM    DATA     BYTE      P2EXTIE
      000000C4H   SFRSYM    DATA     BYTE      CCL2
      000000B6H   SFRSYM    DATA     BYTE      P2EXTIF
      000000AFH   SFRSYM    DATA     BYTE      P3EXTIE
      000000A8H.7 SFRSYM    DATA     BIT       EA
      000000C6H   SFRSYM    DATA     BYTE      CCL3
      000000B7H   SFRSYM    DATA     BYTE      P3EXTIF
      000000AAH   SFRSYM    DATA     BYTE      EIE2
      000000B2H   SFRSYM    DATA     BYTE      EIF2
      000000C8H.3 SFRSYM    DATA     BIT       T2R0
      000000C8H.4 SFRSYM    DATA     BIT       T2R1
      00000083H   SFRSYM    DATA     BYTE      DPH0
      000000A8H   SFRSYM    DATA     BYTE      IE
      00000085H   SFRSYM    DATA     BYTE      DPH1
      000000B9H   SFRSYM    DATA     BYTE      EIP1
      000000BAH   SFRSYM    DATA     BYTE      EIP2
      00000082H   SFRSYM    DATA     BYTE      DPL0
      00000084H   SFRSYM    DATA     BYTE      DPL1
      000000C8H.6 SFRSYM    DATA     BIT       I3FR
      000000CFH   SFRSYM    DATA     BYTE      T2IE
      00000096H   SFRSYM    DATA     BYTE      TA
      000000C9H   SFRSYM    DATA     BYTE      T2IF
      000000C8H.2 SFRSYM    DATA     BIT       T2CM
      000000DFH   SFRSYM    DATA     BYTE      ADCON0
      000000DEH   SFRSYM    DATA     BYTE      ADCON1
      000000E9H   SFRSYM    DATA     BYTE      ADCON2
      000000B8H   SFRSYM    DATA     BYTE      IP
      000000CEH   SFRSYM    DATA     BYTE      CCEN
      000000D0H.7 SFRSYM    DATA     BIT       CY
      000000D2H   SFRSYM    DATA     BYTE      T34MOD
      00000093H   SFRSYM    DATA     BYTE      DPX0
      00000095H   SFRSYM    DATA     BYTE      DPX1
      000000F4H   SFRSYM    DATA     BYTE      I2CMSA
      000000F5H   SFRSYM    DATA     BYTE      I2CMCR
      00000081H   SFRSYM    DATA     BYTE      SP
      000000D0H.2 SFRSYM    DATA     BIT       OV
      000000F2H   SFRSYM    DATA     BYTE      I2CSCR
      000000C8H.7 SFRSYM    DATA     BIT       T2PS
      000000D1H   SFRSYM    DATA     BYTE      ADCMPC
      000000CBH   SFRSYM    DATA     BYTE      RLDH
      000000D5H   SFRSYM    DATA     BYTE      ADCMPH
      000000CAH   SFRSYM    DATA     BYTE      RLDL
      00000080H.0 SFRSYM    DATA     BIT       P00
      00000090H.0 SFRSYM    DATA     BIT       P10
      00000080H.1 SFRSYM    DATA     BIT       P01
      000000F7H   SFRSYM    DATA     BYTE      I2CMTP
      00000099H   SFRSYM    DATA     BYTE      SBUF
      00000087H   SFRSYM    DATA     BYTE      PCON
      000000A0H.0 SFRSYM    DATA     BIT       P20
      00000090H.1 SFRSYM    DATA     BIT       P11
      00000080H.2 SFRSYM    DATA     BIT       P02
      000000F5H   SFRSYM    DATA     BYTE      I2CMSR
      000000B0H.0 SFRSYM    DATA     BIT       P30
      000000A0H.1 SFRSYM    DATA     BIT       P21
LX51 LINKER/LOCATER V4.66.97.0                                                        11/10/2024  11:26:37  PAGE 43


      00000090H.2 SFRSYM    DATA     BIT       P12
      00000080H.3 SFRSYM    DATA     BIT       P03
      000000D4H   SFRSYM    DATA     BYTE      ADCMPL
      000000B0H.1 SFRSYM    DATA     BIT       P31
      000000A0H.2 SFRSYM    DATA     BIT       P22
      00000090H.3 SFRSYM    DATA     BIT       P13
      00000080H.4 SFRSYM    DATA     BIT       P04
      000000B0H.2 SFRSYM    DATA     BIT       P32
      000000A0H.3 SFRSYM    DATA     BIT       P23
      00000090H.4 SFRSYM    DATA     BIT       P14
      00000080H.5 SFRSYM    DATA     BIT       P05
      00000089H   SFRSYM    DATA     BYTE      TMOD
      00000088H   SFRSYM    DATA     BYTE      TCON
      000000B0H.3 SFRSYM    DATA     BIT       P33
      000000A0H.4 SFRSYM    DATA     BIT       P24
      00000090H.5 SFRSYM    DATA     BIT       P15
      00000080H.6 SFRSYM    DATA     BIT       P06
      000000B0H.4 SFRSYM    DATA     BIT       P34
      000000A0H.5 SFRSYM    DATA     BIT       P25
      00000090H.6 SFRSYM    DATA     BIT       P16
      00000080H.7 SFRSYM    DATA     BIT       P07
      000000B0H.5 SFRSYM    DATA     BIT       P35
      000000A0H.6 SFRSYM    DATA     BIT       P26
      00000090H.7 SFRSYM    DATA     BIT       P17
      000000F2H   SFRSYM    DATA     BYTE      I2CSSR
      000000B0H.6 SFRSYM    DATA     BIT       P36
      000000A0H.7 SFRSYM    DATA     BIT       P27
      000000ECH   SFRSYM    DATA     BYTE      SPCR
      000000DDH   SFRSYM    DATA     BYTE      ADRESH
      000000B0H.7 SFRSYM    DATA     BIT       P37
      000000EEH   SFRSYM    DATA     BYTE      SPDR
      000000A0H.3 SFRSYM    DATA     BIT       KeyPress
      000000EFH   SFRSYM    DATA     BYTE      SSCR
      000000D3H   SFRSYM    DATA     BYTE      ADDLYL
      000000DCH   SFRSYM    DATA     BYTE      ADRESL
      00000088H.1 SFRSYM    DATA     BIT       IE0
      00000088H.3 SFRSYM    DATA     BIT       IE1
      0000008FH   SFRSYM    DATA     BYTE      CLKDIV
      000000F0H   SFRSYM    DATA     BYTE      B
      00000091H   SFRSYM    DATA     BYTE      FUNCCR
      0000009AH   SFRSYM    DATA     BYTE      P0TRIS
      000000A1H   SFRSYM    DATA     BYTE      P1TRIS
      000000A2H   SFRSYM    DATA     BYTE      P2TRIS
      000000E0H   SFRSYM    DATA     BYTE      ACC
      000000A3H   SFRSYM    DATA     BYTE      P3TRIS
      000000A8H.4 SFRSYM    DATA     BIT       ES0
      000000A8H.6 SFRSYM    DATA     BIT       ES1
      000000A8H.1 SFRSYM    DATA     BIT       ET0
      000000EDH   SFRSYM    DATA     BYTE      SPSR
      000000A8H.3 SFRSYM    DATA     BIT       ET1
      00000088H.5 SFRSYM    DATA     BIT       TF0
      000000A8H.5 SFRSYM    DATA     BIT       ET2
      00000098H.0 SFRSYM    DATA     BIT       RI0
      00000088H.7 SFRSYM    DATA     BIT       TF1
      0000008CH   SFRSYM    DATA     BYTE      TH0
      000000A8H.0 SFRSYM    DATA     BIT       EX0
      00000098H.1 SFRSYM    DATA     BIT       TI0
      00000088H.0 SFRSYM    DATA     BIT       IT0
      0000008DH   SFRSYM    DATA     BYTE      TH1
      000000A8H.2 SFRSYM    DATA     BIT       EX1
      00000088H.2 SFRSYM    DATA     BIT       IT1
      000000CDH   SFRSYM    DATA     BYTE      TH2
      000000D0H.0 SFRSYM    DATA     BIT       P
      000000DBH   SFRSYM    DATA     BYTE      TH3
      000000E3H   SFRSYM    DATA     BYTE      TH4
LX51 LINKER/LOCATER V4.66.97.0                                                        11/10/2024  11:26:37  PAGE 44


      0000008AH   SFRSYM    DATA     BYTE      TL0
      0000008BH   SFRSYM    DATA     BYTE      TL1
      00000098H.2 SFRSYM    DATA     BIT       U0RB8
      000000CCH   SFRSYM    DATA     BYTE      TL2
      000000B8H.4 SFRSYM    DATA     BIT       PS0
      000000DAH   SFRSYM    DATA     BYTE      TL3
      000000BFH   SFRSYM    DATA     BYTE      BUZCON
      000000B8H.6 SFRSYM    DATA     BIT       PS1
      000000B8H.1 SFRSYM    DATA     BIT       PT0
      00000098H.3 SFRSYM    DATA     BIT       U0TB8
      000000E2H   SFRSYM    DATA     BYTE      TL4
      000000D0H.3 SFRSYM    DATA     BIT       RS0
      000000B8H.3 SFRSYM    DATA     BIT       PT1
      000000D0H.4 SFRSYM    DATA     BIT       RS1
      000000B8H.5 SFRSYM    DATA     BIT       PT2
      00000098H.7 SFRSYM    DATA     BIT       U0SM0
      00000088H.4 SFRSYM    DATA     BIT       TR0
      000000BEH   SFRSYM    DATA     BYTE      BUZDIV
      00000098H.6 SFRSYM    DATA     BIT       U0SM1
      00000088H.6 SFRSYM    DATA     BIT       TR1
      000000B8H.0 SFRSYM    DATA     BIT       PX0
      00000098H.5 SFRSYM    DATA     BIT       U0SM2
      000000B8H.2 SFRSYM    DATA     BIT       PX1
      000000BDH   SFRSYM    DATA     BYTE      WUTCRH
      00000099H   SFRSYM    DATA     BYTE      SBUF0
      000000EBH   SFRSYM    DATA     BYTE      SBUF1
      000000BCH   SFRSYM    DATA     BYTE      WUTCRL
      00000098H   SFRSYM    DATA     BYTE      SCON0
      000000EAH   SFRSYM    DATA     BYTE      SCON1
      000000C8H   SFRSYM    DATA     BYTE      T2CON
      00000086H   SFRSYM    DATA     BYTE      DPS
      000000FEH   SFRSYM    DATA     BYTE      MDATA
      000000F6H   SFRSYM    DATA     BYTE      I2CMBUF
      000000F1H   SFRSYM    DATA     BYTE      I2CSADR
      00000098H.4 SFRSYM    DATA     BIT       U0REN
      000000C8H.5 SFRSYM    DATA     BIT       CAPES
      000000FDH   SFRSYM    DATA     BYTE      MADRH
      0000008EH   SFRSYM    DATA     BYTE      CKCON
      000000F3H   SFRSYM    DATA     BYTE      I2CSBUF
      000000FCH   SFRSYM    DATA     BYTE      MADRL
      000000D0H.5 SFRSYM    DATA     BIT       F0
      000000FBH   SFRSYM    DATA     BYTE      MLOCK
      000000D0H   SFRSYM    DATA     BYTE      PSW
      00000097H   SFRSYM    DATA     BYTE      WDCON
      00000052H   SYMBOL    DATA     ---       KeyTimer
      00000022H.6 SYMBOL    BIT      BIT       IsKeyPressed
      00000054H   SYMBOL    DATA     ---       Keyevent
      01003A8FH   SYMBOL    CODE     ---       _ClickAndHoldEventHandler

      01000003H   BLOCK     CODE     ---       LVL=0
      ---         BLOCKEND  ---      ---       LVL=0

      010034A9H   BLOCK     CODE     ---       LVL=0
      010034A9H   BLOCK     CODE     NEAR LAB  LVL=1
      00000023H   SYMBOL    DATA     ---       KeyInitCfg
      ---         BLOCKEND  ---      ---       LVL=1
      010034A9H   LINE      CODE     ---       #19
      010034A9H   LINE      CODE     ---       #20
      010034A9H   LINE      CODE     ---       #23
      010034ACH   LINE      CODE     ---       #24
      010034AFH   LINE      CODE     ---       #25
      010034B1H   LINE      CODE     ---       #27
      010034B9H   LINE      CODE     ---       #28
      010034C6H   LINE      CODE     ---       #29
      010034CDH   LINE      CODE     ---       #30
LX51 LINKER/LOCATER V4.66.97.0                                                        11/10/2024  11:26:37  PAGE 45


      010034D6H   LINE      CODE     ---       #32
      010034DCH   LINE      CODE     ---       #33
      010034E2H   LINE      CODE     ---       #34
      010034E5H   LINE      CODE     ---       #35
      010034E7H   LINE      CODE     ---       #36
      010034E9H   LINE      CODE     ---       #37
      010034EBH   LINE      CODE     ---       #38
      010034EDH   LINE      CODE     ---       #39
      010034EFH   LINE      CODE     ---       #40
      ---         BLOCKEND  ---      ---       LVL=0

      01003AD1H   BLOCK     CODE     ---       LVL=0
      01003AD1H   LINE      CODE     ---       #43
      01003AD1H   LINE      CODE     ---       #44
      01003AD1H   LINE      CODE     ---       #45
      01003AD7H   LINE      CODE     ---       #46
      01003ADDH   LINE      CODE     ---       #47
      01003AE3H   LINE      CODE     ---       #49
      01003AE3H   LINE      CODE     ---       #50
      ---         BLOCKEND  ---      ---       LVL=0

      0100375DH   BLOCK     CODE     ---       LVL=0
      0100375DH   BLOCK     CODE     NEAR LAB  LVL=1
      00000007H   SYMBOL    DATA     BYTE      buf
      ---         BLOCKEND  ---      ---       LVL=1
      0100375DH   LINE      CODE     ---       #53
      0100375DH   LINE      CODE     ---       #54
      0100375DH   LINE      CODE     ---       #57
      01003762H   LINE      CODE     ---       #58
      01003762H   LINE      CODE     ---       #59
      01003765H   LINE      CODE     ---       #60
      0100376BH   LINE      CODE     ---       #61
      0100376EH   LINE      CODE     ---       #62
      01003771H   LINE      CODE     ---       #63
      01003773H   LINE      CODE     ---       #64
      01003776H   LINE      CODE     ---       #66
      0100377BH   LINE      CODE     ---       #67
      0100377BH   LINE      CODE     ---       #68
      0100377EH   LINE      CODE     ---       #69
      01003784H   LINE      CODE     ---       #70
      01003787H   LINE      CODE     ---       #71
      0100378AH   LINE      CODE     ---       #72
      0100378BH   LINE      CODE     ---       #73
      0100378EH   LINE      CODE     ---       #74
      ---         BLOCKEND  ---      ---       LVL=0

      010030A9H   BLOCK     CODE     ---       LVL=0
      010030A9H   BLOCK     CODE     NEAR LAB  LVL=1
      00000007H   SYMBOL    DATA     BYTE      time
      ---         BLOCKEND  ---      ---       LVL=1
      010030A9H   LINE      CODE     ---       #77
      010030A9H   LINE      CODE     ---       #78
      010030A9H   LINE      CODE     ---       #81
      010030B6H   LINE      CODE     ---       #82
      010030B6H   LINE      CODE     ---       #83
      010030B8H   LINE      CODE     ---       #84
      010030BDH   LINE      CODE     ---       #85
      010030C0H   LINE      CODE     ---       #86
      010030C8H   LINE      CODE     ---       #87
      010030C8H   LINE      CODE     ---       #88
      010030CBH   LINE      CODE     ---       #89
      010030CDH   LINE      CODE     ---       #90
      010030CFH   LINE      CODE     ---       #91
      010030D5H   LINE      CODE     ---       #92
      010030D5H   LINE      CODE     ---       #93
LX51 LINKER/LOCATER V4.66.97.0                                                        11/10/2024  11:26:37  PAGE 46


      010030E5H   LINE      CODE     ---       #94
      010030E8H   LINE      CODE     ---       #95
      010030E8H   LINE      CODE     ---       #96
      010030EAH   LINE      CODE     ---       #99
      010030EAH   LINE      CODE     ---       #100
      010030ECH   LINE      CODE     ---       #101
      010030F2H   LINE      CODE     ---       #102
      010030FAH   LINE      CODE     ---       #103
      01003102H   LINE      CODE     ---       #104
      01003102H   LINE      CODE     ---       #106
      01003109H   LINE      CODE     ---       #107
      0100310FH   LINE      CODE     ---       #108
      ---         BLOCKEND  ---      ---       LVL=0

      01003A19H   BLOCK     CODE     ---       LVL=0
      01003A19H   LINE      CODE     ---       #111
      01003A19H   LINE      CODE     ---       #112
      01003A19H   LINE      CODE     ---       #114
      01003A20H   LINE      CODE     ---       #115
      01003A26H   LINE      CODE     ---       #117
      01003A28H   LINE      CODE     ---       #118
      01003A30H   LINE      CODE     ---       #119
      01003A38H   LINE      CODE     ---       #120
      ---         BLOCKEND  ---      ---       LVL=0

      01003A8FH   BLOCK     CODE     ---       LVL=0
      00000006H   SYMBOL    DATA     INT       PressCount
      01003A8FH   LINE      CODE     ---       #123
      01003A8FH   LINE      CODE     ---       #124
      01003A8FH   LINE      CODE     ---       #125
      01003A92H   LINE      CODE     ---       #126
      01003A94H   LINE      CODE     ---       #127
      01003A96H   LINE      CODE     ---       #128
      01003A98H   LINE      CODE     ---       #129
      01003A9AH   LINE      CODE     ---       #131
      01003AA6H   LINE      CODE     ---       #132
      ---         BLOCKEND  ---      ---       LVL=0

      0100290BH   BLOCK     CODE     ---       LVL=0
      0100290BH   LINE      CODE     ---       #134
      0100290BH   LINE      CODE     ---       #135
      0100290BH   LINE      CODE     ---       #137
      01002914H   LINE      CODE     ---       #138
      01002914H   LINE      CODE     ---       #139
      0100291BH   LINE      CODE     ---       #140
      01002924H   LINE      CODE     ---       #141
      0100292BH   LINE      CODE     ---       #143
      01002938H   LINE      CODE     ---       #144
      01002938H   LINE      CODE     ---       #145
      0100293BH   LINE      CODE     ---       #146
      01002944H   LINE      CODE     ---       #147
      01002956H   LINE      CODE     ---       #148
      0100295DH   LINE      CODE     ---       #149
      0100295DH   LINE      CODE     ---       #150
      0100295DH   LINE      CODE     ---       #152
      01002968H   LINE      CODE     ---       #154
      01002971H   LINE      CODE     ---       #155
      01002971H   LINE      CODE     ---       #157
      01002984H   LINE      CODE     ---       #159
      01002984H   LINE      CODE     ---       #160
      01002987H   LINE      CODE     ---       #161
      01002989H   LINE      CODE     ---       #162
      0100298CH   LINE      CODE     ---       #163
      0100298FH   LINE      CODE     ---       #164
      0100298FH   LINE      CODE     ---       #165
LX51 LINKER/LOCATER V4.66.97.0                                                        11/10/2024  11:26:37  PAGE 47


      01002992H   LINE      CODE     ---       #166
      01002992H   LINE      CODE     ---       #168
      0100299BH   LINE      CODE     ---       #169
      0100299BH   LINE      CODE     ---       #170
      0100299DH   LINE      CODE     ---       #171
      010029A1H   LINE      CODE     ---       #172
      010029A5H   LINE      CODE     ---       #174
      010029A8H   LINE      CODE     ---       #175
      010029A8H   LINE      CODE     ---       #176
      ---         BLOCKEND  ---      ---       LVL=0

      01003A39H   BLOCK     CODE     ---       LVL=0
      00000020H.7 SYMBOL    BIT      BIT       IsRemoveResult
      01003A39H   BLOCK     CODE     NEAR LAB  LVL=1
      00000006H   SYMBOL    DATA     INT       buf
      ---         BLOCKEND  ---      ---       LVL=1
      01003A39H   LINE      CODE     ---       #178
      01003A39H   LINE      CODE     ---       #179
      01003A39H   LINE      CODE     ---       #181
      01003A45H   LINE      CODE     ---       #182
      01003A4CH   LINE      CODE     ---       #183
      01003A4FH   LINE      CODE     ---       #184
      01003A52H   LINE      CODE     ---       #185
      01003A52H   LINE      CODE     ---       #186
      01003A55H   LINE      CODE     ---       #187
      01003A57H   LINE      CODE     ---       #188
      01003A57H   LINE      CODE     ---       #189
      01003A57H   LINE      CODE     ---       #190
      ---         BLOCKEND  ---      ---       LVL=0

      01003B33H   BLOCK     CODE     ---       LVL=0
      01003B33H   LINE      CODE     ---       #192
      01003B33H   LINE      CODE     ---       #193
      01003B33H   LINE      CODE     ---       #194
      01003B39H   LINE      CODE     ---       #195
      01003B3CH   LINE      CODE     ---       #196
      01003B3DH   LINE      CODE     ---       #197
      ---         BLOCKEND  ---      ---       LVL=0

      01003B47H   BLOCK     CODE     ---       LVL=0
      01003B47H   LINE      CODE     ---       #199
      01003B47H   LINE      CODE     ---       #200
      01003B47H   LINE      CODE     ---       #201
      01003B4DH   LINE      CODE     ---       #202
      ---         BLOCKEND  ---      ---       LVL=0

      01003B4EH   BLOCK     CODE     ---       LVL=0
      01003B4EH   LINE      CODE     ---       #204
      01003B4EH   LINE      CODE     ---       #205
      01003B4EH   LINE      CODE     ---       #206
      01003B54H   LINE      CODE     ---       #207
      ---         BLOCKEND  ---      ---       LVL=0

      ---         MODULE    ---      ---       LEDMGMT
      00000061H   PUBLIC    DATA     BYTE      LEDMode
      02000055H   PUBLIC    XDATA    INT       LEDBrightNess
      010036B4H   PUBLIC    CODE     ---       _MakeFastStrobe
      01001944H   PUBLIC    CODE     ---       LEDControlHandler
      0100381EH   PUBLIC    CODE     ---       LEDMgmt_SetBrightness
      01002B73H   PUBLIC    CODE     ---       LEDMgmt_SwitchToPWM
      010038F9H   PUBLIC    CODE     ---       LED_Init
      000000C8H.0 SFRSYM    DATA     BIT       T2I0
      000000C3H   SFRSYM    DATA     BYTE      CCH1
      00000080H   SFRSYM    DATA     BYTE      P0
      000000C8H.1 SFRSYM    DATA     BIT       T2I1
LX51 LINKER/LOCATER V4.66.97.0                                                        11/10/2024  11:26:37  PAGE 48


      000000C5H   SFRSYM    DATA     BYTE      CCH2
      00000090H   SFRSYM    DATA     BYTE      P1
      000000C7H   SFRSYM    DATA     BYTE      CCH3
      000000ACH   SFRSYM    DATA     BYTE      P0EXTIE
      000000A0H   SFRSYM    DATA     BYTE      P2
      000000B4H   SFRSYM    DATA     BYTE      P0EXTIF
      000000B0H   SFRSYM    DATA     BYTE      P3
      000000ADH   SFRSYM    DATA     BYTE      P1EXTIE
      000000D0H.6 SFRSYM    DATA     BIT       AC
      000000FFH   SFRSYM    DATA     BYTE      MCTRL
      000000C2H   SFRSYM    DATA     BYTE      CCL1
      000000B5H   SFRSYM    DATA     BYTE      P1EXTIF
      000000AEH   SFRSYM    DATA     BYTE      P2EXTIE
      000000C4H   SFRSYM    DATA     BYTE      CCL2
      000000B6H   SFRSYM    DATA     BYTE      P2EXTIF
      000000AFH   SFRSYM    DATA     BYTE      P3EXTIE
      000000A8H.7 SFRSYM    DATA     BIT       EA
      000000C6H   SFRSYM    DATA     BYTE      CCL3
      000000B7H   SFRSYM    DATA     BYTE      P3EXTIF
      000000AAH   SFRSYM    DATA     BYTE      EIE2
      000000B2H   SFRSYM    DATA     BYTE      EIF2
      000000C8H.3 SFRSYM    DATA     BIT       T2R0
      000000C8H.4 SFRSYM    DATA     BIT       T2R1
      00000083H   SFRSYM    DATA     BYTE      DPH0
      000000A8H   SFRSYM    DATA     BYTE      IE
      00000085H   SFRSYM    DATA     BYTE      DPH1
      000000B9H   SFRSYM    DATA     BYTE      EIP1
      000000BAH   SFRSYM    DATA     BYTE      EIP2
      00000082H   SFRSYM    DATA     BYTE      DPL0
      00000084H   SFRSYM    DATA     BYTE      DPL1
      000000C8H.6 SFRSYM    DATA     BIT       I3FR
      000000CFH   SFRSYM    DATA     BYTE      T2IE
      00000096H   SFRSYM    DATA     BYTE      TA
      000000C9H   SFRSYM    DATA     BYTE      T2IF
      000000C8H.2 SFRSYM    DATA     BIT       T2CM
      000000DFH   SFRSYM    DATA     BYTE      ADCON0
      000000DEH   SFRSYM    DATA     BYTE      ADCON1
      000000E9H   SFRSYM    DATA     BYTE      ADCON2
      000000B8H   SFRSYM    DATA     BYTE      IP
      000000CEH   SFRSYM    DATA     BYTE      CCEN
      000000D0H.7 SFRSYM    DATA     BIT       CY
      000000D2H   SFRSYM    DATA     BYTE      T34MOD
      00000093H   SFRSYM    DATA     BYTE      DPX0
      00000095H   SFRSYM    DATA     BYTE      DPX1
      000000F4H   SFRSYM    DATA     BYTE      I2CMSA
      000000F5H   SFRSYM    DATA     BYTE      I2CMCR
      00000081H   SFRSYM    DATA     BYTE      SP
      000000D0H.2 SFRSYM    DATA     BIT       OV
      000000F2H   SFRSYM    DATA     BYTE      I2CSCR
      000000C8H.7 SFRSYM    DATA     BIT       T2PS
      000000D1H   SFRSYM    DATA     BYTE      ADCMPC
      000000CBH   SFRSYM    DATA     BYTE      RLDH
      000000D5H   SFRSYM    DATA     BYTE      ADCMPH
      000000CAH   SFRSYM    DATA     BYTE      RLDL
      00000080H.0 SFRSYM    DATA     BIT       P00
      00000090H.0 SFRSYM    DATA     BIT       P10
      00000080H.1 SFRSYM    DATA     BIT       P01
      000000F7H   SFRSYM    DATA     BYTE      I2CMTP
      00000099H   SFRSYM    DATA     BYTE      SBUF
      00000087H   SFRSYM    DATA     BYTE      PCON
      000000A0H.0 SFRSYM    DATA     BIT       P20
      00000090H.1 SFRSYM    DATA     BIT       P11
      00000080H.2 SFRSYM    DATA     BIT       P02
      000000F5H   SFRSYM    DATA     BYTE      I2CMSR
      000000B0H.0 SFRSYM    DATA     BIT       P30
LX51 LINKER/LOCATER V4.66.97.0                                                        11/10/2024  11:26:37  PAGE 49


      000000A0H.1 SFRSYM    DATA     BIT       P21
      00000090H.2 SFRSYM    DATA     BIT       P12
      00000080H.3 SFRSYM    DATA     BIT       P03
      000000D4H   SFRSYM    DATA     BYTE      ADCMPL
      000000B0H.1 SFRSYM    DATA     BIT       P31
      000000A0H.2 SFRSYM    DATA     BIT       P22
      00000090H.3 SFRSYM    DATA     BIT       P13
      00000080H.4 SFRSYM    DATA     BIT       P04
      000000B0H.2 SFRSYM    DATA     BIT       P32
      000000A0H.3 SFRSYM    DATA     BIT       P23
      00000090H.4 SFRSYM    DATA     BIT       P14
      00000080H.5 SFRSYM    DATA     BIT       P05
      00000089H   SFRSYM    DATA     BYTE      TMOD
      00000088H   SFRSYM    DATA     BYTE      TCON
      000000B0H.3 SFRSYM    DATA     BIT       P33
      000000A0H.4 SFRSYM    DATA     BIT       P24
      00000090H.5 SFRSYM    DATA     BIT       P15
      00000080H.6 SFRSYM    DATA     BIT       P06
      000000B0H.4 SFRSYM    DATA     BIT       P34
      000000A0H.5 SFRSYM    DATA     BIT       P25
      00000090H.6 SFRSYM    DATA     BIT       P16
      00000080H.7 SFRSYM    DATA     BIT       P07
      000000B0H.5 SFRSYM    DATA     BIT       P35
      000000A0H.6 SFRSYM    DATA     BIT       P26
      00000090H.7 SFRSYM    DATA     BIT       P17
      000000F2H   SFRSYM    DATA     BYTE      I2CSSR
      000000B0H.6 SFRSYM    DATA     BIT       P36
      000000A0H.7 SFRSYM    DATA     BIT       P27
      000000ECH   SFRSYM    DATA     BYTE      SPCR
      000000DDH   SFRSYM    DATA     BYTE      ADRESH
      000000B0H.7 SFRSYM    DATA     BIT       P37
      000000EEH   SFRSYM    DATA     BYTE      SPDR
      000000EFH   SFRSYM    DATA     BYTE      SSCR
      000000D3H   SFRSYM    DATA     BYTE      ADDLYL
      000000DCH   SFRSYM    DATA     BYTE      ADRESL
      00000088H.1 SFRSYM    DATA     BIT       IE0
      00000088H.3 SFRSYM    DATA     BIT       IE1
      0000008FH   SFRSYM    DATA     BYTE      CLKDIV
      000000F0H   SFRSYM    DATA     BYTE      B
      00000091H   SFRSYM    DATA     BYTE      FUNCCR
      0000009AH   SFRSYM    DATA     BYTE      P0TRIS
      000000A1H   SFRSYM    DATA     BYTE      P1TRIS
      000000A2H   SFRSYM    DATA     BYTE      P2TRIS
      000000E0H   SFRSYM    DATA     BYTE      ACC
      000000A3H   SFRSYM    DATA     BYTE      P3TRIS
      000000A8H.4 SFRSYM    DATA     BIT       ES0
      000000A8H.6 SFRSYM    DATA     BIT       ES1
      000000A8H.1 SFRSYM    DATA     BIT       ET0
      000000EDH   SFRSYM    DATA     BYTE      SPSR
      000000A0H.5 SFRSYM    DATA     BIT       GreenLED
      000000A8H.3 SFRSYM    DATA     BIT       ET1
      00000088H.5 SFRSYM    DATA     BIT       TF0
      000000A8H.5 SFRSYM    DATA     BIT       ET2
      00000098H.0 SFRSYM    DATA     BIT       RI0
      00000088H.7 SFRSYM    DATA     BIT       TF1
      0000008CH   SFRSYM    DATA     BYTE      TH0
      000000A8H.0 SFRSYM    DATA     BIT       EX0
      00000098H.1 SFRSYM    DATA     BIT       TI0
      00000088H.0 SFRSYM    DATA     BIT       IT0
      0000008DH   SFRSYM    DATA     BYTE      TH1
      000000A8H.2 SFRSYM    DATA     BIT       EX1
      00000088H.2 SFRSYM    DATA     BIT       IT1
      000000CDH   SFRSYM    DATA     BYTE      TH2
      000000D0H.0 SFRSYM    DATA     BIT       P
      000000DBH   SFRSYM    DATA     BYTE      TH3
LX51 LINKER/LOCATER V4.66.97.0                                                        11/10/2024  11:26:37  PAGE 50


      000000E3H   SFRSYM    DATA     BYTE      TH4
      0000008AH   SFRSYM    DATA     BYTE      TL0
      0000008BH   SFRSYM    DATA     BYTE      TL1
      00000098H.2 SFRSYM    DATA     BIT       U0RB8
      000000CCH   SFRSYM    DATA     BYTE      TL2
      000000B8H.4 SFRSYM    DATA     BIT       PS0
      000000DAH   SFRSYM    DATA     BYTE      TL3
      000000BFH   SFRSYM    DATA     BYTE      BUZCON
      000000B8H.6 SFRSYM    DATA     BIT       PS1
      000000B8H.1 SFRSYM    DATA     BIT       PT0
      00000098H.3 SFRSYM    DATA     BIT       U0TB8
      000000E2H   SFRSYM    DATA     BYTE      TL4
      000000D0H.3 SFRSYM    DATA     BIT       RS0
      000000B8H.3 SFRSYM    DATA     BIT       PT1
      000000D0H.4 SFRSYM    DATA     BIT       RS1
      000000B8H.5 SFRSYM    DATA     BIT       PT2
      00000098H.7 SFRSYM    DATA     BIT       U0SM0
      00000088H.4 SFRSYM    DATA     BIT       TR0
      000000BEH   SFRSYM    DATA     BYTE      BUZDIV
      00000098H.6 SFRSYM    DATA     BIT       U0SM1
      00000088H.6 SFRSYM    DATA     BIT       TR1
      000000B8H.0 SFRSYM    DATA     BIT       PX0
      00000098H.5 SFRSYM    DATA     BIT       U0SM2
      000000B8H.2 SFRSYM    DATA     BIT       PX1
      000000BDH   SFRSYM    DATA     BYTE      WUTCRH
      00000099H   SFRSYM    DATA     BYTE      SBUF0
      000000EBH   SFRSYM    DATA     BYTE      SBUF1
      000000BCH   SFRSYM    DATA     BYTE      WUTCRL
      00000098H   SFRSYM    DATA     BYTE      SCON0
      000000EAH   SFRSYM    DATA     BYTE      SCON1
      000000C8H   SFRSYM    DATA     BYTE      T2CON
      00000086H   SFRSYM    DATA     BYTE      DPS
      000000FEH   SFRSYM    DATA     BYTE      MDATA
      000000F6H   SFRSYM    DATA     BYTE      I2CMBUF
      000000F1H   SFRSYM    DATA     BYTE      I2CSADR
      00000098H.4 SFRSYM    DATA     BIT       U0REN
      000000C8H.5 SFRSYM    DATA     BIT       CAPES
      000000FDH   SFRSYM    DATA     BYTE      MADRH
      0000008EH   SFRSYM    DATA     BYTE      CKCON
      000000F3H   SFRSYM    DATA     BYTE      I2CSBUF
      000000FCH   SFRSYM    DATA     BYTE      MADRL
      000000A0H.4 SFRSYM    DATA     BIT       RedLED
      000000D0H.5 SFRSYM    DATA     BIT       F0
      000000FBH   SFRSYM    DATA     BYTE      MLOCK
      000000D0H   SFRSYM    DATA     BYTE      PSW
      00000097H   SFRSYM    DATA     BYTE      WDCON
      0100378FH   SYMBOL    CODE     ---       SetLEDONOFF
      00000060H   SYMBOL    DATA     CHAR      timer
      02000054H   SYMBOL    XDATA    CHAR      StepDownTIM

      010034F0H   BLOCK     CODE     ---       LVL=0
      ---         BLOCKEND  ---      ---       LVL=0

      010038F9H   BLOCK     CODE     ---       LVL=0
      010038F9H   BLOCK     CODE     NEAR LAB  LVL=1
      00000025H   SYMBOL    DATA     ---       LEDInitCfg
      ---         BLOCKEND  ---      ---       LVL=1
      010038F9H   LINE      CODE     ---       #16
      010038F9H   LINE      CODE     ---       #17
      010038F9H   LINE      CODE     ---       #20
      010038FCH   LINE      CODE     ---       #21
      010038FFH   LINE      CODE     ---       #22
      01003902H   LINE      CODE     ---       #24
      01003904H   LINE      CODE     ---       #25
      01003906H   LINE      CODE     ---       #27
LX51 LINKER/LOCATER V4.66.97.0                                                        11/10/2024  11:26:37  PAGE 51


      0100390CH   LINE      CODE     ---       #28
      01003913H   LINE      CODE     ---       #30
      01003916H   LINE      CODE     ---       #31
      ---         BLOCKEND  ---      ---       LVL=0

      01002B73H   BLOCK     CODE     ---       LVL=0
      01002B73H   LINE      CODE     ---       #34
      01002B73H   LINE      CODE     ---       #35
      01002B73H   LINE      CODE     ---       #37
      01002B7CH   LINE      CODE     ---       #38
      01002B85H   LINE      CODE     ---       #40
      01002B8CH   LINE      CODE     ---       #41
      01002B92H   LINE      CODE     ---       #42
      01002B98H   LINE      CODE     ---       #43
      01002B9AH   LINE      CODE     ---       #44
      01002BA1H   LINE      CODE     ---       #45
      01002BA5H   LINE      CODE     ---       #46
      01002BACH   LINE      CODE     ---       #48
      01002BB2H   LINE      CODE     ---       #49
      01002BB8H   LINE      CODE     ---       #50
      01002BBEH   LINE      CODE     ---       #51
      01002BC4H   LINE      CODE     ---       #53
      01002BD2H   LINE      CODE     ---       #54
      01002BE6H   LINE      CODE     ---       #55
      01002BE6H   LINE      CODE     ---       #56
      01002BE6H   LINE      CODE     ---       #57
      01002BE6H   LINE      CODE     ---       #58
      01002BE9H   LINE      CODE     ---       #60
      01002BF0H   LINE      CODE     ---       #61
      01002BF7H   LINE      CODE     ---       #62
      01002BFFH   LINE      CODE     ---       #63
      ---         BLOCKEND  ---      ---       LVL=0

      0100378FH   BLOCK     CODE     ---       LVL=0
      00000021H.1 SYMBOL    BIT      BIT       RLED
      00000021H.2 SYMBOL    BIT      BIT       GLED
      0100378FH   BLOCK     CODE     NEAR LAB  LVL=1
      00000007H   SYMBOL    DATA     BYTE      buf
      ---         BLOCKEND  ---      ---       LVL=1
      0100378FH   LINE      CODE     ---       #69
      0100378FH   LINE      CODE     ---       #70
      0100378FH   LINE      CODE     ---       #73
      01003797H   LINE      CODE     ---       #74
      01003797H   LINE      CODE     ---       #75
      0100379BH   LINE      CODE     ---       #76
      0100379FH   LINE      CODE     ---       #77
      010037A0H   LINE      CODE     ---       #80
      010037A0H   LINE      CODE     ---       #81
      010037A5H   LINE      CODE     ---       #82
      010037ADH   LINE      CODE     ---       #83
      010037B0H   LINE      CODE     ---       #84
      010037B8H   LINE      CODE     ---       #85
      010037BBH   LINE      CODE     ---       #86
      010037C0H   LINE      CODE     ---       #87
      010037C0H   LINE      CODE     ---       #88
      ---         BLOCKEND  ---      ---       LVL=0

      0100381EH   BLOCK     CODE     ---       LVL=0
      0100381EH   LINE      CODE     ---       #91
      0100381EH   LINE      CODE     ---       #92
      0100381EH   LINE      CODE     ---       #94
      0100382CH   LINE      CODE     ---       #95
      01003840H   LINE      CODE     ---       #97
      01003840H   LINE      CODE     ---       #98
      01003840H   LINE      CODE     ---       #99
LX51 LINKER/LOCATER V4.66.97.0                                                        11/10/2024  11:26:37  PAGE 52


      01003840H   LINE      CODE     ---       #100
      01003843H   LINE      CODE     ---       #102
      0100384AH   LINE      CODE     ---       #103
      ---         BLOCKEND  ---      ---       LVL=0

      01001944H   BLOCK     CODE     ---       LVL=0
      01001944H   BLOCK     CODE     NEAR LAB  LVL=1
      00000007H   SYMBOL    DATA     CHAR      buf
      00000020H.6 SYMBOL    BIT      BIT       IsLEDON
      00000020H.7 SYMBOL    BIT      BIT       RLED
      00000021H.0 SYMBOL    BIT      BIT       GLED
      ---         BLOCKEND  ---      ---       LVL=1
      01001944H   LINE      CODE     ---       #106
      01001944H   LINE      CODE     ---       #107
      01001944H   LINE      CODE     ---       #113
      0100194EH   LINE      CODE     ---       #114
      01001962H   LINE      CODE     ---       #115
      01001962H   LINE      CODE     ---       #116
      01001964H   LINE      CODE     ---       #117
      01001966H   LINE      CODE     ---       #118
      01001969H   LINE      CODE     ---       #119
      0100196BH   LINE      CODE     ---       #121
      0100196BH   LINE      CODE     ---       #122
      01001971H   LINE      CODE     ---       #125
      010019A0H   LINE      CODE     ---       #126
      010019A0H   LINE      CODE     ---       #127
      010019AAH   LINE      CODE     ---       #128
      010019B1H   LINE      CODE     ---       #129
      010019B8H   LINE      CODE     ---       #130
      010019BFH   LINE      CODE     ---       #131
      010019BFH   LINE      CODE     ---       #132
      010019BFH   LINE      CODE     ---       #133
      010019C1H   LINE      CODE     ---       #134
      010019C6H   LINE      CODE     ---       #135
      010019DCH   LINE      CODE     ---       #136
      010019DCH   LINE      CODE     ---       #137
      010019DDH   LINE      CODE     ---       #138
      010019E0H   LINE      CODE     ---       #139
      010019E3H   LINE      CODE     ---       #140
      010019E5H   LINE      CODE     ---       #141
      010019F0H   LINE      CODE     ---       #142
      010019F9H   LINE      CODE     ---       #143
      010019FBH   LINE      CODE     ---       #144
      010019FBH   LINE      CODE     ---       #145
      010019FBH   LINE      CODE     ---       #146
      010019FDH   LINE      CODE     ---       #147
      01001A00H   LINE      CODE     ---       #148
      01001A17H   LINE      CODE     ---       #149
      01001A17H   LINE      CODE     ---       #150
      01001A19H   LINE      CODE     ---       #151
      01001A19H   LINE      CODE     ---       #152
      01001A1BH   LINE      CODE     ---       #154
      01001A1BH   LINE      CODE     ---       #155
      01001A23H   LINE      CODE     ---       #156
      01001A27H   LINE      CODE     ---       #157
      01001A29H   LINE      CODE     ---       #158
      01001A29H   LINE      CODE     ---       #159
      01001A2BH   LINE      CODE     ---       #160
      01001A2BH   LINE      CODE     ---       #161
      01001A2DH   LINE      CODE     ---       #162
      01001A30H   LINE      CODE     ---       #163
      01001A42H   LINE      CODE     ---       #164
      01001A42H   LINE      CODE     ---       #165
      01001A44H   LINE      CODE     ---       #166
      01001A47H   LINE      CODE     ---       #167
LX51 LINKER/LOCATER V4.66.97.0                                                        11/10/2024  11:26:37  PAGE 53


      01001A49H   LINE      CODE     ---       #169
      01001A49H   LINE      CODE     ---       #170
      01001A51H   LINE      CODE     ---       #171
      01001A55H   LINE      CODE     ---       #172
      01001A57H   LINE      CODE     ---       #173
      01001A57H   LINE      CODE     ---       #174
      01001A57H   LINE      CODE     ---       #175
      01001A57H   LINE      CODE     ---       #177
      01001A62H   LINE      CODE     ---       #178
      ---         BLOCKEND  ---      ---       LVL=0

      010036B4H   BLOCK     CODE     ---       LVL=0
      00000007H   SYMBOL    DATA     BYTE      LEDMode
      010036B4H   BLOCK     CODE     NEAR LAB  LVL=1
      00000020H.6 SYMBOL    BIT      BIT       RLED
      00000020H.7 SYMBOL    BIT      BIT       GLED
      ---         BLOCKEND  ---      ---       LVL=1
      010036B4H   LINE      CODE     ---       #181
      010036B4H   LINE      CODE     ---       #182
      010036B4H   LINE      CODE     ---       #183
      010036B8H   LINE      CODE     ---       #185
      010036C5H   LINE      CODE     ---       #186
      010036C5H   LINE      CODE     ---       #187
      010036CBH   LINE      CODE     ---       #188
      010036D1H   LINE      CODE     ---       #189
      010036D5H   LINE      CODE     ---       #190
      010036D5H   LINE      CODE     ---       #191
      010036E0H   LINE      CODE     ---       #192
      010036E7H   LINE      CODE     ---       #194
      ---         BLOCKEND  ---      ---       LVL=0

      ---         MODULE    ---      ---       PWM
      00000021H.6 PUBLIC    BIT      BIT       IsNeedToUploadPWM
      0200004CH   PUBLIC    XDATA    FLOAT     PWMDuty
      01002013H   PUBLIC    CODE     ---       PWM_OutputCtrlHandler
      00000020H.6 PUBLIC    BIT      BIT       ?PWM_ForceSetDuty?BIT
      01003728H   PUBLIC    CODE     ---       PWM_ForceSetDuty
      01002C8CH   PUBLIC    CODE     ---       PWM_Init
      01003991H   PUBLIC    CODE     ---       PWM_DeInit
      000000C8H.0 SFRSYM    DATA     BIT       T2I0
      000000C3H   SFRSYM    DATA     BYTE      CCH1
      00000080H   SFRSYM    DATA     BYTE      P0
      000000C8H.1 SFRSYM    DATA     BIT       T2I1
      000000C5H   SFRSYM    DATA     BYTE      CCH2
      00000090H   SFRSYM    DATA     BYTE      P1
      000000C7H   SFRSYM    DATA     BYTE      CCH3
      000000ACH   SFRSYM    DATA     BYTE      P0EXTIE
      000000A0H   SFRSYM    DATA     BYTE      P2
      000000B4H   SFRSYM    DATA     BYTE      P0EXTIF
      000000B0H   SFRSYM    DATA     BYTE      P3
      000000ADH   SFRSYM    DATA     BYTE      P1EXTIE
      000000D0H.6 SFRSYM    DATA     BIT       AC
      000000FFH   SFRSYM    DATA     BYTE      MCTRL
      000000C2H   SFRSYM    DATA     BYTE      CCL1
      000000B5H   SFRSYM    DATA     BYTE      P1EXTIF
      000000AEH   SFRSYM    DATA     BYTE      P2EXTIE
      000000C4H   SFRSYM    DATA     BYTE      CCL2
      000000B6H   SFRSYM    DATA     BYTE      P2EXTIF
      000000AFH   SFRSYM    DATA     BYTE      P3EXTIE
      000000A8H.7 SFRSYM    DATA     BIT       EA
      000000C6H   SFRSYM    DATA     BYTE      CCL3
      000000B7H   SFRSYM    DATA     BYTE      P3EXTIF
      000000AAH   SFRSYM    DATA     BYTE      EIE2
      000000B2H   SFRSYM    DATA     BYTE      EIF2
      000000C8H.3 SFRSYM    DATA     BIT       T2R0
LX51 LINKER/LOCATER V4.66.97.0                                                        11/10/2024  11:26:37  PAGE 54


      000000C8H.4 SFRSYM    DATA     BIT       T2R1
      00000083H   SFRSYM    DATA     BYTE      DPH0
      000000A8H   SFRSYM    DATA     BYTE      IE
      00000085H   SFRSYM    DATA     BYTE      DPH1
      000000B9H   SFRSYM    DATA     BYTE      EIP1
      000000BAH   SFRSYM    DATA     BYTE      EIP2
      00000082H   SFRSYM    DATA     BYTE      DPL0
      00000084H   SFRSYM    DATA     BYTE      DPL1
      000000C8H.6 SFRSYM    DATA     BIT       I3FR
      000000CFH   SFRSYM    DATA     BYTE      T2IE
      00000096H   SFRSYM    DATA     BYTE      TA
      000000C9H   SFRSYM    DATA     BYTE      T2IF
      000000C8H.2 SFRSYM    DATA     BIT       T2CM
      000000DFH   SFRSYM    DATA     BYTE      ADCON0
      000000DEH   SFRSYM    DATA     BYTE      ADCON1
      000000E9H   SFRSYM    DATA     BYTE      ADCON2
      000000B8H   SFRSYM    DATA     BYTE      IP
      000000CEH   SFRSYM    DATA     BYTE      CCEN
      000000D0H.7 SFRSYM    DATA     BIT       CY
      000000D2H   SFRSYM    DATA     BYTE      T34MOD
      00000093H   SFRSYM    DATA     BYTE      DPX0
      00000095H   SFRSYM    DATA     BYTE      DPX1
      000000F4H   SFRSYM    DATA     BYTE      I2CMSA
      000000F5H   SFRSYM    DATA     BYTE      I2CMCR
      00000081H   SFRSYM    DATA     BYTE      SP
      000000D0H.2 SFRSYM    DATA     BIT       OV
      000000F2H   SFRSYM    DATA     BYTE      I2CSCR
      000000C8H.7 SFRSYM    DATA     BIT       T2PS
      000000D1H   SFRSYM    DATA     BYTE      ADCMPC
      000000CBH   SFRSYM    DATA     BYTE      RLDH
      000000D5H   SFRSYM    DATA     BYTE      ADCMPH
      000000CAH   SFRSYM    DATA     BYTE      RLDL
      00000080H.0 SFRSYM    DATA     BIT       P00
      00000090H.0 SFRSYM    DATA     BIT       P10
      00000080H.1 SFRSYM    DATA     BIT       P01
      000000F7H   SFRSYM    DATA     BYTE      I2CMTP
      00000099H   SFRSYM    DATA     BYTE      SBUF
      00000087H   SFRSYM    DATA     BYTE      PCON
      000000A0H.0 SFRSYM    DATA     BIT       P20
      00000090H.1 SFRSYM    DATA     BIT       P11
      00000080H.2 SFRSYM    DATA     BIT       P02
      000000F5H   SFRSYM    DATA     BYTE      I2CMSR
      000000B0H.0 SFRSYM    DATA     BIT       P30
      000000A0H.1 SFRSYM    DATA     BIT       P21
      00000090H.2 SFRSYM    DATA     BIT       P12
      00000080H.3 SFRSYM    DATA     BIT       P03
      000000D4H   SFRSYM    DATA     BYTE      ADCMPL
      000000B0H.1 SFRSYM    DATA     BIT       P31
      000000A0H.2 SFRSYM    DATA     BIT       P22
      00000090H.3 SFRSYM    DATA     BIT       P13
      00000080H.4 SFRSYM    DATA     BIT       P04
      000000B0H.2 SFRSYM    DATA     BIT       P32
      000000A0H.3 SFRSYM    DATA     BIT       P23
      00000090H.4 SFRSYM    DATA     BIT       P14
      00000080H.5 SFRSYM    DATA     BIT       P05
      00000089H   SFRSYM    DATA     BYTE      TMOD
      00000088H   SFRSYM    DATA     BYTE      TCON
      000000B0H.3 SFRSYM    DATA     BIT       P33
      000000A0H.4 SFRSYM    DATA     BIT       P24
      00000090H.5 SFRSYM    DATA     BIT       P15
      00000080H.6 SFRSYM    DATA     BIT       P06
      000000B0H.4 SFRSYM    DATA     BIT       P34
      000000A0H.5 SFRSYM    DATA     BIT       P25
      00000090H.6 SFRSYM    DATA     BIT       P16
      00000080H.7 SFRSYM    DATA     BIT       P07
LX51 LINKER/LOCATER V4.66.97.0                                                        11/10/2024  11:26:37  PAGE 55


      000000B0H.5 SFRSYM    DATA     BIT       P35
      000000A0H.6 SFRSYM    DATA     BIT       P26
      00000090H.7 SFRSYM    DATA     BIT       P17
      000000F2H   SFRSYM    DATA     BYTE      I2CSSR
      000000B0H.6 SFRSYM    DATA     BIT       P36
      000000A0H.7 SFRSYM    DATA     BIT       P27
      000000ECH   SFRSYM    DATA     BYTE      SPCR
      000000DDH   SFRSYM    DATA     BYTE      ADRESH
      000000B0H.7 SFRSYM    DATA     BIT       P37
      000000EEH   SFRSYM    DATA     BYTE      SPDR
      000000EFH   SFRSYM    DATA     BYTE      SSCR
      000000D3H   SFRSYM    DATA     BYTE      ADDLYL
      000000DCH   SFRSYM    DATA     BYTE      ADRESL
      00000088H.1 SFRSYM    DATA     BIT       IE0
      00000088H.3 SFRSYM    DATA     BIT       IE1
      0000008FH   SFRSYM    DATA     BYTE      CLKDIV
      000000F0H   SFRSYM    DATA     BYTE      B
      00000091H   SFRSYM    DATA     BYTE      FUNCCR
      0000009AH   SFRSYM    DATA     BYTE      P0TRIS
      000000A1H   SFRSYM    DATA     BYTE      P1TRIS
      000000A2H   SFRSYM    DATA     BYTE      P2TRIS
      000000E0H   SFRSYM    DATA     BYTE      ACC
      000000A3H   SFRSYM    DATA     BYTE      P3TRIS
      000000A8H.4 SFRSYM    DATA     BIT       ES0
      000000A8H.6 SFRSYM    DATA     BIT       ES1
      000000A8H.1 SFRSYM    DATA     BIT       ET0
      000000EDH   SFRSYM    DATA     BYTE      SPSR
      000000A8H.3 SFRSYM    DATA     BIT       ET1
      00000088H.5 SFRSYM    DATA     BIT       TF0
      000000A8H.5 SFRSYM    DATA     BIT       ET2
      00000098H.0 SFRSYM    DATA     BIT       RI0
      00000088H.7 SFRSYM    DATA     BIT       TF1
      0000008CH   SFRSYM    DATA     BYTE      TH0
      000000A8H.0 SFRSYM    DATA     BIT       EX0
      00000098H.1 SFRSYM    DATA     BIT       TI0
      00000088H.0 SFRSYM    DATA     BIT       IT0
      0000008DH   SFRSYM    DATA     BYTE      TH1
      000000A8H.2 SFRSYM    DATA     BIT       EX1
      00000088H.2 SFRSYM    DATA     BIT       IT1
      000000CDH   SFRSYM    DATA     BYTE      TH2
      000000D0H.0 SFRSYM    DATA     BIT       P
      000000DBH   SFRSYM    DATA     BYTE      TH3
      000000E3H   SFRSYM    DATA     BYTE      TH4
      0000008AH   SFRSYM    DATA     BYTE      TL0
      0000008BH   SFRSYM    DATA     BYTE      TL1
      00000098H.2 SFRSYM    DATA     BIT       U0RB8
      000000CCH   SFRSYM    DATA     BYTE      TL2
      000000B8H.4 SFRSYM    DATA     BIT       PS0
      000000DAH   SFRSYM    DATA     BYTE      TL3
      000000BFH   SFRSYM    DATA     BYTE      BUZCON
      000000B8H.6 SFRSYM    DATA     BIT       PS1
      000000B8H.1 SFRSYM    DATA     BIT       PT0
      00000098H.3 SFRSYM    DATA     BIT       U0TB8
      000000E2H   SFRSYM    DATA     BYTE      TL4
      000000D0H.3 SFRSYM    DATA     BIT       RS0
      000000B8H.3 SFRSYM    DATA     BIT       PT1
      000000D0H.4 SFRSYM    DATA     BIT       RS1
      000000B8H.5 SFRSYM    DATA     BIT       PT2
      00000098H.7 SFRSYM    DATA     BIT       U0SM0
      00000088H.4 SFRSYM    DATA     BIT       TR0
      000000BEH   SFRSYM    DATA     BYTE      BUZDIV
      00000098H.6 SFRSYM    DATA     BIT       U0SM1
      00000088H.6 SFRSYM    DATA     BIT       TR1
      000000B8H.0 SFRSYM    DATA     BIT       PX0
      00000098H.5 SFRSYM    DATA     BIT       U0SM2
LX51 LINKER/LOCATER V4.66.97.0                                                        11/10/2024  11:26:37  PAGE 56


      000000B8H.2 SFRSYM    DATA     BIT       PX1
      000000BDH   SFRSYM    DATA     BYTE      WUTCRH
      00000099H   SFRSYM    DATA     BYTE      SBUF0
      000000EBH   SFRSYM    DATA     BYTE      SBUF1
      000000BCH   SFRSYM    DATA     BYTE      WUTCRL
      00000098H   SFRSYM    DATA     BYTE      SCON0
      000000EAH   SFRSYM    DATA     BYTE      SCON1
      000000C8H   SFRSYM    DATA     BYTE      T2CON
      00000086H   SFRSYM    DATA     BYTE      DPS
      000000FEH   SFRSYM    DATA     BYTE      MDATA
      000000F6H   SFRSYM    DATA     BYTE      I2CMBUF
      000000F1H   SFRSYM    DATA     BYTE      I2CSADR
      00000098H.4 SFRSYM    DATA     BIT       U0REN
      000000C8H.5 SFRSYM    DATA     BIT       CAPES
      000000FDH   SFRSYM    DATA     BYTE      MADRH
      0000008EH   SFRSYM    DATA     BYTE      CKCON
      000000F3H   SFRSYM    DATA     BYTE      I2CSBUF
      000000FCH   SFRSYM    DATA     BYTE      MADRL
      000000D0H.5 SFRSYM    DATA     BIT       F0
      000000FBH   SFRSYM    DATA     BYTE      MLOCK
      000000D0H   SFRSYM    DATA     BYTE      PSW
      00000097H   SFRSYM    DATA     BYTE      WDCON
      00000021H.7 SYMBOL    BIT      BIT       IsNeedToEnableOutput
      00000022H.0 SYMBOL    BIT      BIT       IsPWMLoading

      01003B24H   BLOCK     CODE     ---       LVL=0
      ---         BLOCKEND  ---      ---       LVL=0

      01003991H   BLOCK     CODE     ---       LVL=0
      01003991H   LINE      CODE     ---       #13
      01003991H   LINE      CODE     ---       #14
      01003991H   LINE      CODE     ---       #16
      01003999H   LINE      CODE     ---       #18
      010039A2H   LINE      CODE     ---       #20
      010039A7H   LINE      CODE     ---       #21
      010039ABH   LINE      CODE     ---       #22
      010039AFH   LINE      CODE     ---       #23
      010039B3H   LINE      CODE     ---       #24
      ---         BLOCKEND  ---      ---       LVL=0

      01002C8CH   BLOCK     CODE     ---       LVL=0
      01002C8CH   BLOCK     CODE     NEAR LAB  LVL=1
      00000025H   SYMBOL    DATA     ---       PWMInitCfg
      ---         BLOCKEND  ---      ---       LVL=1
      01002C8CH   LINE      CODE     ---       #27
      01002C8CH   LINE      CODE     ---       #28
      01002C8CH   LINE      CODE     ---       #31
      01002C8FH   LINE      CODE     ---       #32
      01002C92H   LINE      CODE     ---       #33
      01002C95H   LINE      CODE     ---       #35
      01002C9DH   LINE      CODE     ---       #36
      01002CAAH   LINE      CODE     ---       #38
      01002CB3H   LINE      CODE     ---       #40
      01002CB8H   LINE      CODE     ---       #41
      01002CBBH   LINE      CODE     ---       #42
      01002CBFH   LINE      CODE     ---       #43
      01002CC5H   LINE      CODE     ---       #44
      01002CCAH   LINE      CODE     ---       #45
      01002CCFH   LINE      CODE     ---       #46
      01002CD1H   LINE      CODE     ---       #47
      01002CD6H   LINE      CODE     ---       #48
      01002CDAH   LINE      CODE     ---       #49
      01002CDFH   LINE      CODE     ---       #51
      01002CE5H   LINE      CODE     ---       #52
      01002CEBH   LINE      CODE     ---       #54
LX51 LINKER/LOCATER V4.66.97.0                                                        11/10/2024  11:26:37  PAGE 57


      01002CF0H   LINE      CODE     ---       #55
      01002CF4H   LINE      CODE     ---       #57
      01002CFEH   LINE      CODE     ---       #58
      01002D00H   LINE      CODE     ---       #59
      01002D02H   LINE      CODE     ---       #61
      01002D08H   LINE      CODE     ---       #62
      01002D0CH   LINE      CODE     ---       #63
      01002D12H   LINE      CODE     ---       #64
      ---         BLOCKEND  ---      ---       LVL=0

      01003728H   BLOCK     CODE     ---       LVL=0
      00000020H.6 SYMBOL    BIT      BIT       IsEnable
      01003728H   LINE      CODE     ---       #67
      01003728H   LINE      CODE     ---       #68
      01003728H   LINE      CODE     ---       #69
      0100372EH   LINE      CODE     ---       #70
      0100373AH   LINE      CODE     ---       #71
      01003741H   LINE      CODE     ---       #72
      01003748H   LINE      CODE     ---       #73
      0100375CH   LINE      CODE     ---       #74
      ---         BLOCKEND  ---      ---       LVL=0

      01002013H   BLOCK     CODE     ---       LVL=0
      01002013H   BLOCK     CODE     NEAR LAB  LVL=1
      00000004H   SYMBOL    DATA     INT       value
      00000023H   SYMBOL    DATA     FLOAT     buf
      ---         BLOCKEND  ---      ---       LVL=1
      01002013H   LINE      CODE     ---       #77
      01002013H   LINE      CODE     ---       #78
      01002013H   LINE      CODE     ---       #82
      01002019H   LINE      CODE     ---       #83
      0100201CH   LINE      CODE     ---       #84
      0100201CH   LINE      CODE     ---       #85
      01002026H   LINE      CODE     ---       #86
      01002026H   LINE      CODE     ---       #87
      0100203AH   LINE      CODE     ---       #88
      0100203CH   LINE      CODE     ---       #89
      0100203EH   LINE      CODE     ---       #90
      0100203FH   LINE      CODE     ---       #92
      0100203FH   LINE      CODE     ---       #94
      0100205AH   LINE      CODE     ---       #95
      01002071H   LINE      CODE     ---       #97
      01002083H   LINE      CODE     ---       #98
      010020A3H   LINE      CODE     ---       #99
      010020B5H   LINE      CODE     ---       #100
      010020BCH   LINE      CODE     ---       #101
      010020C3H   LINE      CODE     ---       #102
      010020C8H   LINE      CODE     ---       #104
      010020CAH   LINE      CODE     ---       #105
      010020D1H   LINE      CODE     ---       #106
      ---         BLOCKEND  ---      ---       LVL=0

      ---         MODULE    ---      ---       OUTPUTCHANNEL
      02000052H   PUBLIC    XDATA    INT       Current
      01002674H   PUBLIC    CODE     ---       OutputChannel_Calc
      01003B55H   PUBLIC    CODE     ---       OutputChannel_DeInit
      0100121AH   PUBLIC    CODE     ---       OutputChannel_TestRun
      010036EEH   PUBLIC    CODE     ---       OutputChannel_Init
      000000C8H.0 SFRSYM    DATA     BIT       T2I0
      000000C3H   SFRSYM    DATA     BYTE      CCH1
      00000080H   SFRSYM    DATA     BYTE      P0
      000000C8H.1 SFRSYM    DATA     BIT       T2I1
      000000C5H   SFRSYM    DATA     BYTE      CCH2
      00000090H   SFRSYM    DATA     BYTE      P1
      000000C7H   SFRSYM    DATA     BYTE      CCH3
LX51 LINKER/LOCATER V4.66.97.0                                                        11/10/2024  11:26:37  PAGE 58


      000000ACH   SFRSYM    DATA     BYTE      P0EXTIE
      000000A0H   SFRSYM    DATA     BYTE      P2
      00000080H.1 SFRSYM    DATA     BIT       RevPGate
      000000B4H   SFRSYM    DATA     BYTE      P0EXTIF
      000000B0H   SFRSYM    DATA     BYTE      P3
      000000ADH   SFRSYM    DATA     BYTE      P1EXTIE
      000000D0H.6 SFRSYM    DATA     BIT       AC
      000000FFH   SFRSYM    DATA     BYTE      MCTRL
      000000C2H   SFRSYM    DATA     BYTE      CCL1
      000000B5H   SFRSYM    DATA     BYTE      P1EXTIF
      000000AEH   SFRSYM    DATA     BYTE      P2EXTIE
      000000C4H   SFRSYM    DATA     BYTE      CCL2
      000000B6H   SFRSYM    DATA     BYTE      P2EXTIF
      000000AFH   SFRSYM    DATA     BYTE      P3EXTIE
      000000A8H.7 SFRSYM    DATA     BIT       EA
      000000C6H   SFRSYM    DATA     BYTE      CCL3
      000000B7H   SFRSYM    DATA     BYTE      P3EXTIF
      000000AAH   SFRSYM    DATA     BYTE      EIE2
      000000B2H   SFRSYM    DATA     BYTE      EIF2
      000000C8H.3 SFRSYM    DATA     BIT       T2R0
      000000C8H.4 SFRSYM    DATA     BIT       T2R1
      00000083H   SFRSYM    DATA     BYTE      DPH0
      000000A8H   SFRSYM    DATA     BYTE      IE
      00000085H   SFRSYM    DATA     BYTE      DPH1
      000000B9H   SFRSYM    DATA     BYTE      EIP1
      000000BAH   SFRSYM    DATA     BYTE      EIP2
      00000082H   SFRSYM    DATA     BYTE      DPL0
      00000084H   SFRSYM    DATA     BYTE      DPL1
      000000C8H.6 SFRSYM    DATA     BIT       I3FR
      000000CFH   SFRSYM    DATA     BYTE      T2IE
      00000096H   SFRSYM    DATA     BYTE      TA
      000000C9H   SFRSYM    DATA     BYTE      T2IF
      000000C8H.2 SFRSYM    DATA     BIT       T2CM
      000000DFH   SFRSYM    DATA     BYTE      ADCON0
      000000DEH   SFRSYM    DATA     BYTE      ADCON1
      000000E9H   SFRSYM    DATA     BYTE      ADCON2
      000000B8H   SFRSYM    DATA     BYTE      IP
      000000CEH   SFRSYM    DATA     BYTE      CCEN
      000000D0H.7 SFRSYM    DATA     BIT       CY
      000000D2H   SFRSYM    DATA     BYTE      T34MOD
      00000093H   SFRSYM    DATA     BYTE      DPX0
      00000095H   SFRSYM    DATA     BYTE      DPX1
      000000F4H   SFRSYM    DATA     BYTE      I2CMSA
      000000F5H   SFRSYM    DATA     BYTE      I2CMCR
      00000080H.4 SFRSYM    DATA     BIT       DCDCEN
      00000081H   SFRSYM    DATA     BYTE      SP
      000000D0H.2 SFRSYM    DATA     BIT       OV
      000000F2H   SFRSYM    DATA     BYTE      I2CSCR
      000000C8H.7 SFRSYM    DATA     BIT       T2PS
      000000D1H   SFRSYM    DATA     BYTE      ADCMPC
      000000CBH   SFRSYM    DATA     BYTE      RLDH
      000000D5H   SFRSYM    DATA     BYTE      ADCMPH
      000000CAH   SFRSYM    DATA     BYTE      RLDL
      00000080H.0 SFRSYM    DATA     BIT       P00
      00000090H.0 SFRSYM    DATA     BIT       P10
      00000080H.1 SFRSYM    DATA     BIT       P01
      000000F7H   SFRSYM    DATA     BYTE      I2CMTP
      00000099H   SFRSYM    DATA     BYTE      SBUF
      00000087H   SFRSYM    DATA     BYTE      PCON
      000000A0H.0 SFRSYM    DATA     BIT       P20
      00000090H.1 SFRSYM    DATA     BIT       P11
      00000080H.2 SFRSYM    DATA     BIT       P02
      000000F5H   SFRSYM    DATA     BYTE      I2CMSR
      000000B0H.0 SFRSYM    DATA     BIT       P30
      000000A0H.1 SFRSYM    DATA     BIT       P21
LX51 LINKER/LOCATER V4.66.97.0                                                        11/10/2024  11:26:37  PAGE 59


      00000090H.2 SFRSYM    DATA     BIT       P12
      00000080H.3 SFRSYM    DATA     BIT       P03
      000000D4H   SFRSYM    DATA     BYTE      ADCMPL
      000000B0H.1 SFRSYM    DATA     BIT       P31
      000000A0H.2 SFRSYM    DATA     BIT       P22
      00000090H.3 SFRSYM    DATA     BIT       P13
      00000080H.4 SFRSYM    DATA     BIT       P04
      000000B0H.2 SFRSYM    DATA     BIT       P32
      000000A0H.3 SFRSYM    DATA     BIT       P23
      00000090H.4 SFRSYM    DATA     BIT       P14
      00000080H.5 SFRSYM    DATA     BIT       P05
      00000089H   SFRSYM    DATA     BYTE      TMOD
      00000088H   SFRSYM    DATA     BYTE      TCON
      000000B0H.3 SFRSYM    DATA     BIT       P33
      000000A0H.4 SFRSYM    DATA     BIT       P24
      00000090H.5 SFRSYM    DATA     BIT       P15
      00000080H.6 SFRSYM    DATA     BIT       P06
      000000B0H.4 SFRSYM    DATA     BIT       P34
      000000A0H.5 SFRSYM    DATA     BIT       P25
      00000090H.6 SFRSYM    DATA     BIT       P16
      00000080H.7 SFRSYM    DATA     BIT       P07
      000000B0H.5 SFRSYM    DATA     BIT       P35
      000000A0H.6 SFRSYM    DATA     BIT       P26
      00000090H.7 SFRSYM    DATA     BIT       P17
      000000F2H   SFRSYM    DATA     BYTE      I2CSSR
      000000B0H.6 SFRSYM    DATA     BIT       P36
      000000A0H.7 SFRSYM    DATA     BIT       P27
      000000ECH   SFRSYM    DATA     BYTE      SPCR
      000000DDH   SFRSYM    DATA     BYTE      ADRESH
      000000B0H.7 SFRSYM    DATA     BIT       P37
      000000EEH   SFRSYM    DATA     BYTE      SPDR
      000000EFH   SFRSYM    DATA     BYTE      SSCR
      000000D3H   SFRSYM    DATA     BYTE      ADDLYL
      000000DCH   SFRSYM    DATA     BYTE      ADRESL
      00000088H.1 SFRSYM    DATA     BIT       IE0
      00000088H.3 SFRSYM    DATA     BIT       IE1
      0000008FH   SFRSYM    DATA     BYTE      CLKDIV
      000000F0H   SFRSYM    DATA     BYTE      B
      00000080H.5 SFRSYM    DATA     BIT       HShuntSEL
      00000091H   SFRSYM    DATA     BYTE      FUNCCR
      0000009AH   SFRSYM    DATA     BYTE      P0TRIS
      000000A1H   SFRSYM    DATA     BYTE      P1TRIS
      000000A2H   SFRSYM    DATA     BYTE      P2TRIS
      00000080H.3 SFRSYM    DATA     BIT       LShuntSEL
      000000E0H   SFRSYM    DATA     BYTE      ACC
      000000A3H   SFRSYM    DATA     BYTE      P3TRIS
      000000A8H.4 SFRSYM    DATA     BIT       ES0
      000000A8H.6 SFRSYM    DATA     BIT       ES1
      000000A8H.1 SFRSYM    DATA     BIT       ET0
      000000EDH   SFRSYM    DATA     BYTE      SPSR
      000000A8H.3 SFRSYM    DATA     BIT       ET1
      00000088H.5 SFRSYM    DATA     BIT       TF0
      000000A8H.5 SFRSYM    DATA     BIT       ET2
      00000098H.0 SFRSYM    DATA     BIT       RI0
      00000088H.7 SFRSYM    DATA     BIT       TF1
      0000008CH   SFRSYM    DATA     BYTE      TH0
      000000A8H.0 SFRSYM    DATA     BIT       EX0
      00000098H.1 SFRSYM    DATA     BIT       TI0
      00000088H.0 SFRSYM    DATA     BIT       IT0
      0000008DH   SFRSYM    DATA     BYTE      TH1
      000000A8H.2 SFRSYM    DATA     BIT       EX1
      00000088H.2 SFRSYM    DATA     BIT       IT1
      000000CDH   SFRSYM    DATA     BYTE      TH2
      000000D0H.0 SFRSYM    DATA     BIT       P
      000000DBH   SFRSYM    DATA     BYTE      TH3
LX51 LINKER/LOCATER V4.66.97.0                                                        11/10/2024  11:26:37  PAGE 60


      000000E3H   SFRSYM    DATA     BYTE      TH4
      0000008AH   SFRSYM    DATA     BYTE      TL0
      0000008BH   SFRSYM    DATA     BYTE      TL1
      00000098H.2 SFRSYM    DATA     BIT       U0RB8
      000000CCH   SFRSYM    DATA     BYTE      TL2
      000000B8H.4 SFRSYM    DATA     BIT       PS0
      000000DAH   SFRSYM    DATA     BYTE      TL3
      000000BFH   SFRSYM    DATA     BYTE      BUZCON
      000000B8H.6 SFRSYM    DATA     BIT       PS1
      000000B8H.1 SFRSYM    DATA     BIT       PT0
      00000098H.3 SFRSYM    DATA     BIT       U0TB8
      000000E2H   SFRSYM    DATA     BYTE      TL4
      000000D0H.3 SFRSYM    DATA     BIT       RS0
      000000B8H.3 SFRSYM    DATA     BIT       PT1
      000000D0H.4 SFRSYM    DATA     BIT       RS1
      000000B8H.5 SFRSYM    DATA     BIT       PT2
      00000098H.7 SFRSYM    DATA     BIT       U0SM0
      00000088H.4 SFRSYM    DATA     BIT       TR0
      000000BEH   SFRSYM    DATA     BYTE      BUZDIV
      00000098H.6 SFRSYM    DATA     BIT       U0SM1
      00000088H.6 SFRSYM    DATA     BIT       TR1
      000000B8H.0 SFRSYM    DATA     BIT       PX0
      00000098H.5 SFRSYM    DATA     BIT       U0SM2
      000000B8H.2 SFRSYM    DATA     BIT       PX1
      000000BDH   SFRSYM    DATA     BYTE      WUTCRH
      00000099H   SFRSYM    DATA     BYTE      SBUF0
      000000EBH   SFRSYM    DATA     BYTE      SBUF1
      000000BCH   SFRSYM    DATA     BYTE      WUTCRL
      00000098H   SFRSYM    DATA     BYTE      SCON0
      000000EAH   SFRSYM    DATA     BYTE      SCON1
      000000C8H   SFRSYM    DATA     BYTE      T2CON
      00000086H   SFRSYM    DATA     BYTE      DPS
      000000FEH   SFRSYM    DATA     BYTE      MDATA
      000000F6H   SFRSYM    DATA     BYTE      I2CMBUF
      000000F1H   SFRSYM    DATA     BYTE      I2CSADR
      00000098H.4 SFRSYM    DATA     BIT       U0REN
      000000C8H.5 SFRSYM    DATA     BIT       CAPES
      000000FDH   SFRSYM    DATA     BYTE      MADRH
      0000008EH   SFRSYM    DATA     BYTE      CKCON
      000000F3H   SFRSYM    DATA     BYTE      I2CSBUF
      000000FCH   SFRSYM    DATA     BYTE      MADRL
      000000D0H.5 SFRSYM    DATA     BIT       F0
      000000FBH   SFRSYM    DATA     BYTE      MLOCK
      000000D0H   SFRSYM    DATA     BYTE      PSW
      00000097H   SFRSYM    DATA     BYTE      WDCON
      02000050H   SYMBOL    XDATA    INT       CurrentBuf
      01003DD0H   SYMBOL    CONST    ---       _?ix1000
      010029A9H   SYMBOL    CODE     ---       _Duty_Calc

      010027C9H   BLOCK     CODE     ---       LVL=0
      ---         BLOCKEND  ---      ---       LVL=0

      010036EEH   BLOCK     CODE     ---       LVL=0
      010036EEH   BLOCK     CODE     NEAR LAB  LVL=1
      00000025H   SYMBOL    DATA     ---       OCInitCfg
      ---         BLOCKEND  ---      ---       LVL=1
      010036EEH   LINE      CODE     ---       #22
      010036EEH   LINE      CODE     ---       #23
      010036EEH   LINE      CODE     ---       #26
      010036F1H   LINE      CODE     ---       #27
      010036F4H   LINE      CODE     ---       #28
      010036F7H   LINE      CODE     ---       #30
      010036F7H   LINE      CODE     ---       #31
      010036F7H   LINE      CODE     ---       #32
      010036F7H   LINE      CODE     ---       #33
LX51 LINKER/LOCATER V4.66.97.0                                                        11/10/2024  11:26:37  PAGE 61


      010036FAH   LINE      CODE     ---       #35
      010036FCH   LINE      CODE     ---       #36
      01003706H   LINE      CODE     ---       #37
      01003708H   LINE      CODE     ---       #38
      01003712H   LINE      CODE     ---       #40
      01003712H   LINE      CODE     ---       #41
      01003715H   LINE      CODE     ---       #42
      ---         BLOCKEND  ---      ---       LVL=0

      0100121AH   BLOCK     CODE     ---       LVL=0
      0100121AH   BLOCK     CODE     NEAR LAB  LVL=1
      00000023H   SYMBOL    DATA     INT       retry
      00000025H   SYMBOL    DATA     INT       i
      02000017H   SYMBOL    XDATA    ---       LastOutput
      00000027H   SYMBOL    DATA     FLOAT     buf
      0000002BH   SYMBOL    DATA     FLOAT     Err
      ---         BLOCKEND  ---      ---       LVL=1
      0100121AH   LINE      CODE     ---       #45
      0100121AH   LINE      CODE     ---       #46
      0100121AH   LINE      CODE     ---       #47
      01001220H   LINE      CODE     ---       #48
      01001233H   LINE      CODE     ---       #51
      01001238H   LINE      CODE     ---       #52
      01001238H   LINE      CODE     ---       #53
      0100123AH   LINE      CODE     ---       #54
      01001245H   LINE      CODE     ---       #56
      01001245H   LINE      CODE     ---       #58
      0100125CH   LINE      CODE     ---       #59
      0100125EH   LINE      CODE     ---       #60
      01001260H   LINE      CODE     ---       #61
      01001262H   LINE      CODE     ---       #62
      01001267H   LINE      CODE     ---       #63
      01001269H   LINE      CODE     ---       #66
      01001269H   LINE      CODE     ---       #67
      01001270H   LINE      CODE     ---       #68
      01001273H   LINE      CODE     ---       #69
      0100128AH   LINE      CODE     ---       #70
      01001292H   LINE      CODE     ---       #71
      01001292H   LINE      CODE     ---       #72
      01001297H   LINE      CODE     ---       #74
      0100129DH   LINE      CODE     ---       #75
      0100129DH   LINE      CODE     ---       #76
      0100129FH   LINE      CODE     ---       #77
      010012A0H   LINE      CODE     ---       #78
      010012ABH   LINE      CODE     ---       #80
      010012ABH   LINE      CODE     ---       #82
      010012B1H   LINE      CODE     ---       #83
      010012B3H   LINE      CODE     ---       #84
      010012BAH   LINE      CODE     ---       #85
      010012BFH   LINE      CODE     ---       #87
      010012BFH   LINE      CODE     ---       #88
      010012C2H   LINE      CODE     ---       #89
      010012C9H   LINE      CODE     ---       #91
      01001316H   LINE      CODE     ---       #92
      01001324H   LINE      CODE     ---       #94
      0100132DH   LINE      CODE     ---       #95
      0100136AH   LINE      CODE     ---       #96
      0100137FH   LINE      CODE     ---       #98
      01001388H   LINE      CODE     ---       #99
      01001417H   LINE      CODE     ---       #100
      01001436H   LINE      CODE     ---       #101
      0100143EH   LINE      CODE     ---       #102
      0100143EH   LINE      CODE     ---       #103
      01001446H   LINE      CODE     ---       #105
      0100144CH   LINE      CODE     ---       #106
LX51 LINKER/LOCATER V4.66.97.0                                                        11/10/2024  11:26:37  PAGE 62


      0100144CH   LINE      CODE     ---       #107
      01001451H   LINE      CODE     ---       #108
      0100145BH   LINE      CODE     ---       #109
      0100145BH   LINE      CODE     ---       #110
      ---         BLOCKEND  ---      ---       LVL=0

      01003B55H   BLOCK     CODE     ---       LVL=0
      01003B55H   LINE      CODE     ---       #113
      01003B55H   LINE      CODE     ---       #114
      01003B55H   LINE      CODE     ---       #116
      01003B55H   LINE      CODE     ---       #117
      01003B58H   LINE      CODE     ---       #119
      01003B58H   LINE      CODE     ---       #120
      01003B58H   LINE      CODE     ---       #121
      01003B58H   LINE      CODE     ---       #122
      01003B5BH   LINE      CODE     ---       #123
      ---         BLOCKEND  ---      ---       LVL=0

      010029A9H   BLOCK     CODE     ---       LVL=0
      00000023H   SYMBOL    DATA     FLOAT     ShuntmOhm
      00000027H   SYMBOL    DATA     INT       Current
      00000029H   SYMBOL    DATA     FLOAT     Offset
      010029B1H   BLOCK     CODE     NEAR LAB  LVL=1
      0000002DH   SYMBOL    DATA     FLOAT     buf
      ---         BLOCKEND  ---      ---       LVL=1
      010029A9H   LINE      CODE     ---       #126
      010029B1H   LINE      CODE     ---       #127
      010029B1H   LINE      CODE     ---       #129
      010029D2H   LINE      CODE     ---       #130
      010029DCH   LINE      CODE     ---       #131
      010029E7H   LINE      CODE     ---       #132
      01002A04H   LINE      CODE     ---       #133
      01002A11H   LINE      CODE     ---       #135
      01002A2AH   LINE      CODE     ---       #136
      01002A3DH   LINE      CODE     ---       #137
      01002A45H   LINE      CODE     ---       #138
      ---         BLOCKEND  ---      ---       LVL=0

      01002674H   BLOCK     CODE     ---       LVL=0
      01002674H   LINE      CODE     ---       #141
      01002674H   LINE      CODE     ---       #142
      01002674H   LINE      CODE     ---       #144
      0100268BH   LINE      CODE     ---       #145
      01002693H   LINE      CODE     ---       #147
      0100269DH   LINE      CODE     ---       #148
      0100269DH   LINE      CODE     ---       #149
      010026A7H   LINE      CODE     ---       #150
      010026B9H   LINE      CODE     ---       #151
      010026B9H   LINE      CODE     ---       #152
      010026B9H   LINE      CODE     ---       #153
      010026BCH   LINE      CODE     ---       #154
      010026BEH   LINE      CODE     ---       #156
      010026D0H   LINE      CODE     ---       #157
      010026D0H   LINE      CODE     ---       #158
      010026DEH   LINE      CODE     ---       #159
      010026EFH   LINE      CODE     ---       #160
      010026F1H   LINE      CODE     ---       #161
      010026F3H   LINE      CODE     ---       #162
      010026F5H   LINE      CODE     ---       #163
      010026F7H   LINE      CODE     ---       #166
      010026F7H   LINE      CODE     ---       #167
      0100270BH   LINE      CODE     ---       #168
      0100270DH   LINE      CODE     ---       #169
      0100270FH   LINE      CODE     ---       #170
      01002711H   LINE      CODE     ---       #171
LX51 LINKER/LOCATER V4.66.97.0                                                        11/10/2024  11:26:37  PAGE 63


      01002713H   LINE      CODE     ---       #172
      01002713H   LINE      CODE     ---       #174
      01002715H   LINE      CODE     ---       #175
      ---         BLOCKEND  ---      ---       LVL=0

      ---         MODULE    ---      ---       WATCHDOG
      0100002EH   PUBLIC    CODE     ---       GetIfWDogCauseRST
      01003AF4H   PUBLIC    CODE     ---       WDog_Feed
      01003AE4H   PUBLIC    CODE     ---       WDog_DeInit
      0100000EH   PUBLIC    CODE     ---       WDog_Init
      000000C8H.0 SFRSYM    DATA     BIT       T2I0
      000000C3H   SFRSYM    DATA     BYTE      CCH1
      00000080H   SFRSYM    DATA     BYTE      P0
      000000C8H.1 SFRSYM    DATA     BIT       T2I1
      000000C5H   SFRSYM    DATA     BYTE      CCH2
      00000090H   SFRSYM    DATA     BYTE      P1
      000000C7H   SFRSYM    DATA     BYTE      CCH3
      000000ACH   SFRSYM    DATA     BYTE      P0EXTIE
      000000A0H   SFRSYM    DATA     BYTE      P2
      000000B4H   SFRSYM    DATA     BYTE      P0EXTIF
      000000B0H   SFRSYM    DATA     BYTE      P3
      000000ADH   SFRSYM    DATA     BYTE      P1EXTIE
      000000D0H.6 SFRSYM    DATA     BIT       AC
      000000FFH   SFRSYM    DATA     BYTE      MCTRL
      000000C2H   SFRSYM    DATA     BYTE      CCL1
      000000B5H   SFRSYM    DATA     BYTE      P1EXTIF
      000000AEH   SFRSYM    DATA     BYTE      P2EXTIE
      000000C4H   SFRSYM    DATA     BYTE      CCL2
      000000B6H   SFRSYM    DATA     BYTE      P2EXTIF
      000000AFH   SFRSYM    DATA     BYTE      P3EXTIE
      000000A8H.7 SFRSYM    DATA     BIT       EA
      000000C6H   SFRSYM    DATA     BYTE      CCL3
      000000B7H   SFRSYM    DATA     BYTE      P3EXTIF
      000000AAH   SFRSYM    DATA     BYTE      EIE2
      000000B2H   SFRSYM    DATA     BYTE      EIF2
      000000C8H.3 SFRSYM    DATA     BIT       T2R0
      000000C8H.4 SFRSYM    DATA     BIT       T2R1
      00000083H   SFRSYM    DATA     BYTE      DPH0
      000000A8H   SFRSYM    DATA     BYTE      IE
      00000085H   SFRSYM    DATA     BYTE      DPH1
      000000B9H   SFRSYM    DATA     BYTE      EIP1
      000000BAH   SFRSYM    DATA     BYTE      EIP2
      00000082H   SFRSYM    DATA     BYTE      DPL0
      00000084H   SFRSYM    DATA     BYTE      DPL1
      000000C8H.6 SFRSYM    DATA     BIT       I3FR
      000000CFH   SFRSYM    DATA     BYTE      T2IE
      00000096H   SFRSYM    DATA     BYTE      TA
      000000C9H   SFRSYM    DATA     BYTE      T2IF
      000000C8H.2 SFRSYM    DATA     BIT       T2CM
      000000DFH   SFRSYM    DATA     BYTE      ADCON0
      000000DEH   SFRSYM    DATA     BYTE      ADCON1
      000000E9H   SFRSYM    DATA     BYTE      ADCON2
      000000B8H   SFRSYM    DATA     BYTE      IP
      000000CEH   SFRSYM    DATA     BYTE      CCEN
      000000D0H.7 SFRSYM    DATA     BIT       CY
      000000D2H   SFRSYM    DATA     BYTE      T34MOD
      00000093H   SFRSYM    DATA     BYTE      DPX0
      00000095H   SFRSYM    DATA     BYTE      DPX1
      000000F4H   SFRSYM    DATA     BYTE      I2CMSA
      000000F5H   SFRSYM    DATA     BYTE      I2CMCR
      00000081H   SFRSYM    DATA     BYTE      SP
      000000D0H.2 SFRSYM    DATA     BIT       OV
      000000F2H   SFRSYM    DATA     BYTE      I2CSCR
      000000C8H.7 SFRSYM    DATA     BIT       T2PS
      000000D1H   SFRSYM    DATA     BYTE      ADCMPC
LX51 LINKER/LOCATER V4.66.97.0                                                        11/10/2024  11:26:37  PAGE 64


      000000CBH   SFRSYM    DATA     BYTE      RLDH
      000000D5H   SFRSYM    DATA     BYTE      ADCMPH
      000000CAH   SFRSYM    DATA     BYTE      RLDL
      00000080H.0 SFRSYM    DATA     BIT       P00
      00000090H.0 SFRSYM    DATA     BIT       P10
      00000080H.1 SFRSYM    DATA     BIT       P01
      000000F7H   SFRSYM    DATA     BYTE      I2CMTP
      00000099H   SFRSYM    DATA     BYTE      SBUF
      00000087H   SFRSYM    DATA     BYTE      PCON
      000000A0H.0 SFRSYM    DATA     BIT       P20
      00000090H.1 SFRSYM    DATA     BIT       P11
      00000080H.2 SFRSYM    DATA     BIT       P02
      000000F5H   SFRSYM    DATA     BYTE      I2CMSR
      000000B0H.0 SFRSYM    DATA     BIT       P30
      000000A0H.1 SFRSYM    DATA     BIT       P21
      00000090H.2 SFRSYM    DATA     BIT       P12
      00000080H.3 SFRSYM    DATA     BIT       P03
      000000D4H   SFRSYM    DATA     BYTE      ADCMPL
      000000B0H.1 SFRSYM    DATA     BIT       P31
      000000A0H.2 SFRSYM    DATA     BIT       P22
      00000090H.3 SFRSYM    DATA     BIT       P13
      00000080H.4 SFRSYM    DATA     BIT       P04
      000000B0H.2 SFRSYM    DATA     BIT       P32
      000000A0H.3 SFRSYM    DATA     BIT       P23
      00000090H.4 SFRSYM    DATA     BIT       P14
      00000080H.5 SFRSYM    DATA     BIT       P05
      00000089H   SFRSYM    DATA     BYTE      TMOD
      00000088H   SFRSYM    DATA     BYTE      TCON
      000000B0H.3 SFRSYM    DATA     BIT       P33
      000000A0H.4 SFRSYM    DATA     BIT       P24
      00000090H.5 SFRSYM    DATA     BIT       P15
      00000080H.6 SFRSYM    DATA     BIT       P06
      000000B0H.4 SFRSYM    DATA     BIT       P34
      000000A0H.5 SFRSYM    DATA     BIT       P25
      00000090H.6 SFRSYM    DATA     BIT       P16
      00000080H.7 SFRSYM    DATA     BIT       P07
      000000B0H.5 SFRSYM    DATA     BIT       P35
      000000A0H.6 SFRSYM    DATA     BIT       P26
      00000090H.7 SFRSYM    DATA     BIT       P17
      000000F2H   SFRSYM    DATA     BYTE      I2CSSR
      000000B0H.6 SFRSYM    DATA     BIT       P36
      000000A0H.7 SFRSYM    DATA     BIT       P27
      000000ECH   SFRSYM    DATA     BYTE      SPCR
      000000DDH   SFRSYM    DATA     BYTE      ADRESH
      000000B0H.7 SFRSYM    DATA     BIT       P37
      000000EEH   SFRSYM    DATA     BYTE      SPDR
      000000EFH   SFRSYM    DATA     BYTE      SSCR
      000000D3H   SFRSYM    DATA     BYTE      ADDLYL
      000000DCH   SFRSYM    DATA     BYTE      ADRESL
      00000088H.1 SFRSYM    DATA     BIT       IE0
      00000088H.3 SFRSYM    DATA     BIT       IE1
      0000008FH   SFRSYM    DATA     BYTE      CLKDIV
      000000F0H   SFRSYM    DATA     BYTE      B
      00000091H   SFRSYM    DATA     BYTE      FUNCCR
      0000009AH   SFRSYM    DATA     BYTE      P0TRIS
      000000A1H   SFRSYM    DATA     BYTE      P1TRIS
      000000A2H   SFRSYM    DATA     BYTE      P2TRIS
      000000E0H   SFRSYM    DATA     BYTE      ACC
      000000A3H   SFRSYM    DATA     BYTE      P3TRIS
      000000A8H.4 SFRSYM    DATA     BIT       ES0
      000000A8H.6 SFRSYM    DATA     BIT       ES1
      000000A8H.1 SFRSYM    DATA     BIT       ET0
      000000EDH   SFRSYM    DATA     BYTE      SPSR
      000000A8H.3 SFRSYM    DATA     BIT       ET1
      00000088H.5 SFRSYM    DATA     BIT       TF0
LX51 LINKER/LOCATER V4.66.97.0                                                        11/10/2024  11:26:37  PAGE 65


      000000A8H.5 SFRSYM    DATA     BIT       ET2
      00000098H.0 SFRSYM    DATA     BIT       RI0
      00000088H.7 SFRSYM    DATA     BIT       TF1
      0000008CH   SFRSYM    DATA     BYTE      TH0
      000000A8H.0 SFRSYM    DATA     BIT       EX0
      00000098H.1 SFRSYM    DATA     BIT       TI0
      00000088H.0 SFRSYM    DATA     BIT       IT0
      0000008DH   SFRSYM    DATA     BYTE      TH1
      000000A8H.2 SFRSYM    DATA     BIT       EX1
      00000088H.2 SFRSYM    DATA     BIT       IT1
      000000CDH   SFRSYM    DATA     BYTE      TH2
      000000D0H.0 SFRSYM    DATA     BIT       P
      000000DBH   SFRSYM    DATA     BYTE      TH3
      000000E3H   SFRSYM    DATA     BYTE      TH4
      0000008AH   SFRSYM    DATA     BYTE      TL0
      0000008BH   SFRSYM    DATA     BYTE      TL1
      00000098H.2 SFRSYM    DATA     BIT       U0RB8
      000000CCH   SFRSYM    DATA     BYTE      TL2
      000000B8H.4 SFRSYM    DATA     BIT       PS0
      000000DAH   SFRSYM    DATA     BYTE      TL3
      000000BFH   SFRSYM    DATA     BYTE      BUZCON
      000000B8H.6 SFRSYM    DATA     BIT       PS1
      000000B8H.1 SFRSYM    DATA     BIT       PT0
      00000098H.3 SFRSYM    DATA     BIT       U0TB8
      000000E2H   SFRSYM    DATA     BYTE      TL4
      000000D0H.3 SFRSYM    DATA     BIT       RS0
      000000B8H.3 SFRSYM    DATA     BIT       PT1
      000000D0H.4 SFRSYM    DATA     BIT       RS1
      000000B8H.5 SFRSYM    DATA     BIT       PT2
      00000098H.7 SFRSYM    DATA     BIT       U0SM0
      00000088H.4 SFRSYM    DATA     BIT       TR0
      000000BEH   SFRSYM    DATA     BYTE      BUZDIV
      00000098H.6 SFRSYM    DATA     BIT       U0SM1
      00000088H.6 SFRSYM    DATA     BIT       TR1
      000000B8H.0 SFRSYM    DATA     BIT       PX0
      00000098H.5 SFRSYM    DATA     BIT       U0SM2
      000000B8H.2 SFRSYM    DATA     BIT       PX1
      000000BDH   SFRSYM    DATA     BYTE      WUTCRH
      00000099H   SFRSYM    DATA     BYTE      SBUF0
      000000EBH   SFRSYM    DATA     BYTE      SBUF1
      000000BCH   SFRSYM    DATA     BYTE      WUTCRL
      00000098H   SFRSYM    DATA     BYTE      SCON0
      000000EAH   SFRSYM    DATA     BYTE      SCON1
      000000C8H   SFRSYM    DATA     BYTE      T2CON
      00000086H   SFRSYM    DATA     BYTE      DPS
      000000FEH   SFRSYM    DATA     BYTE      MDATA
      000000F6H   SFRSYM    DATA     BYTE      I2CMBUF
      000000F1H   SFRSYM    DATA     BYTE      I2CSADR
      00000098H.4 SFRSYM    DATA     BIT       U0REN
      000000C8H.5 SFRSYM    DATA     BIT       CAPES
      000000FDH   SFRSYM    DATA     BYTE      MADRH
      0000008EH   SFRSYM    DATA     BYTE      CKCON
      000000F3H   SFRSYM    DATA     BYTE      I2CSBUF
      000000FCH   SFRSYM    DATA     BYTE      MADRL
      000000D0H.5 SFRSYM    DATA     BIT       F0
      000000FBH   SFRSYM    DATA     BYTE      MLOCK
      000000D0H   SFRSYM    DATA     BYTE      PSW
      00000097H   SFRSYM    DATA     BYTE      WDCON

      0100000EH   BLOCK     CODE     ---       LVL=0
      0100000EH   BLOCK     CODE     NEAR LAB  LVL=1
      00000062H   SYMBOL    DATA     BYTE      buf
      ---         BLOCKEND  ---      ---       LVL=1
      0100000EH   LINE      CODE     ---       #6
      0100000EH   LINE      CODE     ---       #7
LX51 LINKER/LOCATER V4.66.97.0                                                        11/10/2024  11:26:37  PAGE 66


      0100000EH   LINE      CODE     ---       #10
      01000014H   LINE      CODE     ---       #11
      01000017H   LINE      CODE     ---       #12
      0100001AH   LINE      CODE     ---       #14
      0100001CH   LINE      CODE     ---       #15
      0100001DH   LINE      CODE     ---       #16
      01000020H   LINE      CODE     ---       #17
      01000023H   LINE      CODE     ---       #18
      01000026H   LINE      CODE     ---       #19
      01000027H   LINE      CODE     ---       #20
      01000029H   LINE      CODE     ---       #21
      ---         BLOCKEND  ---      ---       LVL=0

      01003AE4H   BLOCK     CODE     ---       LVL=0
      01003AE4H   LINE      CODE     ---       #25
      01003AE4H   LINE      CODE     ---       #26
      01003AE4H   LINE      CODE     ---       #27
      01003AE6H   LINE      CODE     ---       #28
      01003AE7H   LINE      CODE     ---       #29
      01003AEAH   LINE      CODE     ---       #30
      01003AEDH   LINE      CODE     ---       #31
      01003AF0H   LINE      CODE     ---       #32
      01003AF1H   LINE      CODE     ---       #33
      01003AF3H   LINE      CODE     ---       #34
      ---         BLOCKEND  ---      ---       LVL=0

      01003AF4H   BLOCK     CODE     ---       LVL=0
      01003AF4H   LINE      CODE     ---       #38
      01003AF4H   LINE      CODE     ---       #39
      01003AF4H   LINE      CODE     ---       #40
      01003AF6H   LINE      CODE     ---       #41
      01003AF7H   LINE      CODE     ---       #42
      01003AFAH   LINE      CODE     ---       #43
      01003AFDH   LINE      CODE     ---       #44
      01003B00H   LINE      CODE     ---       #45
      01003B01H   LINE      CODE     ---       #46
      01003B03H   LINE      CODE     ---       #47
      ---         BLOCKEND  ---      ---       LVL=0

      0100002EH   BLOCK     CODE     ---       LVL=0
      0100002EH   BLOCK     CODE     NEAR LAB  LVL=1
      00000063H   SYMBOL    DATA     BYTE      buf
      ---         BLOCKEND  ---      ---       LVL=1
      0100002EH   LINE      CODE     ---       #51
      0100002EH   LINE      CODE     ---       #52
      0100002EH   LINE      CODE     ---       #55
      01000030H   LINE      CODE     ---       #56
      01000031H   LINE      CODE     ---       #57
      01000034H   LINE      CODE     ---       #58
      01000037H   LINE      CODE     ---       #59
      0100003AH   LINE      CODE     ---       #60
      0100003BH   LINE      CODE     ---       #61
      0100003DH   LINE      CODE     ---       #63
      01000046H   LINE      CODE     ---       #64
      ---         BLOCKEND  ---      ---       LVL=0

      ---         MODULE    ---      ---       BATTVOLTDISPLAY
      0200000FH   PUBLIC    XDATA    FLOAT     Battery
      00000022H.5 PUBLIC    BIT      BIT       IsBatteryFault
      00000022H.4 PUBLIC    BIT      BIT       IsBatteryAlert
      02000002H   PUBLIC    XDATA    BYTE      VshowFSMState
      01000FC8H   PUBLIC    CODE     ---       BatteryTelemHandler
      0100363CH   PUBLIC    CODE     ---       BattDisplayTIM
      01002FD5H   PUBLIC    CODE     ---       DisplayVBattAtStart
      01003B3EH   PUBLIC    CODE     ---       TriggerVshowDisplay
LX51 LINKER/LOCATER V4.66.97.0                                                        11/10/2024  11:26:37  PAGE 67


      000000C8H.0 SFRSYM    DATA     BIT       T2I0
      000000C3H   SFRSYM    DATA     BYTE      CCH1
      00000080H   SFRSYM    DATA     BYTE      P0
      000000C8H.1 SFRSYM    DATA     BIT       T2I1
      000000C5H   SFRSYM    DATA     BYTE      CCH2
      00000090H   SFRSYM    DATA     BYTE      P1
      000000C7H   SFRSYM    DATA     BYTE      CCH3
      000000ACH   SFRSYM    DATA     BYTE      P0EXTIE
      000000A0H   SFRSYM    DATA     BYTE      P2
      000000B4H   SFRSYM    DATA     BYTE      P0EXTIF
      000000B0H   SFRSYM    DATA     BYTE      P3
      000000ADH   SFRSYM    DATA     BYTE      P1EXTIE
      000000D0H.6 SFRSYM    DATA     BIT       AC
      000000FFH   SFRSYM    DATA     BYTE      MCTRL
      000000C2H   SFRSYM    DATA     BYTE      CCL1
      000000B5H   SFRSYM    DATA     BYTE      P1EXTIF
      000000AEH   SFRSYM    DATA     BYTE      P2EXTIE
      000000C4H   SFRSYM    DATA     BYTE      CCL2
      000000B6H   SFRSYM    DATA     BYTE      P2EXTIF
      000000AFH   SFRSYM    DATA     BYTE      P3EXTIE
      000000A8H.7 SFRSYM    DATA     BIT       EA
      000000C6H   SFRSYM    DATA     BYTE      CCL3
      000000B7H   SFRSYM    DATA     BYTE      P3EXTIF
      000000AAH   SFRSYM    DATA     BYTE      EIE2
      000000B2H   SFRSYM    DATA     BYTE      EIF2
      000000C8H.3 SFRSYM    DATA     BIT       T2R0
      000000C8H.4 SFRSYM    DATA     BIT       T2R1
      00000083H   SFRSYM    DATA     BYTE      DPH0
      000000A8H   SFRSYM    DATA     BYTE      IE
      00000085H   SFRSYM    DATA     BYTE      DPH1
      000000B9H   SFRSYM    DATA     BYTE      EIP1
      000000BAH   SFRSYM    DATA     BYTE      EIP2
      00000082H   SFRSYM    DATA     BYTE      DPL0
      00000084H   SFRSYM    DATA     BYTE      DPL1
      000000C8H.6 SFRSYM    DATA     BIT       I3FR
      000000CFH   SFRSYM    DATA     BYTE      T2IE
      00000096H   SFRSYM    DATA     BYTE      TA
      000000C9H   SFRSYM    DATA     BYTE      T2IF
      000000C8H.2 SFRSYM    DATA     BIT       T2CM
      000000DFH   SFRSYM    DATA     BYTE      ADCON0
      000000DEH   SFRSYM    DATA     BYTE      ADCON1
      000000E9H   SFRSYM    DATA     BYTE      ADCON2
      000000B8H   SFRSYM    DATA     BYTE      IP
      000000CEH   SFRSYM    DATA     BYTE      CCEN
      000000D0H.7 SFRSYM    DATA     BIT       CY
      000000D2H   SFRSYM    DATA     BYTE      T34MOD
      00000093H   SFRSYM    DATA     BYTE      DPX0
      00000095H   SFRSYM    DATA     BYTE      DPX1
      000000F4H   SFRSYM    DATA     BYTE      I2CMSA
      000000F5H   SFRSYM    DATA     BYTE      I2CMCR
      00000081H   SFRSYM    DATA     BYTE      SP
      000000D0H.2 SFRSYM    DATA     BIT       OV
      000000F2H   SFRSYM    DATA     BYTE      I2CSCR
      000000C8H.7 SFRSYM    DATA     BIT       T2PS
      000000D1H   SFRSYM    DATA     BYTE      ADCMPC
      000000CBH   SFRSYM    DATA     BYTE      RLDH
      000000D5H   SFRSYM    DATA     BYTE      ADCMPH
      000000CAH   SFRSYM    DATA     BYTE      RLDL
      00000080H.0 SFRSYM    DATA     BIT       P00
      00000090H.0 SFRSYM    DATA     BIT       P10
      00000080H.1 SFRSYM    DATA     BIT       P01
      000000F7H   SFRSYM    DATA     BYTE      I2CMTP
      00000099H   SFRSYM    DATA     BYTE      SBUF
      00000087H   SFRSYM    DATA     BYTE      PCON
      000000A0H.0 SFRSYM    DATA     BIT       P20
LX51 LINKER/LOCATER V4.66.97.0                                                        11/10/2024  11:26:37  PAGE 68


      00000090H.1 SFRSYM    DATA     BIT       P11
      00000080H.2 SFRSYM    DATA     BIT       P02
      000000F5H   SFRSYM    DATA     BYTE      I2CMSR
      000000B0H.0 SFRSYM    DATA     BIT       P30
      000000A0H.1 SFRSYM    DATA     BIT       P21
      00000090H.2 SFRSYM    DATA     BIT       P12
      00000080H.3 SFRSYM    DATA     BIT       P03
      000000D4H   SFRSYM    DATA     BYTE      ADCMPL
      000000B0H.1 SFRSYM    DATA     BIT       P31
      000000A0H.2 SFRSYM    DATA     BIT       P22
      00000090H.3 SFRSYM    DATA     BIT       P13
      00000080H.4 SFRSYM    DATA     BIT       P04
      000000B0H.2 SFRSYM    DATA     BIT       P32
      000000A0H.3 SFRSYM    DATA     BIT       P23
      00000090H.4 SFRSYM    DATA     BIT       P14
      00000080H.5 SFRSYM    DATA     BIT       P05
      00000089H   SFRSYM    DATA     BYTE      TMOD
      00000088H   SFRSYM    DATA     BYTE      TCON
      000000B0H.3 SFRSYM    DATA     BIT       P33
      000000A0H.4 SFRSYM    DATA     BIT       P24
      00000090H.5 SFRSYM    DATA     BIT       P15
      00000080H.6 SFRSYM    DATA     BIT       P06
      000000B0H.4 SFRSYM    DATA     BIT       P34
      000000A0H.5 SFRSYM    DATA     BIT       P25
      00000090H.6 SFRSYM    DATA     BIT       P16
      00000080H.7 SFRSYM    DATA     BIT       P07
      000000B0H.5 SFRSYM    DATA     BIT       P35
      000000A0H.6 SFRSYM    DATA     BIT       P26
      00000090H.7 SFRSYM    DATA     BIT       P17
      000000F2H   SFRSYM    DATA     BYTE      I2CSSR
      000000B0H.6 SFRSYM    DATA     BIT       P36
      000000A0H.7 SFRSYM    DATA     BIT       P27
      000000ECH   SFRSYM    DATA     BYTE      SPCR
      000000DDH   SFRSYM    DATA     BYTE      ADRESH
      000000B0H.7 SFRSYM    DATA     BIT       P37
      000000EEH   SFRSYM    DATA     BYTE      SPDR
      000000EFH   SFRSYM    DATA     BYTE      SSCR
      000000D3H   SFRSYM    DATA     BYTE      ADDLYL
      000000DCH   SFRSYM    DATA     BYTE      ADRESL
      00000088H.1 SFRSYM    DATA     BIT       IE0
      00000088H.3 SFRSYM    DATA     BIT       IE1
      0000008FH   SFRSYM    DATA     BYTE      CLKDIV
      000000F0H   SFRSYM    DATA     BYTE      B
      00000091H   SFRSYM    DATA     BYTE      FUNCCR
      0000009AH   SFRSYM    DATA     BYTE      P0TRIS
      000000A1H   SFRSYM    DATA     BYTE      P1TRIS
      000000A2H   SFRSYM    DATA     BYTE      P2TRIS
      000000E0H   SFRSYM    DATA     BYTE      ACC
      000000A3H   SFRSYM    DATA     BYTE      P3TRIS
      000000A8H.4 SFRSYM    DATA     BIT       ES0
      000000A8H.6 SFRSYM    DATA     BIT       ES1
      000000A8H.1 SFRSYM    DATA     BIT       ET0
      000000EDH   SFRSYM    DATA     BYTE      SPSR
      000000A8H.3 SFRSYM    DATA     BIT       ET1
      00000088H.5 SFRSYM    DATA     BIT       TF0
      000000A8H.5 SFRSYM    DATA     BIT       ET2
      00000098H.0 SFRSYM    DATA     BIT       RI0
      00000088H.7 SFRSYM    DATA     BIT       TF1
      0000008CH   SFRSYM    DATA     BYTE      TH0
      000000A8H.0 SFRSYM    DATA     BIT       EX0
      00000098H.1 SFRSYM    DATA     BIT       TI0
      00000088H.0 SFRSYM    DATA     BIT       IT0
      0000008DH   SFRSYM    DATA     BYTE      TH1
      000000A8H.2 SFRSYM    DATA     BIT       EX1
      00000088H.2 SFRSYM    DATA     BIT       IT1
LX51 LINKER/LOCATER V4.66.97.0                                                        11/10/2024  11:26:37  PAGE 69


      000000CDH   SFRSYM    DATA     BYTE      TH2
      000000D0H.0 SFRSYM    DATA     BIT       P
      000000DBH   SFRSYM    DATA     BYTE      TH3
      000000E3H   SFRSYM    DATA     BYTE      TH4
      0000008AH   SFRSYM    DATA     BYTE      TL0
      0000008BH   SFRSYM    DATA     BYTE      TL1
      00000098H.2 SFRSYM    DATA     BIT       U0RB8
      000000CCH   SFRSYM    DATA     BYTE      TL2
      000000B8H.4 SFRSYM    DATA     BIT       PS0
      000000DAH   SFRSYM    DATA     BYTE      TL3
      000000BFH   SFRSYM    DATA     BYTE      BUZCON
      000000B8H.6 SFRSYM    DATA     BIT       PS1
      000000B8H.1 SFRSYM    DATA     BIT       PT0
      00000098H.3 SFRSYM    DATA     BIT       U0TB8
      000000E2H   SFRSYM    DATA     BYTE      TL4
      000000D0H.3 SFRSYM    DATA     BIT       RS0
      000000B8H.3 SFRSYM    DATA     BIT       PT1
      000000D0H.4 SFRSYM    DATA     BIT       RS1
      000000B8H.5 SFRSYM    DATA     BIT       PT2
      00000098H.7 SFRSYM    DATA     BIT       U0SM0
      00000088H.4 SFRSYM    DATA     BIT       TR0
      000000BEH   SFRSYM    DATA     BYTE      BUZDIV
      00000098H.6 SFRSYM    DATA     BIT       U0SM1
      00000088H.6 SFRSYM    DATA     BIT       TR1
      000000B8H.0 SFRSYM    DATA     BIT       PX0
      00000098H.5 SFRSYM    DATA     BIT       U0SM2
      000000B8H.2 SFRSYM    DATA     BIT       PX1
      000000BDH   SFRSYM    DATA     BYTE      WUTCRH
      00000099H   SFRSYM    DATA     BYTE      SBUF0
      000000EBH   SFRSYM    DATA     BYTE      SBUF1
      000000BCH   SFRSYM    DATA     BYTE      WUTCRL
      00000098H   SFRSYM    DATA     BYTE      SCON0
      000000EAH   SFRSYM    DATA     BYTE      SCON1
      000000C8H   SFRSYM    DATA     BYTE      T2CON
      00000086H   SFRSYM    DATA     BYTE      DPS
      000000FEH   SFRSYM    DATA     BYTE      MDATA
      000000F6H   SFRSYM    DATA     BYTE      I2CMBUF
      000000F1H   SFRSYM    DATA     BYTE      I2CSADR
      00000098H.4 SFRSYM    DATA     BIT       U0REN
      000000C8H.5 SFRSYM    DATA     BIT       CAPES
      000000FDH   SFRSYM    DATA     BYTE      MADRH
      0000008EH   SFRSYM    DATA     BYTE      CKCON
      000000F3H   SFRSYM    DATA     BYTE      I2CSBUF
      000000FCH   SFRSYM    DATA     BYTE      MADRL
      000000D0H.5 SFRSYM    DATA     BIT       F0
      000000FBH   SFRSYM    DATA     BYTE      MLOCK
      000000D0H   SFRSYM    DATA     BYTE      PSW
      00000097H   SFRSYM    DATA     BYTE      WDCON
      02000000H   SYMBOL    XDATA    INT       VshowTIM
      02000003H   SYMBOL    XDATA    BYTE      BattState
      0100145CH   SYMBOL    CODE     ---       BatVshowFSM
      02000004H   SYMBOL    XDATA    ---       BattVolt
      0200000EH   SYMBOL    XDATA    CHAR      BattShowTimer
      02000013H   SYMBOL    XDATA    FLOAT     VbattSample

      01001A63H   BLOCK     CODE     ---       LVL=0
      ---         BLOCKEND  ---      ---       LVL=0

      01003B3EH   BLOCK     CODE     ---       LVL=0
      01003B3EH   LINE      CODE     ---       #34
      01003B3EH   LINE      CODE     ---       #35
      01003B3EH   LINE      CODE     ---       #36
      01003B44H   LINE      CODE     ---       #37
      01003B46H   LINE      CODE     ---       #38
      ---         BLOCKEND  ---      ---       LVL=0
LX51 LINKER/LOCATER V4.66.97.0                                                        11/10/2024  11:26:37  PAGE 70



      0100145CH   BLOCK     CODE     ---       LVL=0
      0100145CH   BLOCK     CODE     NEAR LAB  LVL=1
      00000029H   SYMBOL    DATA     INT       buf
      ---         BLOCKEND  ---      ---       LVL=1
      0100145CH   LINE      CODE     ---       #41
      0100145CH   LINE      CODE     ---       #42
      0100145CH   LINE      CODE     ---       #45
      01001492H   LINE      CODE     ---       #46
      01001492H   LINE      CODE     ---       #47
      01001492H   LINE      CODE     ---       #48
      01001492H   LINE      CODE     ---       #49
      01001495H   LINE      CODE     ---       #50
      01001498H   LINE      CODE     ---       #51
      010014A1H   LINE      CODE     ---       #52
      010014A5H   LINE      CODE     ---       #54
      010014A5H   LINE      CODE     ---       #55
      010014BCH   LINE      CODE     ---       #56
      010014CCH   LINE      CODE     ---       #57
      010014DCH   LINE      CODE     ---       #58
      010014DFH   LINE      CODE     ---       #60
      010014EDH   LINE      CODE     ---       #61
      010014FCH   LINE      CODE     ---       #62
      0100150BH   LINE      CODE     ---       #63
      01001516H   LINE      CODE     ---       #64
      01001523H   LINE      CODE     ---       #65
      01001529H   LINE      CODE     ---       #66
      0100152AH   LINE      CODE     ---       #68
      0100152AH   LINE      CODE     ---       #69
      01001536H   LINE      CODE     ---       #70
      01001536H   LINE      CODE     ---       #71
      01001538H   LINE      CODE     ---       #72
      0100153BH   LINE      CODE     ---       #73
      0100153BH   LINE      CODE     ---       #74
      0100153BH   LINE      CODE     ---       #75
      01001542H   LINE      CODE     ---       #76
      0100154AH   LINE      CODE     ---       #77
      0100154AH   LINE      CODE     ---       #78
      0100154AH   LINE      CODE     ---       #79
      01001550H   LINE      CODE     ---       #80
      01001554H   LINE      CODE     ---       #81
      01001554H   LINE      CODE     ---       #82
      01001555H   LINE      CODE     ---       #84
      01001555H   LINE      CODE     ---       #85
      0100155DH   LINE      CODE     ---       #86
      01001563H   LINE      CODE     ---       #87
      01001566H   LINE      CODE     ---       #88
      01001571H   LINE      CODE     ---       #89
      0100157EH   LINE      CODE     ---       #90
      01001584H   LINE      CODE     ---       #91
      01001585H   LINE      CODE     ---       #93
      01001585H   LINE      CODE     ---       #94
      01001591H   LINE      CODE     ---       #95
      01001591H   LINE      CODE     ---       #96
      01001593H   LINE      CODE     ---       #97
      01001596H   LINE      CODE     ---       #98
      01001596H   LINE      CODE     ---       #99
      01001596H   LINE      CODE     ---       #100
      0100159DH   LINE      CODE     ---       #101
      010015A5H   LINE      CODE     ---       #102
      010015A5H   LINE      CODE     ---       #103
      010015A5H   LINE      CODE     ---       #104
      010015ABH   LINE      CODE     ---       #105
      010015AFH   LINE      CODE     ---       #106
      010015AFH   LINE      CODE     ---       #107
LX51 LINKER/LOCATER V4.66.97.0                                                        11/10/2024  11:26:37  PAGE 71


      010015B0H   LINE      CODE     ---       #109
      010015B0H   LINE      CODE     ---       #110
      010015B8H   LINE      CODE     ---       #111
      010015CCH   LINE      CODE     ---       #112
      010015D2H   LINE      CODE     ---       #113
      010015D5H   LINE      CODE     ---       #114
      010015E0H   LINE      CODE     ---       #115
      010015EDH   LINE      CODE     ---       #116
      010015F3H   LINE      CODE     ---       #117
      010015F4H   LINE      CODE     ---       #119
      010015F4H   LINE      CODE     ---       #120
      01001600H   LINE      CODE     ---       #121
      01001600H   LINE      CODE     ---       #122
      01001605H   LINE      CODE     ---       #123
      01001609H   LINE      CODE     ---       #124
      01001609H   LINE      CODE     ---       #125
      01001609H   LINE      CODE     ---       #126
      01001610H   LINE      CODE     ---       #127
      01001615H   LINE      CODE     ---       #128
      01001615H   LINE      CODE     ---       #129
      01001615H   LINE      CODE     ---       #130
      0100161BH   LINE      CODE     ---       #131
      0100161FH   LINE      CODE     ---       #132
      0100161FH   LINE      CODE     ---       #133
      01001620H   LINE      CODE     ---       #135
      01001620H   LINE      CODE     ---       #136
      01001625H   LINE      CODE     ---       #137
      0100162BH   LINE      CODE     ---       #138
      01001631H   LINE      CODE     ---       #139
      01001632H   LINE      CODE     ---       #141
      01001632H   LINE      CODE     ---       #142
      0100163CH   LINE      CODE     ---       #143
      01001641H   LINE      CODE     ---       #144
      01001641H   LINE      CODE     ---       #145
      01001641H   LINE      CODE     ---       #146
      ---         BLOCKEND  ---      ---       LVL=0

      01002FD5H   BLOCK     CODE     ---       LVL=0
      01002FD5H   LINE      CODE     ---       #149
      01002FD5H   LINE      CODE     ---       #150
      01002FD5H   LINE      CODE     ---       #152
      01002FE8H   LINE      CODE     ---       #153
      01002FF8H   LINE      CODE     ---       #154
      0100300AH   LINE      CODE     ---       #155
      0100300FH   LINE      CODE     ---       #157
      01003011H   LINE      CODE     ---       #158
      01003013H   LINE      CODE     ---       #160
      01003013H   LINE      CODE     ---       #161
      01003013H   LINE      CODE     ---       #162
      01003013H   LINE      CODE     ---       #163
      0100301DH   LINE      CODE     ---       #164
      0100302BH   LINE      CODE     ---       #166
      0100302EH   LINE      CODE     ---       #167
      01003033H   LINE      CODE     ---       #169
      0100303FH   LINE      CODE     ---       #170
      ---         BLOCKEND  ---      ---       LVL=0

      0100363CH   BLOCK     CODE     ---       LVL=0
      0100363CH   BLOCK     CODE     NEAR LAB  LVL=1
      00000006H   SYMBOL    DATA     CHAR      buf
      ---         BLOCKEND  ---      ---       LVL=1
      0100363CH   LINE      CODE     ---       #172
      0100363CH   LINE      CODE     ---       #173
      0100363CH   LINE      CODE     ---       #176
      0100364DH   LINE      CODE     ---       #178
LX51 LINKER/LOCATER V4.66.97.0                                                        11/10/2024  11:26:37  PAGE 72


      01003655H   LINE      CODE     ---       #179
      01003655H   LINE      CODE     ---       #180
      01003658H   LINE      CODE     ---       #181
      0100365CH   LINE      CODE     ---       #182
      0100366DH   LINE      CODE     ---       #183
      0100366DH   LINE      CODE     ---       #184
      0100366EH   LINE      CODE     ---       #185
      01003671H   LINE      CODE     ---       #186
      01003672H   LINE      CODE     ---       #189
      01003677H   LINE      CODE     ---       #190
      ---         BLOCKEND  ---      ---       LVL=0

      01000FC8H   BLOCK     CODE     ---       LVL=0
      01000FC8H   BLOCK     CODE     NEAR LAB  LVL=1
      00000004H   SYMBOL    DATA     FLOAT     AlertThr
      00000025H   SYMBOL    DATA     LONG      buf
      ---         BLOCKEND  ---      ---       LVL=1
      01000FC8H   LINE      CODE     ---       #193
      01000FC8H   LINE      CODE     ---       #194
      01000FC8H   LINE      CODE     ---       #198
      01000FD9H   LINE      CODE     ---       #199
      01000FD9H   LINE      CODE     ---       #200
      01000FF6H   LINE      CODE     ---       #201
      01001004H   LINE      CODE     ---       #202
      0100101CH   LINE      CODE     ---       #203
      0100102FH   LINE      CODE     ---       #204
      01001048H   LINE      CODE     ---       #205
      0100104AH   LINE      CODE     ---       #207
      0100104AH   LINE      CODE     ---       #208
      0100108AH   LINE      CODE     ---       #209
      010010AEH   LINE      CODE     ---       #210
      010010BFH   LINE      CODE     ---       #211
      010010BFH   LINE      CODE     ---       #212
      010010BFH   LINE      CODE     ---       #213
      010010BFH   LINE      CODE     ---       #214
      010010C9H   LINE      CODE     ---       #215
      010010C9H   LINE      CODE     ---       #217
      010010DBH   LINE      CODE     ---       #218
      010010DBH   LINE      CODE     ---       #219
      010010DDH   LINE      CODE     ---       #220
      010010DFH   LINE      CODE     ---       #221
      010010E1H   LINE      CODE     ---       #223
      010010E1H   LINE      CODE     ---       #224
      010010E8H   LINE      CODE     ---       #225
      010010F5H   LINE      CODE     ---       #226
      01001108H   LINE      CODE     ---       #227
      0100110DH   LINE      CODE     ---       #228
      0100110DH   LINE      CODE     ---       #230
      01001121H   LINE      CODE     ---       #231
      01001121H   LINE      CODE     ---       #233
      01001121H   LINE      CODE     ---       #234
      01001134H   LINE      CODE     ---       #235
      01001137H   LINE      CODE     ---       #237
      01001137H   LINE      CODE     ---       #238
      01001149H   LINE      CODE     ---       #239
      01001157H   LINE      CODE     ---       #240
      01001161H   LINE      CODE     ---       #241
      01001163H   LINE      CODE     ---       #243
      01001163H   LINE      CODE     ---       #244
      01001175H   LINE      CODE     ---       #245
      01001181H   LINE      CODE     ---       #246
      01001192H   LINE      CODE     ---       #247
      01001194H   LINE      CODE     ---       #249
      01001194H   LINE      CODE     ---       #250
      010011A6H   LINE      CODE     ---       #251
LX51 LINKER/LOCATER V4.66.97.0                                                        11/10/2024  11:26:37  PAGE 73


      010011B2H   LINE      CODE     ---       #252
      010011BEH   LINE      CODE     ---       #253
      010011BEH   LINE      CODE     ---       #254
      010011BEH   LINE      CODE     ---       #256
      010011D3H   LINE      CODE     ---       #257
      010011DCH   LINE      CODE     ---       #258
      010011FDH   LINE      CODE     ---       #259
      010011FDH   LINE      CODE     ---       #260
      01001201H   LINE      CODE     ---       #261
      01001205H   LINE      CODE     ---       #262
      01001209H   LINE      CODE     ---       #263
      0100120DH   LINE      CODE     ---       #264
      0100120DH   LINE      CODE     ---       #265
      01001216H   LINE      CODE     ---       #266
      01001219H   LINE      CODE     ---       #267
      ---         BLOCKEND  ---      ---       LVL=0

      ---         MODULE    ---      ---       TEMPCONTROL
      00000022H.3 PUBLIC    BIT      BIT       IsForceLeaveTurbo
      00000022H.2 PUBLIC    BIT      BIT       IsTempLIMActive
      00000022H.1 PUBLIC    BIT      BIT       IsDisableTurbo
      0100164DH   PUBLIC    CODE     ---       ThermalCalcProcess
      01001C80H   PUBLIC    CODE     ---       _ThermalILIMCalc
      010039F8H   PUBLIC    CODE     ---       CheckNTCStatus
      000000C8H.0 SFRSYM    DATA     BIT       T2I0
      000000C3H   SFRSYM    DATA     BYTE      CCH1
      00000080H   SFRSYM    DATA     BYTE      P0
      000000C8H.1 SFRSYM    DATA     BIT       T2I1
      000000C5H   SFRSYM    DATA     BYTE      CCH2
      00000090H   SFRSYM    DATA     BYTE      P1
      000000C7H   SFRSYM    DATA     BYTE      CCH3
      000000ACH   SFRSYM    DATA     BYTE      P0EXTIE
      000000A0H   SFRSYM    DATA     BYTE      P2
      000000B4H   SFRSYM    DATA     BYTE      P0EXTIF
      000000B0H   SFRSYM    DATA     BYTE      P3
      000000ADH   SFRSYM    DATA     BYTE      P1EXTIE
      000000D0H.6 SFRSYM    DATA     BIT       AC
      000000FFH   SFRSYM    DATA     BYTE      MCTRL
      000000C2H   SFRSYM    DATA     BYTE      CCL1
      000000B5H   SFRSYM    DATA     BYTE      P1EXTIF
      000000AEH   SFRSYM    DATA     BYTE      P2EXTIE
      000000C4H   SFRSYM    DATA     BYTE      CCL2
      000000B6H   SFRSYM    DATA     BYTE      P2EXTIF
      000000AFH   SFRSYM    DATA     BYTE      P3EXTIE
      000000A8H.7 SFRSYM    DATA     BIT       EA
      000000C6H   SFRSYM    DATA     BYTE      CCL3
      000000B7H   SFRSYM    DATA     BYTE      P3EXTIF
      000000AAH   SFRSYM    DATA     BYTE      EIE2
      000000B2H   SFRSYM    DATA     BYTE      EIF2
      000000C8H.3 SFRSYM    DATA     BIT       T2R0
      000000C8H.4 SFRSYM    DATA     BIT       T2R1
      00000083H   SFRSYM    DATA     BYTE      DPH0
      000000A8H   SFRSYM    DATA     BYTE      IE
      00000085H   SFRSYM    DATA     BYTE      DPH1
      000000B9H   SFRSYM    DATA     BYTE      EIP1
      000000BAH   SFRSYM    DATA     BYTE      EIP2
      00000082H   SFRSYM    DATA     BYTE      DPL0
      00000084H   SFRSYM    DATA     BYTE      DPL1
      000000C8H.6 SFRSYM    DATA     BIT       I3FR
      000000CFH   SFRSYM    DATA     BYTE      T2IE
      00000096H   SFRSYM    DATA     BYTE      TA
      000000C9H   SFRSYM    DATA     BYTE      T2IF
      000000C8H.2 SFRSYM    DATA     BIT       T2CM
      000000DFH   SFRSYM    DATA     BYTE      ADCON0
      000000DEH   SFRSYM    DATA     BYTE      ADCON1
LX51 LINKER/LOCATER V4.66.97.0                                                        11/10/2024  11:26:37  PAGE 74


      000000E9H   SFRSYM    DATA     BYTE      ADCON2
      000000B8H   SFRSYM    DATA     BYTE      IP
      000000CEH   SFRSYM    DATA     BYTE      CCEN
      000000D0H.7 SFRSYM    DATA     BIT       CY
      000000D2H   SFRSYM    DATA     BYTE      T34MOD
      00000093H   SFRSYM    DATA     BYTE      DPX0
      00000095H   SFRSYM    DATA     BYTE      DPX1
      000000F4H   SFRSYM    DATA     BYTE      I2CMSA
      000000F5H   SFRSYM    DATA     BYTE      I2CMCR
      00000081H   SFRSYM    DATA     BYTE      SP
      000000D0H.2 SFRSYM    DATA     BIT       OV
      000000F2H   SFRSYM    DATA     BYTE      I2CSCR
      000000C8H.7 SFRSYM    DATA     BIT       T2PS
      000000D1H   SFRSYM    DATA     BYTE      ADCMPC
      000000CBH   SFRSYM    DATA     BYTE      RLDH
      000000D5H   SFRSYM    DATA     BYTE      ADCMPH
      000000CAH   SFRSYM    DATA     BYTE      RLDL
      00000080H.0 SFRSYM    DATA     BIT       P00
      00000090H.0 SFRSYM    DATA     BIT       P10
      00000080H.1 SFRSYM    DATA     BIT       P01
      000000F7H   SFRSYM    DATA     BYTE      I2CMTP
      00000099H   SFRSYM    DATA     BYTE      SBUF
      00000087H   SFRSYM    DATA     BYTE      PCON
      000000A0H.0 SFRSYM    DATA     BIT       P20
      00000090H.1 SFRSYM    DATA     BIT       P11
      00000080H.2 SFRSYM    DATA     BIT       P02
      000000F5H   SFRSYM    DATA     BYTE      I2CMSR
      000000B0H.0 SFRSYM    DATA     BIT       P30
      000000A0H.1 SFRSYM    DATA     BIT       P21
      00000090H.2 SFRSYM    DATA     BIT       P12
      00000080H.3 SFRSYM    DATA     BIT       P03
      000000D4H   SFRSYM    DATA     BYTE      ADCMPL
      000000B0H.1 SFRSYM    DATA     BIT       P31
      000000A0H.2 SFRSYM    DATA     BIT       P22
      00000090H.3 SFRSYM    DATA     BIT       P13
      00000080H.4 SFRSYM    DATA     BIT       P04
      000000B0H.2 SFRSYM    DATA     BIT       P32
      000000A0H.3 SFRSYM    DATA     BIT       P23
      00000090H.4 SFRSYM    DATA     BIT       P14
      00000080H.5 SFRSYM    DATA     BIT       P05
      00000089H   SFRSYM    DATA     BYTE      TMOD
      00000088H   SFRSYM    DATA     BYTE      TCON
      000000B0H.3 SFRSYM    DATA     BIT       P33
      000000A0H.4 SFRSYM    DATA     BIT       P24
      00000090H.5 SFRSYM    DATA     BIT       P15
      00000080H.6 SFRSYM    DATA     BIT       P06
      000000B0H.4 SFRSYM    DATA     BIT       P34
      000000A0H.5 SFRSYM    DATA     BIT       P25
      00000090H.6 SFRSYM    DATA     BIT       P16
      00000080H.7 SFRSYM    DATA     BIT       P07
      000000B0H.5 SFRSYM    DATA     BIT       P35
      000000A0H.6 SFRSYM    DATA     BIT       P26
      00000090H.7 SFRSYM    DATA     BIT       P17
      000000F2H   SFRSYM    DATA     BYTE      I2CSSR
      000000B0H.6 SFRSYM    DATA     BIT       P36
      000000A0H.7 SFRSYM    DATA     BIT       P27
      000000ECH   SFRSYM    DATA     BYTE      SPCR
      000000DDH   SFRSYM    DATA     BYTE      ADRESH
      000000B0H.7 SFRSYM    DATA     BIT       P37
      000000EEH   SFRSYM    DATA     BYTE      SPDR
      000000EFH   SFRSYM    DATA     BYTE      SSCR
      000000D3H   SFRSYM    DATA     BYTE      ADDLYL
      000000DCH   SFRSYM    DATA     BYTE      ADRESL
      00000088H.1 SFRSYM    DATA     BIT       IE0
      00000088H.3 SFRSYM    DATA     BIT       IE1
LX51 LINKER/LOCATER V4.66.97.0                                                        11/10/2024  11:26:37  PAGE 75


      0000008FH   SFRSYM    DATA     BYTE      CLKDIV
      000000F0H   SFRSYM    DATA     BYTE      B
      00000091H   SFRSYM    DATA     BYTE      FUNCCR
      0000009AH   SFRSYM    DATA     BYTE      P0TRIS
      000000A1H   SFRSYM    DATA     BYTE      P1TRIS
      000000A2H   SFRSYM    DATA     BYTE      P2TRIS
      000000E0H   SFRSYM    DATA     BYTE      ACC
      000000A3H   SFRSYM    DATA     BYTE      P3TRIS
      000000A8H.4 SFRSYM    DATA     BIT       ES0
      000000A8H.6 SFRSYM    DATA     BIT       ES1
      000000A8H.1 SFRSYM    DATA     BIT       ET0
      000000EDH   SFRSYM    DATA     BYTE      SPSR
      000000A8H.3 SFRSYM    DATA     BIT       ET1
      00000088H.5 SFRSYM    DATA     BIT       TF0
      000000A8H.5 SFRSYM    DATA     BIT       ET2
      00000098H.0 SFRSYM    DATA     BIT       RI0
      00000088H.7 SFRSYM    DATA     BIT       TF1
      0000008CH   SFRSYM    DATA     BYTE      TH0
      000000A8H.0 SFRSYM    DATA     BIT       EX0
      00000098H.1 SFRSYM    DATA     BIT       TI0
      00000088H.0 SFRSYM    DATA     BIT       IT0
      0000008DH   SFRSYM    DATA     BYTE      TH1
      000000A8H.2 SFRSYM    DATA     BIT       EX1
      00000088H.2 SFRSYM    DATA     BIT       IT1
      000000CDH   SFRSYM    DATA     BYTE      TH2
      000000D0H.0 SFRSYM    DATA     BIT       P
      000000DBH   SFRSYM    DATA     BYTE      TH3
      000000E3H   SFRSYM    DATA     BYTE      TH4
      0000008AH   SFRSYM    DATA     BYTE      TL0
      0000008BH   SFRSYM    DATA     BYTE      TL1
      00000098H.2 SFRSYM    DATA     BIT       U0RB8
      000000CCH   SFRSYM    DATA     BYTE      TL2
      000000B8H.4 SFRSYM    DATA     BIT       PS0
      000000DAH   SFRSYM    DATA     BYTE      TL3
      000000BFH   SFRSYM    DATA     BYTE      BUZCON
      000000B8H.6 SFRSYM    DATA     BIT       PS1
      000000B8H.1 SFRSYM    DATA     BIT       PT0
      00000098H.3 SFRSYM    DATA     BIT       U0TB8
      000000E2H   SFRSYM    DATA     BYTE      TL4
      000000D0H.3 SFRSYM    DATA     BIT       RS0
      000000B8H.3 SFRSYM    DATA     BIT       PT1
      000000D0H.4 SFRSYM    DATA     BIT       RS1
      000000B8H.5 SFRSYM    DATA     BIT       PT2
      00000098H.7 SFRSYM    DATA     BIT       U0SM0
      00000088H.4 SFRSYM    DATA     BIT       TR0
      000000BEH   SFRSYM    DATA     BYTE      BUZDIV
      00000098H.6 SFRSYM    DATA     BIT       U0SM1
      00000088H.6 SFRSYM    DATA     BIT       TR1
      000000B8H.0 SFRSYM    DATA     BIT       PX0
      00000098H.5 SFRSYM    DATA     BIT       U0SM2
      000000B8H.2 SFRSYM    DATA     BIT       PX1
      000000BDH   SFRSYM    DATA     BYTE      WUTCRH
      00000099H   SFRSYM    DATA     BYTE      SBUF0
      000000EBH   SFRSYM    DATA     BYTE      SBUF1
      000000BCH   SFRSYM    DATA     BYTE      WUTCRL
      00000098H   SFRSYM    DATA     BYTE      SCON0
      000000EAH   SFRSYM    DATA     BYTE      SCON1
      000000C8H   SFRSYM    DATA     BYTE      T2CON
      00000086H   SFRSYM    DATA     BYTE      DPS
      000000FEH   SFRSYM    DATA     BYTE      MDATA
      000000F6H   SFRSYM    DATA     BYTE      I2CMBUF
      000000F1H   SFRSYM    DATA     BYTE      I2CSADR
      00000098H.4 SFRSYM    DATA     BIT       U0REN
      000000C8H.5 SFRSYM    DATA     BIT       CAPES
      000000FDH   SFRSYM    DATA     BYTE      MADRH
LX51 LINKER/LOCATER V4.66.97.0                                                        11/10/2024  11:26:37  PAGE 76


      0000008EH   SFRSYM    DATA     BYTE      CKCON
      000000F3H   SFRSYM    DATA     BYTE      I2CSBUF
      000000FCH   SFRSYM    DATA     BYTE      MADRL
      000000D0H.5 SFRSYM    DATA     BIT       F0
      000000FBH   SFRSYM    DATA     BYTE      MLOCK
      000000D0H   SFRSYM    DATA     BYTE      PSW
      00000097H   SFRSYM    DATA     BYTE      WDCON
      010037C1H   SYMBOL    CODE     ---       _PresentLIM
      0000001BH   SYMBOL    DATA     INT       TempIntegral
      0000001DH   SYMBOL    DATA     INT       TempProtBuf

      010038A3H   BLOCK     CODE     ---       LVL=0
      ---         BLOCKEND  ---      ---       LVL=0

      010039F8H   BLOCK     CODE     ---       LVL=0
      010039F8H   BLOCK     CODE     NEAR LAB  LVL=1
      00000023H   SYMBOL    DATA     CHAR      i
      ---         BLOCKEND  ---      ---       LVL=1
      010039F8H   LINE      CODE     ---       #28
      010039F8H   LINE      CODE     ---       #29
      010039F8H   LINE      CODE     ---       #30
      010039FBH   LINE      CODE     ---       #33
      010039FBH   LINE      CODE     ---       #34
      01003A02H   LINE      CODE     ---       #35
      01003A05H   LINE      CODE     ---       #36
      01003A09H   LINE      CODE     ---       #37
      01003A0CH   LINE      CODE     ---       #38
      01003A0CH   LINE      CODE     ---       #39
      01003A0CH   LINE      CODE     ---       #40
      01003A10H   LINE      CODE     ---       #41
      01003A10H   LINE      CODE     ---       #42
      01003A13H   LINE      CODE     ---       #43
      01003A16H   LINE      CODE     ---       #44
      01003A18H   LINE      CODE     ---       #45
      01003A18H   LINE      CODE     ---       #46
      ---         BLOCKEND  ---      ---       LVL=0

      010037C1H   BLOCK     CODE     ---       LVL=0
      00000033H   SYMBOL    DATA     FLOAT     IN
      010037C1H   LINE      CODE     ---       #49
      010037C9H   LINE      CODE     ---       #50
      010037C9H   LINE      CODE     ---       #51
      010037D7H   LINE      CODE     ---       #52
      010037E7H   LINE      CODE     ---       #54
      010037EFH   LINE      CODE     ---       #55
      ---         BLOCKEND  ---      ---       LVL=0

      01001C80H   BLOCK     CODE     ---       LVL=0
      00000025H   SYMBOL    DATA     INT       Input
      01001C84H   BLOCK     CODE     NEAR LAB  LVL=1
      00000027H   SYMBOL    DATA     FLOAT     buf
      0000002BH   SYMBOL    DATA     FLOAT     ILED
      0000002FH   SYMBOL    DATA     FLOAT     itgbuf
      ---         BLOCKEND  ---      ---       LVL=1
      01001C80H   LINE      CODE     ---       #58
      01001C84H   LINE      CODE     ---       #59
      01001C84H   LINE      CODE     ---       #62
      01001C88H   LINE      CODE     ---       #64
      01001CA3H   LINE      CODE     ---       #65
      01001CADH   LINE      CODE     ---       #66
      01001CB0H   LINE      CODE     ---       #68
      01001CCBH   LINE      CODE     ---       #69
      01001CF8H   LINE      CODE     ---       #70
      01001CFBH   LINE      CODE     ---       #72
      01001D0DH   LINE      CODE     ---       #73
LX51 LINKER/LOCATER V4.66.97.0                                                        11/10/2024  11:26:37  PAGE 77


      01001D2CH   LINE      CODE     ---       #74
      01001D5DH   LINE      CODE     ---       #75
      01001D68H   LINE      CODE     ---       #76
      ---         BLOCKEND  ---      ---       LVL=0

      0100164DH   BLOCK     CODE     ---       LVL=0
      0100164DH   BLOCK     CODE     NEAR LAB  LVL=1
      00000002H   SYMBOL    DATA     INT       Err
      ---         BLOCKEND  ---      ---       LVL=1
      0100164DH   LINE      CODE     ---       #79
      0100164DH   LINE      CODE     ---       #80
      0100164DH   LINE      CODE     ---       #83
      01001651H   LINE      CODE     ---       #84
      01001651H   LINE      CODE     ---       #85
      01001653H   LINE      CODE     ---       #86
      0100165DH   LINE      CODE     ---       #88
      0100165DH   LINE      CODE     ---       #90
      0100166DH   LINE      CODE     ---       #91
      0100167CH   LINE      CODE     ---       #92
      01001689H   LINE      CODE     ---       #93
      01001691H   LINE      CODE     ---       #95
      0100169CH   LINE      CODE     ---       #96
      0100169CH   LINE      CODE     ---       #97
      0100169EH   LINE      CODE     ---       #98
      010016ABH   LINE      CODE     ---       #100
      010016ABH   LINE      CODE     ---       #101
      010016C1H   LINE      CODE     ---       #102
      010016C1H   LINE      CODE     ---       #103
      010016C2H   LINE      CODE     ---       #104
      010016C6H   LINE      CODE     ---       #105
      010016C6H   LINE      CODE     ---       #107
      010016D8H   LINE      CODE     ---       #108
      010016EAH   LINE      CODE     ---       #109
      010016F7H   LINE      CODE     ---       #111
      010016FAH   LINE      CODE     ---       #112
      010016FAH   LINE      CODE     ---       #113
      010016FFH   LINE      CODE     ---       #114
      01001703H   LINE      CODE     ---       #115
      01001704H   LINE      CODE     ---       #117
      01001718H   LINE      CODE     ---       #118
      01001718H   LINE      CODE     ---       #120
      01001725H   LINE      CODE     ---       #122
      0100177DH   LINE      CODE     ---       #123
      01001790H   LINE      CODE     ---       #124
      0100179EH   LINE      CODE     ---       #126
      010017A8H   LINE      CODE     ---       #127
      010017BBH   LINE      CODE     ---       #128
      010017CEH   LINE      CODE     ---       #129
      010017CEH   LINE      CODE     ---       #130
      ---         BLOCKEND  ---      ---       LVL=0

      ---         MODULE    ---      ---       SLEEP
      00000022H.7 PUBLIC    BIT      BIT       IsWakupFromSleep
      01002C00H   PUBLIC    CODE     ---       SleepMgmt
      000000C8H.0 SFRSYM    DATA     BIT       T2I0
      000000C3H   SFRSYM    DATA     BYTE      CCH1
      00000080H   SFRSYM    DATA     BYTE      P0
      000000C8H.1 SFRSYM    DATA     BIT       T2I1
      000000C5H   SFRSYM    DATA     BYTE      CCH2
      00000090H   SFRSYM    DATA     BYTE      P1
      000000C7H   SFRSYM    DATA     BYTE      CCH3
      000000ACH   SFRSYM    DATA     BYTE      P0EXTIE
      000000A0H   SFRSYM    DATA     BYTE      P2
      000000B4H   SFRSYM    DATA     BYTE      P0EXTIF
      000000B0H   SFRSYM    DATA     BYTE      P3
LX51 LINKER/LOCATER V4.66.97.0                                                        11/10/2024  11:26:37  PAGE 78


      000000ADH   SFRSYM    DATA     BYTE      P1EXTIE
      000000D0H.6 SFRSYM    DATA     BIT       AC
      000000FFH   SFRSYM    DATA     BYTE      MCTRL
      000000C2H   SFRSYM    DATA     BYTE      CCL1
      000000B5H   SFRSYM    DATA     BYTE      P1EXTIF
      000000AEH   SFRSYM    DATA     BYTE      P2EXTIE
      000000C4H   SFRSYM    DATA     BYTE      CCL2
      000000B6H   SFRSYM    DATA     BYTE      P2EXTIF
      000000AFH   SFRSYM    DATA     BYTE      P3EXTIE
      000000A8H.7 SFRSYM    DATA     BIT       EA
      000000C6H   SFRSYM    DATA     BYTE      CCL3
      000000B7H   SFRSYM    DATA     BYTE      P3EXTIF
      000000AAH   SFRSYM    DATA     BYTE      EIE2
      000000B2H   SFRSYM    DATA     BYTE      EIF2
      000000C8H.3 SFRSYM    DATA     BIT       T2R0
      000000C8H.4 SFRSYM    DATA     BIT       T2R1
      00000083H   SFRSYM    DATA     BYTE      DPH0
      000000A8H   SFRSYM    DATA     BYTE      IE
      00000085H   SFRSYM    DATA     BYTE      DPH1
      000000B9H   SFRSYM    DATA     BYTE      EIP1
      000000BAH   SFRSYM    DATA     BYTE      EIP2
      00000082H   SFRSYM    DATA     BYTE      DPL0
      00000084H   SFRSYM    DATA     BYTE      DPL1
      000000C8H.6 SFRSYM    DATA     BIT       I3FR
      000000CFH   SFRSYM    DATA     BYTE      T2IE
      00000096H   SFRSYM    DATA     BYTE      TA
      000000C9H   SFRSYM    DATA     BYTE      T2IF
      000000C8H.2 SFRSYM    DATA     BIT       T2CM
      000000DFH   SFRSYM    DATA     BYTE      ADCON0
      000000DEH   SFRSYM    DATA     BYTE      ADCON1
      000000E9H   SFRSYM    DATA     BYTE      ADCON2
      000000B8H   SFRSYM    DATA     BYTE      IP
      000000CEH   SFRSYM    DATA     BYTE      CCEN
      000000D0H.7 SFRSYM    DATA     BIT       CY
      000000D2H   SFRSYM    DATA     BYTE      T34MOD
      00000093H   SFRSYM    DATA     BYTE      DPX0
      00000095H   SFRSYM    DATA     BYTE      DPX1
      000000F4H   SFRSYM    DATA     BYTE      I2CMSA
      000000F5H   SFRSYM    DATA     BYTE      I2CMCR
      00000081H   SFRSYM    DATA     BYTE      SP
      000000D0H.2 SFRSYM    DATA     BIT       OV
      000000F2H   SFRSYM    DATA     BYTE      I2CSCR
      000000C8H.7 SFRSYM    DATA     BIT       T2PS
      000000D1H   SFRSYM    DATA     BYTE      ADCMPC
      000000CBH   SFRSYM    DATA     BYTE      RLDH
      000000D5H   SFRSYM    DATA     BYTE      ADCMPH
      000000CAH   SFRSYM    DATA     BYTE      RLDL
      00000080H.0 SFRSYM    DATA     BIT       P00
      00000090H.0 SFRSYM    DATA     BIT       P10
      00000080H.1 SFRSYM    DATA     BIT       P01
      000000F7H   SFRSYM    DATA     BYTE      I2CMTP
      00000099H   SFRSYM    DATA     BYTE      SBUF
      00000087H   SFRSYM    DATA     BYTE      PCON
      000000A0H.0 SFRSYM    DATA     BIT       P20
      00000090H.1 SFRSYM    DATA     BIT       P11
      00000080H.2 SFRSYM    DATA     BIT       P02
      000000F5H   SFRSYM    DATA     BYTE      I2CMSR
      000000B0H.0 SFRSYM    DATA     BIT       P30
      000000A0H.1 SFRSYM    DATA     BIT       P21
      00000090H.2 SFRSYM    DATA     BIT       P12
      00000080H.3 SFRSYM    DATA     BIT       P03
      000000D4H   SFRSYM    DATA     BYTE      ADCMPL
      000000B0H.1 SFRSYM    DATA     BIT       P31
      000000A0H.2 SFRSYM    DATA     BIT       P22
      00000090H.3 SFRSYM    DATA     BIT       P13
LX51 LINKER/LOCATER V4.66.97.0                                                        11/10/2024  11:26:37  PAGE 79


      00000080H.4 SFRSYM    DATA     BIT       P04
      000000B0H.2 SFRSYM    DATA     BIT       P32
      000000A0H.3 SFRSYM    DATA     BIT       P23
      00000090H.4 SFRSYM    DATA     BIT       P14
      00000080H.5 SFRSYM    DATA     BIT       P05
      00000089H   SFRSYM    DATA     BYTE      TMOD
      00000088H   SFRSYM    DATA     BYTE      TCON
      000000B0H.3 SFRSYM    DATA     BIT       P33
      000000A0H.4 SFRSYM    DATA     BIT       P24
      00000090H.5 SFRSYM    DATA     BIT       P15
      00000080H.6 SFRSYM    DATA     BIT       P06
      000000B0H.4 SFRSYM    DATA     BIT       P34
      000000A0H.5 SFRSYM    DATA     BIT       P25
      00000090H.6 SFRSYM    DATA     BIT       P16
      00000080H.7 SFRSYM    DATA     BIT       P07
      000000B0H.5 SFRSYM    DATA     BIT       P35
      000000A0H.6 SFRSYM    DATA     BIT       P26
      00000090H.7 SFRSYM    DATA     BIT       P17
      000000F2H   SFRSYM    DATA     BYTE      I2CSSR
      000000B0H.6 SFRSYM    DATA     BIT       P36
      000000A0H.7 SFRSYM    DATA     BIT       P27
      000000ECH   SFRSYM    DATA     BYTE      SPCR
      000000DDH   SFRSYM    DATA     BYTE      ADRESH
      000000B0H.7 SFRSYM    DATA     BIT       P37
      000000EEH   SFRSYM    DATA     BYTE      SPDR
      000000EFH   SFRSYM    DATA     BYTE      SSCR
      000000D3H   SFRSYM    DATA     BYTE      ADDLYL
      000000DCH   SFRSYM    DATA     BYTE      ADRESL
      00000088H.1 SFRSYM    DATA     BIT       IE0
      00000088H.3 SFRSYM    DATA     BIT       IE1
      0000008FH   SFRSYM    DATA     BYTE      CLKDIV
      000000F0H   SFRSYM    DATA     BYTE      B
      00000091H   SFRSYM    DATA     BYTE      FUNCCR
      0000009AH   SFRSYM    DATA     BYTE      P0TRIS
      000000A1H   SFRSYM    DATA     BYTE      P1TRIS
      000000A2H   SFRSYM    DATA     BYTE      P2TRIS
      000000E0H   SFRSYM    DATA     BYTE      ACC
      000000A3H   SFRSYM    DATA     BYTE      P3TRIS
      000000A8H.4 SFRSYM    DATA     BIT       ES0
      000000A8H.6 SFRSYM    DATA     BIT       ES1
      000000A8H.1 SFRSYM    DATA     BIT       ET0
      000000EDH   SFRSYM    DATA     BYTE      SPSR
      000000A8H.3 SFRSYM    DATA     BIT       ET1
      00000088H.5 SFRSYM    DATA     BIT       TF0
      000000A8H.5 SFRSYM    DATA     BIT       ET2
      00000098H.0 SFRSYM    DATA     BIT       RI0
      00000088H.7 SFRSYM    DATA     BIT       TF1
      0000008CH   SFRSYM    DATA     BYTE      TH0
      000000A8H.0 SFRSYM    DATA     BIT       EX0
      00000098H.1 SFRSYM    DATA     BIT       TI0
      00000088H.0 SFRSYM    DATA     BIT       IT0
      0000008DH   SFRSYM    DATA     BYTE      TH1
      000000A8H.2 SFRSYM    DATA     BIT       EX1
      00000088H.2 SFRSYM    DATA     BIT       IT1
      000000CDH   SFRSYM    DATA     BYTE      TH2
      000000D0H.0 SFRSYM    DATA     BIT       P
      000000DBH   SFRSYM    DATA     BYTE      TH3
      000000E3H   SFRSYM    DATA     BYTE      TH4
      0000008AH   SFRSYM    DATA     BYTE      TL0
      0000008BH   SFRSYM    DATA     BYTE      TL1
      00000098H.2 SFRSYM    DATA     BIT       U0RB8
      000000CCH   SFRSYM    DATA     BYTE      TL2
      000000B8H.4 SFRSYM    DATA     BIT       PS0
      000000DAH   SFRSYM    DATA     BYTE      TL3
      000000BFH   SFRSYM    DATA     BYTE      BUZCON
LX51 LINKER/LOCATER V4.66.97.0                                                        11/10/2024  11:26:37  PAGE 80


      000000B8H.6 SFRSYM    DATA     BIT       PS1
      000000B8H.1 SFRSYM    DATA     BIT       PT0
      00000098H.3 SFRSYM    DATA     BIT       U0TB8
      000000E2H   SFRSYM    DATA     BYTE      TL4
      000000D0H.3 SFRSYM    DATA     BIT       RS0
      000000B8H.3 SFRSYM    DATA     BIT       PT1
      000000D0H.4 SFRSYM    DATA     BIT       RS1
      000000B8H.5 SFRSYM    DATA     BIT       PT2
      00000098H.7 SFRSYM    DATA     BIT       U0SM0
      00000088H.4 SFRSYM    DATA     BIT       TR0
      000000BEH   SFRSYM    DATA     BYTE      BUZDIV
      00000098H.6 SFRSYM    DATA     BIT       U0SM1
      00000088H.6 SFRSYM    DATA     BIT       TR1
      000000B8H.0 SFRSYM    DATA     BIT       PX0
      00000098H.5 SFRSYM    DATA     BIT       U0SM2
      000000B8H.2 SFRSYM    DATA     BIT       PX1
      000000BDH   SFRSYM    DATA     BYTE      WUTCRH
      00000099H   SFRSYM    DATA     BYTE      SBUF0
      000000EBH   SFRSYM    DATA     BYTE      SBUF1
      000000BCH   SFRSYM    DATA     BYTE      WUTCRL
      00000098H   SFRSYM    DATA     BYTE      SCON0
      000000EAH   SFRSYM    DATA     BYTE      SCON1
      000000C8H   SFRSYM    DATA     BYTE      T2CON
      00000086H   SFRSYM    DATA     BYTE      DPS
      000000FEH   SFRSYM    DATA     BYTE      MDATA
      000000F6H   SFRSYM    DATA     BYTE      I2CMBUF
      000000F1H   SFRSYM    DATA     BYTE      I2CSADR
      00000098H.4 SFRSYM    DATA     BIT       U0REN
      000000C8H.5 SFRSYM    DATA     BIT       CAPES
      000000FDH   SFRSYM    DATA     BYTE      MADRH
      0000008EH   SFRSYM    DATA     BYTE      CKCON
      000000F3H   SFRSYM    DATA     BYTE      I2CSBUF
      000000FCH   SFRSYM    DATA     BYTE      MADRL
      000000D0H.5 SFRSYM    DATA     BIT       F0
      000000FBH   SFRSYM    DATA     BYTE      MLOCK
      000000D0H   SFRSYM    DATA     BYTE      PSW
      00000097H   SFRSYM    DATA     BYTE      WDCON
      01003877H   SYMBOL    CODE     ---       SystemPeripheralCTRL

      01003877H   BLOCK     CODE     ---       LVL=0
      00000020H.6 SYMBOL    BIT      BIT       IsEnable
      01003877H   LINE      CODE     ---       #20
      01003877H   LINE      CODE     ---       #21
      01003877H   LINE      CODE     ---       #22
      0100387AH   LINE      CODE     ---       #23
      0100387AH   LINE      CODE     ---       #24
      0100387DH   LINE      CODE     ---       #25
      01003880H   LINE      CODE     ---       #26
      01003883H   LINE      CODE     ---       #27
      01003886H   LINE      CODE     ---       #28
      0100388BH   LINE      CODE     ---       #29
      0100388EH   LINE      CODE     ---       #30
      01003891H   LINE      CODE     ---       #32
      01003891H   LINE      CODE     ---       #34
      01003894H   LINE      CODE     ---       #35
      01003899H   LINE      CODE     ---       #36
      0100389CH   LINE      CODE     ---       #37
      0100389FH   LINE      CODE     ---       #38
      010038A2H   LINE      CODE     ---       #39
      ---         BLOCKEND  ---      ---       LVL=0

      01002C00H   BLOCK     CODE     ---       LVL=0
      01002C00H   BLOCK     CODE     NEAR LAB  LVL=1
      00000023H   SYMBOL    DATA     INT       i
      ---         BLOCKEND  ---      ---       LVL=1
LX51 LINKER/LOCATER V4.66.97.0                                                        11/10/2024  11:26:37  PAGE 81


      01002C00H   LINE      CODE     ---       #42
      01002C00H   LINE      CODE     ---       #43
      01002C00H   LINE      CODE     ---       #46
      01002C11H   LINE      CODE     ---       #47
      01002C11H   LINE      CODE     ---       #48
      01002C18H   LINE      CODE     ---       #50
      01002C18H   LINE      CODE     ---       #52
      01002C25H   LINE      CODE     ---       #53
      01002C25H   LINE      CODE     ---       #54
      01002C2EH   LINE      CODE     ---       #56
      01002C2EH   LINE      CODE     ---       #58
      01002C33H   LINE      CODE     ---       #59
      01002C39H   LINE      CODE     ---       #61
      01002C3CH   LINE      CODE     ---       #62
      01002C41H   LINE      CODE     ---       #63
      01002C44H   LINE      CODE     ---       #65
      01002C44H   LINE      CODE     ---       #66
      01002C4BH   LINE      CODE     ---       #67
      01002C4EH   LINE      CODE     ---       #68
      01002C4EH   LINE      CODE     ---       #69
      01002C53H   LINE      CODE     ---       #71
      01002C58H   LINE      CODE     ---       #73
      01002C5DH   LINE      CODE     ---       #74
      01002C5DH   LINE      CODE     ---       #75
      01002C60H   LINE      CODE     ---       #76
      01002C63H   LINE      CODE     ---       #77
      01002C66H   LINE      CODE     ---       #78
      01002C79H   LINE      CODE     ---       #79
      01002C86H   LINE      CODE     ---       #81
      01002C8BH   LINE      CODE     ---       #82
      ---         BLOCKEND  ---      ---       LVL=0

      ---         MODULE    ---      ---       MODECONTROL
      0000005DH   PUBLIC    DATA     ---       CurrentMode
      02000042H   PUBLIC    XDATA    CHAR      SOSTIM
      00000020H.5 PUBLIC    BIT      BIT       IsTacMode
      02000041H   PUBLIC    XDATA    CHAR      ClickHoldReverseGearTIM
      02000040H   PUBLIC    XDATA    CHAR      HoldChangeGearTIM
      00000020H.4 PUBLIC    BIT      BIT       IsSideLEDCfgMode
      0200003FH   PUBLIC    XDATA    BYTE      MoonCfg
      0200003EH   PUBLIC    XDATA    BYTE      ErrCode
      00000059H   PUBLIC    DATA     ---       RampCfg
      0200003DH   PUBLIC    XDATA    BYTE      LastMode
      0200003CH   PUBLIC    XDATA    CHAR      DisplayLockedTIM
      0200003BH   PUBLIC    XDATA    CHAR      MoonCfgTIM
      00000020H.3 PUBLIC    BIT      BIT       IsLocked
      0200003AH   PUBLIC    XDATA    CHAR      BattAlertTimer
      00000020H.2 PUBLIC    BIT      BIT       IsEnableMoonConfigMode
      00000020H.1 PUBLIC    BIT      BIT       IsRampEnabled
      01003D44H   PUBLIC    CONST    ---       ModeSettings
      01000846H   PUBLIC    CODE     ---       ModeSwitchFSM
      01003040H   PUBLIC    CODE     ---       SideKeyLEDBriAdjHandler
      01002E84H   PUBLIC    CODE     ---       HoldSwitchGearCmdHandler
      01003A76H   PUBLIC    CODE     ---       ReturnToOFFState
      01002E10H   PUBLIC    CODE     ---       _SwitchToGear
      0100322AH   PUBLIC    CODE     ---       ModeFSMTIMHandler
      010035BCH   PUBLIC    CODE     ---       MoonConfigHandler
      01003948H   PUBLIC    CODE     ---       ModeFSMInit
      000000C8H.0 SFRSYM    DATA     BIT       T2I0
      000000C3H   SFRSYM    DATA     BYTE      CCH1
      00000080H   SFRSYM    DATA     BYTE      P0
      000000C8H.1 SFRSYM    DATA     BIT       T2I1
      000000C5H   SFRSYM    DATA     BYTE      CCH2
      00000090H   SFRSYM    DATA     BYTE      P1
      000000C7H   SFRSYM    DATA     BYTE      CCH3
LX51 LINKER/LOCATER V4.66.97.0                                                        11/10/2024  11:26:37  PAGE 82


      000000ACH   SFRSYM    DATA     BYTE      P0EXTIE
      000000A0H   SFRSYM    DATA     BYTE      P2
      000000B4H   SFRSYM    DATA     BYTE      P0EXTIF
      000000B0H   SFRSYM    DATA     BYTE      P3
      000000ADH   SFRSYM    DATA     BYTE      P1EXTIE
      000000D0H.6 SFRSYM    DATA     BIT       AC
      000000FFH   SFRSYM    DATA     BYTE      MCTRL
      000000C2H   SFRSYM    DATA     BYTE      CCL1
      000000B5H   SFRSYM    DATA     BYTE      P1EXTIF
      000000AEH   SFRSYM    DATA     BYTE      P2EXTIE
      000000C4H   SFRSYM    DATA     BYTE      CCL2
      000000B6H   SFRSYM    DATA     BYTE      P2EXTIF
      000000AFH   SFRSYM    DATA     BYTE      P3EXTIE
      000000A8H.7 SFRSYM    DATA     BIT       EA
      000000C6H   SFRSYM    DATA     BYTE      CCL3
      000000B7H   SFRSYM    DATA     BYTE      P3EXTIF
      000000AAH   SFRSYM    DATA     BYTE      EIE2
      000000B2H   SFRSYM    DATA     BYTE      EIF2
      000000C8H.3 SFRSYM    DATA     BIT       T2R0
      000000C8H.4 SFRSYM    DATA     BIT       T2R1
      00000083H   SFRSYM    DATA     BYTE      DPH0
      000000A8H   SFRSYM    DATA     BYTE      IE
      00000085H   SFRSYM    DATA     BYTE      DPH1
      000000B9H   SFRSYM    DATA     BYTE      EIP1
      000000BAH   SFRSYM    DATA     BYTE      EIP2
      00000082H   SFRSYM    DATA     BYTE      DPL0
      00000084H   SFRSYM    DATA     BYTE      DPL1
      000000C8H.6 SFRSYM    DATA     BIT       I3FR
      000000CFH   SFRSYM    DATA     BYTE      T2IE
      00000096H   SFRSYM    DATA     BYTE      TA
      000000C9H   SFRSYM    DATA     BYTE      T2IF
      000000C8H.2 SFRSYM    DATA     BIT       T2CM
      000000DFH   SFRSYM    DATA     BYTE      ADCON0
      000000DEH   SFRSYM    DATA     BYTE      ADCON1
      000000E9H   SFRSYM    DATA     BYTE      ADCON2
      000000B8H   SFRSYM    DATA     BYTE      IP
      000000CEH   SFRSYM    DATA     BYTE      CCEN
      000000D0H.7 SFRSYM    DATA     BIT       CY
      000000D2H   SFRSYM    DATA     BYTE      T34MOD
      00000093H   SFRSYM    DATA     BYTE      DPX0
      00000095H   SFRSYM    DATA     BYTE      DPX1
      000000F4H   SFRSYM    DATA     BYTE      I2CMSA
      000000F5H   SFRSYM    DATA     BYTE      I2CMCR
      00000081H   SFRSYM    DATA     BYTE      SP
      000000D0H.2 SFRSYM    DATA     BIT       OV
      000000F2H   SFRSYM    DATA     BYTE      I2CSCR
      000000C8H.7 SFRSYM    DATA     BIT       T2PS
      000000D1H   SFRSYM    DATA     BYTE      ADCMPC
      000000CBH   SFRSYM    DATA     BYTE      RLDH
      000000D5H   SFRSYM    DATA     BYTE      ADCMPH
      000000CAH   SFRSYM    DATA     BYTE      RLDL
      00000080H.0 SFRSYM    DATA     BIT       P00
      00000090H.0 SFRSYM    DATA     BIT       P10
      00000080H.1 SFRSYM    DATA     BIT       P01
      000000F7H   SFRSYM    DATA     BYTE      I2CMTP
      00000099H   SFRSYM    DATA     BYTE      SBUF
      00000087H   SFRSYM    DATA     BYTE      PCON
      000000A0H.0 SFRSYM    DATA     BIT       P20
      00000090H.1 SFRSYM    DATA     BIT       P11
      00000080H.2 SFRSYM    DATA     BIT       P02
      000000F5H   SFRSYM    DATA     BYTE      I2CMSR
      000000B0H.0 SFRSYM    DATA     BIT       P30
      000000A0H.1 SFRSYM    DATA     BIT       P21
      00000090H.2 SFRSYM    DATA     BIT       P12
      00000080H.3 SFRSYM    DATA     BIT       P03
LX51 LINKER/LOCATER V4.66.97.0                                                        11/10/2024  11:26:37  PAGE 83


      000000D4H   SFRSYM    DATA     BYTE      ADCMPL
      000000B0H.1 SFRSYM    DATA     BIT       P31
      000000A0H.2 SFRSYM    DATA     BIT       P22
      00000090H.3 SFRSYM    DATA     BIT       P13
      00000080H.4 SFRSYM    DATA     BIT       P04
      000000B0H.2 SFRSYM    DATA     BIT       P32
      000000A0H.3 SFRSYM    DATA     BIT       P23
      00000090H.4 SFRSYM    DATA     BIT       P14
      00000080H.5 SFRSYM    DATA     BIT       P05
      00000089H   SFRSYM    DATA     BYTE      TMOD
      00000088H   SFRSYM    DATA     BYTE      TCON
      000000B0H.3 SFRSYM    DATA     BIT       P33
      000000A0H.4 SFRSYM    DATA     BIT       P24
      00000090H.5 SFRSYM    DATA     BIT       P15
      00000080H.6 SFRSYM    DATA     BIT       P06
      000000B0H.4 SFRSYM    DATA     BIT       P34
      000000A0H.5 SFRSYM    DATA     BIT       P25
      00000090H.6 SFRSYM    DATA     BIT       P16
      00000080H.7 SFRSYM    DATA     BIT       P07
      000000B0H.5 SFRSYM    DATA     BIT       P35
      000000A0H.6 SFRSYM    DATA     BIT       P26
      00000090H.7 SFRSYM    DATA     BIT       P17
      000000F2H   SFRSYM    DATA     BYTE      I2CSSR
      000000B0H.6 SFRSYM    DATA     BIT       P36
      000000A0H.7 SFRSYM    DATA     BIT       P27
      000000ECH   SFRSYM    DATA     BYTE      SPCR
      000000DDH   SFRSYM    DATA     BYTE      ADRESH
      000000B0H.7 SFRSYM    DATA     BIT       P37
      000000EEH   SFRSYM    DATA     BYTE      SPDR
      000000EFH   SFRSYM    DATA     BYTE      SSCR
      000000D3H   SFRSYM    DATA     BYTE      ADDLYL
      000000DCH   SFRSYM    DATA     BYTE      ADRESL
      00000088H.1 SFRSYM    DATA     BIT       IE0
      00000088H.3 SFRSYM    DATA     BIT       IE1
      0000008FH   SFRSYM    DATA     BYTE      CLKDIV
      000000F0H   SFRSYM    DATA     BYTE      B
      00000091H   SFRSYM    DATA     BYTE      FUNCCR
      0000009AH   SFRSYM    DATA     BYTE      P0TRIS
      000000A1H   SFRSYM    DATA     BYTE      P1TRIS
      000000A2H   SFRSYM    DATA     BYTE      P2TRIS
      000000E0H   SFRSYM    DATA     BYTE      ACC
      000000A3H   SFRSYM    DATA     BYTE      P3TRIS
      000000A8H.4 SFRSYM    DATA     BIT       ES0
      000000A8H.6 SFRSYM    DATA     BIT       ES1
      000000A8H.1 SFRSYM    DATA     BIT       ET0
      000000EDH   SFRSYM    DATA     BYTE      SPSR
      000000A8H.3 SFRSYM    DATA     BIT       ET1
      00000088H.5 SFRSYM    DATA     BIT       TF0
      000000A8H.5 SFRSYM    DATA     BIT       ET2
      00000098H.0 SFRSYM    DATA     BIT       RI0
      00000088H.7 SFRSYM    DATA     BIT       TF1
      0000008CH   SFRSYM    DATA     BYTE      TH0
      000000A8H.0 SFRSYM    DATA     BIT       EX0
      00000098H.1 SFRSYM    DATA     BIT       TI0
      00000088H.0 SFRSYM    DATA     BIT       IT0
      0000008DH   SFRSYM    DATA     BYTE      TH1
      000000A8H.2 SFRSYM    DATA     BIT       EX1
      00000088H.2 SFRSYM    DATA     BIT       IT1
      000000CDH   SFRSYM    DATA     BYTE      TH2
      000000D0H.0 SFRSYM    DATA     BIT       P
      000000DBH   SFRSYM    DATA     BYTE      TH3
      000000E3H   SFRSYM    DATA     BYTE      TH4
      0000008AH   SFRSYM    DATA     BYTE      TL0
      0000008BH   SFRSYM    DATA     BYTE      TL1
      00000098H.2 SFRSYM    DATA     BIT       U0RB8
LX51 LINKER/LOCATER V4.66.97.0                                                        11/10/2024  11:26:37  PAGE 84


      000000CCH   SFRSYM    DATA     BYTE      TL2
      000000B8H.4 SFRSYM    DATA     BIT       PS0
      000000DAH   SFRSYM    DATA     BYTE      TL3
      000000BFH   SFRSYM    DATA     BYTE      BUZCON
      000000B8H.6 SFRSYM    DATA     BIT       PS1
      000000B8H.1 SFRSYM    DATA     BIT       PT0
      00000098H.3 SFRSYM    DATA     BIT       U0TB8
      000000E2H   SFRSYM    DATA     BYTE      TL4
      000000D0H.3 SFRSYM    DATA     BIT       RS0
      000000B8H.3 SFRSYM    DATA     BIT       PT1
      000000D0H.4 SFRSYM    DATA     BIT       RS1
      000000B8H.5 SFRSYM    DATA     BIT       PT2
      00000098H.7 SFRSYM    DATA     BIT       U0SM0
      00000088H.4 SFRSYM    DATA     BIT       TR0
      000000BEH   SFRSYM    DATA     BYTE      BUZDIV
      00000098H.6 SFRSYM    DATA     BIT       U0SM1
      00000088H.6 SFRSYM    DATA     BIT       TR1
      000000B8H.0 SFRSYM    DATA     BIT       PX0
      00000098H.5 SFRSYM    DATA     BIT       U0SM2
      000000B8H.2 SFRSYM    DATA     BIT       PX1
      000000BDH   SFRSYM    DATA     BYTE      WUTCRH
      00000099H   SFRSYM    DATA     BYTE      SBUF0
      000000EBH   SFRSYM    DATA     BYTE      SBUF1
      000000BCH   SFRSYM    DATA     BYTE      WUTCRL
      00000098H   SFRSYM    DATA     BYTE      SCON0
      000000EAH   SFRSYM    DATA     BYTE      SCON1
      000000C8H   SFRSYM    DATA     BYTE      T2CON
      00000086H   SFRSYM    DATA     BYTE      DPS
      000000FEH   SFRSYM    DATA     BYTE      MDATA
      000000F6H   SFRSYM    DATA     BYTE      I2CMBUF
      000000F1H   SFRSYM    DATA     BYTE      I2CSADR
      00000098H.4 SFRSYM    DATA     BIT       U0REN
      000000C8H.5 SFRSYM    DATA     BIT       CAPES
      000000FDH   SFRSYM    DATA     BYTE      MADRH
      0000008EH   SFRSYM    DATA     BYTE      CKCON
      000000F3H   SFRSYM    DATA     BYTE      I2CSBUF
      000000FCH   SFRSYM    DATA     BYTE      MADRL
      000000D0H.5 SFRSYM    DATA     BIT       F0
      000000FBH   SFRSYM    DATA     BYTE      MLOCK
      000000D0H   SFRSYM    DATA     BYTE      PSW
      00000097H   SFRSYM    DATA     BYTE      WDCON
      01003B14H   SYMBOL    CODE     ---       _SideKey1HRevGearHandler
      01002191H   SYMBOL    CODE     ---       SOSFSM
      01002D13H   SYMBOL    CODE     ---       RampAdjHandler
      01003B04H   SYMBOL    CODE     ---       _SideKeySwitchGearHandler
      01003110H   SYMBOL    CODE     ---       _BatteryLowAlertProcess
      02000043H   SYMBOL    XDATA    BYTE      SOSState

      010020D2H   BLOCK     CODE     ---       LVL=0
      ---         BLOCKEND  ---      ---       LVL=0

      01003948H   BLOCK     CODE     ---       LVL=0
      01003948H   LINE      CODE     ---       #138
      01003948H   LINE      CODE     ---       #139
      01003948H   LINE      CODE     ---       #140
      0100394BH   LINE      CODE     ---       #141
      0100394EH   LINE      CODE     ---       #143
      01003953H   LINE      CODE     ---       #144
      01003959H   LINE      CODE     ---       #145
      0100395CH   LINE      CODE     ---       #146
      01003965H   LINE      CODE     ---       #147
      01003967H   LINE      CODE     ---       #148
      01003969H   LINE      CODE     ---       #149
      0100396BH   LINE      CODE     ---       #150
      0100396DH   LINE      CODE     ---       #151
LX51 LINKER/LOCATER V4.66.97.0                                                        11/10/2024  11:26:37  PAGE 85


      ---         BLOCKEND  ---      ---       LVL=0

      01002191H   BLOCK     CODE     ---       LVL=0
      01002191H   BLOCK     CODE     NEAR LAB  LVL=1
      00000025H   SYMBOL    DATA     INT       buf
      ---         BLOCKEND  ---      ---       LVL=1
      01002191H   LINE      CODE     ---       #154
      01002191H   LINE      CODE     ---       #155
      01002191H   LINE      CODE     ---       #157
      010021B9H   LINE      CODE     ---       #158
      010021B9H   LINE      CODE     ---       #160
      010021B9H   LINE      CODE     ---       #161
      010021BFH   LINE      CODE     ---       #162
      010021C3H   LINE      CODE     ---       #163
      010021C6H   LINE      CODE     ---       #165
      010021C6H   LINE      CODE     ---       #166
      010021C6H   LINE      CODE     ---       #167
      010021D0H   LINE      CODE     ---       #168
      010021D5H   LINE      CODE     ---       #169
      010021D5H   LINE      CODE     ---       #170
      010021DBH   LINE      CODE     ---       #171
      010021DFH   LINE      CODE     ---       #172
      010021DFH   LINE      CODE     ---       #173
      010021E1H   LINE      CODE     ---       #175
      010021E1H   LINE      CODE     ---       #176
      010021E6H   LINE      CODE     ---       #177
      010021E9H   LINE      CODE     ---       #178
      010021EDH   LINE      CODE     ---       #179
      010021EFH   LINE      CODE     ---       #181
      010021EFH   LINE      CODE     ---       #182
      010021F2H   LINE      CODE     ---       #183
      010021FEH   LINE      CODE     ---       #184
      01002203H   LINE      CODE     ---       #185
      01002203H   LINE      CODE     ---       #186
      01002209H   LINE      CODE     ---       #187
      0100220DH   LINE      CODE     ---       #188
      0100220DH   LINE      CODE     ---       #189
      0100220FH   LINE      CODE     ---       #191
      0100220FH   LINE      CODE     ---       #192
      01002214H   LINE      CODE     ---       #193
      01002217H   LINE      CODE     ---       #194
      0100221BH   LINE      CODE     ---       #195
      0100221DH   LINE      CODE     ---       #197
      0100221DH   LINE      CODE     ---       #198
      0100221DH   LINE      CODE     ---       #199
      0100222CH   LINE      CODE     ---       #200
      01002231H   LINE      CODE     ---       #201
      01002231H   LINE      CODE     ---       #202
      01002237H   LINE      CODE     ---       #203
      0100223BH   LINE      CODE     ---       #204
      0100223BH   LINE      CODE     ---       #205
      0100223DH   LINE      CODE     ---       #207
      0100223DH   LINE      CODE     ---       #208
      01002242H   LINE      CODE     ---       #209
      01002245H   LINE      CODE     ---       #210
      01002245H   LINE      CODE     ---       #211
      01002245H   LINE      CODE     ---       #213
      01002249H   LINE      CODE     ---       #214
      ---         BLOCKEND  ---      ---       LVL=0

      010035BCH   BLOCK     CODE     ---       LVL=0
      010035BCH   BLOCK     CODE     NEAR LAB  LVL=1
      00000006H   SYMBOL    DATA     INT       buf
      ---         BLOCKEND  ---      ---       LVL=1
      010035BCH   LINE      CODE     ---       #217
LX51 LINKER/LOCATER V4.66.97.0                                                        11/10/2024  11:26:37  PAGE 86


      010035BCH   LINE      CODE     ---       #218
      010035BCH   LINE      CODE     ---       #221
      010035CCH   LINE      CODE     ---       #224
      010035CCH   LINE      CODE     ---       #225
      010035D2H   LINE      CODE     ---       #226
      010035E0H   LINE      CODE     ---       #227
      010035E2H   LINE      CODE     ---       #229
      010035E7H   LINE      CODE     ---       #230
      010035F5H   LINE      CODE     ---       #231
      010035F7H   LINE      CODE     ---       #232
      010035FCH   LINE      CODE     ---       #233
      010035FCH   LINE      CODE     ---       #234
      ---         BLOCKEND  ---      ---       LVL=0

      0100322AH   BLOCK     CODE     ---       LVL=0
      0100322AH   BLOCK     CODE     NEAR LAB  LVL=1
      00000006H   SYMBOL    DATA     CHAR      buf
      ---         BLOCKEND  ---      ---       LVL=1
      0100322AH   LINE      CODE     ---       #237
      0100322AH   LINE      CODE     ---       #238
      0100322AH   LINE      CODE     ---       #241
      01003232H   LINE      CODE     ---       #243
      01003242H   LINE      CODE     ---       #244
      0100324CH   LINE      CODE     ---       #246
      01003257H   LINE      CODE     ---       #248
      0100325FH   LINE      CODE     ---       #249
      0100325FH   LINE      CODE     ---       #250
      01003262H   LINE      CODE     ---       #251
      01003266H   LINE      CODE     ---       #252
      01003278H   LINE      CODE     ---       #253
      0100327EH   LINE      CODE     ---       #254
      0100327FH   LINE      CODE     ---       #255
      01003284H   LINE      CODE     ---       #256
      ---         BLOCKEND  ---      ---       LVL=0

      01002E10H   BLOCK     CODE     ---       LVL=0
      0000002FH   SYMBOL    DATA     BYTE      TargetMode
      01002E12H   BLOCK     CODE     NEAR LAB  LVL=1
      00000030H   SYMBOL    DATA     INT       i
      00000032H   SYMBOL    DATA     BYTE      BeforeMode
      ---         BLOCKEND  ---      ---       LVL=1
      01002E10H   LINE      CODE     ---       #259
      01002E12H   LINE      CODE     ---       #260
      01002E12H   LINE      CODE     ---       #263
      01002E17H   LINE      CODE     ---       #264
      01002E37H   LINE      CODE     ---       #265
      01002E37H   LINE      CODE     ---       #266
      01002E3BH   LINE      CODE     ---       #267
      01002E53H   LINE      CODE     ---       #268
      01002E6DH   LINE      CODE     ---       #269
      01002E71H   LINE      CODE     ---       #270
      01002E7FH   LINE      CODE     ---       #272
      01002E83H   LINE      CODE     ---       #273
      ---         BLOCKEND  ---      ---       LVL=0

      01003A76H   BLOCK     CODE     ---       LVL=0
      01003A76H   LINE      CODE     ---       #276
      01003A76H   LINE      CODE     ---       #277
      01003A76H   LINE      CODE     ---       #278
      01003A7CH   LINE      CODE     ---       #279
      01003A89H   LINE      CODE     ---       #280
      01003A8EH   LINE      CODE     ---       #281
      ---         BLOCKEND  ---      ---       LVL=0

      01003110H   BLOCK     CODE     ---       LVL=0
LX51 LINKER/LOCATER V4.66.97.0                                                        11/10/2024  11:26:37  PAGE 87


      00000007H   SYMBOL    DATA     BYTE      IsNeedToShutOff
      00000025H   SYMBOL    DATA     BYTE      ModeJump
      01003112H   BLOCK     CODE     NEAR LAB  LVL=1
      00000026H   SYMBOL    DATA     CHAR      time
      00000027H   SYMBOL    DATA     CHAR      Thr
      ---         BLOCKEND  ---      ---       LVL=1
      01003110H   LINE      CODE     ---       #284
      01003112H   LINE      CODE     ---       #285
      01003112H   LINE      CODE     ---       #287
      01003118H   LINE      CODE     ---       #288
      01003118H   LINE      CODE     ---       #289
      0100311EH   LINE      CODE     ---       #291
      0100311EH   LINE      CODE     ---       #292
      0100312EH   LINE      CODE     ---       #293
      01003136H   LINE      CODE     ---       #294
      0100313EH   LINE      CODE     ---       #295
      01003141H   LINE      CODE     ---       #297
      01003158H   LINE      CODE     ---       #299
      01003165H   LINE      CODE     ---       #300
      01003165H   LINE      CODE     ---       #301
      0100316BH   LINE      CODE     ---       #302
      01003170H   LINE      CODE     ---       #303
      01003170H   LINE      CODE     ---       #304
      ---         BLOCKEND  ---      ---       LVL=0

      01002E84H   BLOCK     CODE     ---       LVL=0
      01002E84H   BLOCK     CODE     NEAR LAB  LVL=1
      00000023H   SYMBOL    DATA     CHAR      buf
      ---         BLOCKEND  ---      ---       LVL=1
      01002E84H   LINE      CODE     ---       #307
      01002E84H   LINE      CODE     ---       #308
      01002E84H   LINE      CODE     ---       #310
      01002E95H   LINE      CODE     ---       #312
      01002E95H   LINE      CODE     ---       #313
      01002E98H   LINE      CODE     ---       #314
      01002EA4H   LINE      CODE     ---       #315
      01002EA7H   LINE      CODE     ---       #316
      01002EB4H   LINE      CODE     ---       #317
      01002EB7H   LINE      CODE     ---       #318
      01002EBEH   LINE      CODE     ---       #319
      01002EBEH   LINE      CODE     ---       #321
      01002ECEH   LINE      CODE     ---       #323
      01002ECEH   LINE      CODE     ---       #324
      01002ED1H   LINE      CODE     ---       #325
      01002EDDH   LINE      CODE     ---       #326
      01002EE0H   LINE      CODE     ---       #327
      01002EEDH   LINE      CODE     ---       #328
      01002EF0H   LINE      CODE     ---       #329
      01002EF7H   LINE      CODE     ---       #330
      01002EF7H   LINE      CODE     ---       #331
      ---         BLOCKEND  ---      ---       LVL=0

      01003B04H   BLOCK     CODE     ---       LVL=0
      00000003H   SYMBOL    DATA     BYTE      TargetMode
      01003B04H   LINE      CODE     ---       #334
      01003B04H   LINE      CODE     ---       #335
      01003B04H   LINE      CODE     ---       #336
      01003B0CH   LINE      CODE     ---       #337
      01003B10H   LINE      CODE     ---       #338
      01003B13H   LINE      CODE     ---       #339
      ---         BLOCKEND  ---      ---       LVL=0

      01003B14H   BLOCK     CODE     ---       LVL=0
      00000003H   SYMBOL    DATA     BYTE      TargetMode
      01003B14H   LINE      CODE     ---       #342
LX51 LINKER/LOCATER V4.66.97.0                                                        11/10/2024  11:26:37  PAGE 88


      01003B14H   LINE      CODE     ---       #343
      01003B14H   LINE      CODE     ---       #344
      01003B1CH   LINE      CODE     ---       #345
      01003B20H   LINE      CODE     ---       #346
      01003B23H   LINE      CODE     ---       #347
      ---         BLOCKEND  ---      ---       LVL=0

      01003040H   BLOCK     CODE     ---       LVL=0
      01003040H   BLOCK     CODE     NEAR LAB  LVL=1
      02000038H   SYMBOL    XDATA    BYTE      SideLEDRampDir
      02000039H   SYMBOL    XDATA    CHAR      SpeedDIV
      ---         BLOCKEND  ---      ---       LVL=1
      01003040H   LINE      CODE     ---       #349
      01003040H   LINE      CODE     ---       #350
      01003040H   LINE      CODE     ---       #354
      01003048H   LINE      CODE     ---       #356
      0100304EH   LINE      CODE     ---       #357
      01003051H   LINE      CODE     ---       #358
      01003054H   LINE      CODE     ---       #360
      0100305AH   LINE      CODE     ---       #361
      0100305AH   LINE      CODE     ---       #362
      01003079H   LINE      CODE     ---       #363
      0100307FH   LINE      CODE     ---       #364
      01003081H   LINE      CODE     ---       #367
      01003081H   LINE      CODE     ---       #368
      010030A0H   LINE      CODE     ---       #369
      010030A5H   LINE      CODE     ---       #370
      010030A5H   LINE      CODE     ---       #371
      010030A8H   LINE      CODE     ---       #372
      ---         BLOCKEND  ---      ---       LVL=0

      01002D13H   BLOCK     CODE     ---       LVL=0
      01002D13H   BLOCK     CODE     NEAR LAB  LVL=1
      00000020H.0 SYMBOL    BIT      BIT       IsKeyPressed
      ---         BLOCKEND  ---      ---       LVL=1
      01002D13H   LINE      CODE     ---       #375
      01002D13H   LINE      CODE     ---       #376
      01002D13H   LINE      CODE     ---       #379
      01002D24H   LINE      CODE     ---       #380
      01002D3AH   LINE      CODE     ---       #381
      01002D49H   LINE      CODE     ---       #383
      01002D5AH   LINE      CODE     ---       #384
      01002D5AH   LINE      CODE     ---       #385
      01002D5AH   LINE      CODE     ---       #386
      01002D5AH   LINE      CODE     ---       #387
      01002D5DH   LINE      CODE     ---       #388
      01002D5DH   LINE      CODE     ---       #390
      01002D71H   LINE      CODE     ---       #391
      01002D71H   LINE      CODE     ---       #392
      01002D71H   LINE      CODE     ---       #393
      01002D71H   LINE      CODE     ---       #394
      01002D74H   LINE      CODE     ---       #395
      01002D74H   LINE      CODE     ---       #397
      01002D82H   LINE      CODE     ---       #398
      01002D8FH   LINE      CODE     ---       #399
      01002D8FH   LINE      CODE     ---       #400
      01002D91H   LINE      CODE     ---       #401
      01002D96H   LINE      CODE     ---       #402
      01002D96H   LINE      CODE     ---       #403
      ---         BLOCKEND  ---      ---       LVL=0

      01000846H   BLOCK     CODE     ---       LVL=0
      01000846H   BLOCK     CODE     NEAR LAB  LVL=1
      00000020H.6 SYMBOL    BIT      BIT       IsHoldEvent
      00000023H   SYMBOL    DATA     INT       ClickCount
LX51 LINKER/LOCATER V4.66.97.0                                                        11/10/2024  11:26:37  PAGE 89


      02000017H   SYMBOL    XDATA    FLOAT     TargetCurrent
      ---         BLOCKEND  ---      ---       LVL=1
      01000846H   LINE      CODE     ---       #408
      01000846H   LINE      CODE     ---       #409
      01000846H   LINE      CODE     ---       #418
      0100084BH   LINE      CODE     ---       #419
      01000854H   LINE      CODE     ---       #421
      01000869H   LINE      CODE     ---       #423
      0100087DH   LINE      CODE     ---       #424
      010008B0H   LINE      CODE     ---       #425
      010008B0H   LINE      CODE     ---       #427
      010008B0H   LINE      CODE     ---       #428
      010008B2H   LINE      CODE     ---       #429
      010008C3H   LINE      CODE     ---       #430
      010008C5H   LINE      CODE     ---       #431
      010008C6H   LINE      CODE     ---       #432
      010008C9H   LINE      CODE     ---       #434
      010008C9H   LINE      CODE     ---       #435
      010008D1H   LINE      CODE     ---       #436
      010008D1H   LINE      CODE     ---       #437
      010008D3H   LINE      CODE     ---       #438
      010008DAH   LINE      CODE     ---       #439
      010008E0H   LINE      CODE     ---       #440
      010008E2H   LINE      CODE     ---       #441
      010008FAH   LINE      CODE     ---       #443
      01000900H   LINE      CODE     ---       #445
      01000908H   LINE      CODE     ---       #446
      01000908H   LINE      CODE     ---       #447
      0100090FH   LINE      CODE     ---       #448
      01000915H   LINE      CODE     ---       #449
      01000915H   LINE      CODE     ---       #450
      01000918H   LINE      CODE     ---       #451
      01000918H   LINE      CODE     ---       #452
      01000920H   LINE      CODE     ---       #453
      0100092EH   LINE      CODE     ---       #454
      0100093FH   LINE      CODE     ---       #457
      0100093FH   LINE      CODE     ---       #459
      01000947H   LINE      CODE     ---       #460
      01000947H   LINE      CODE     ---       #461
      01000962H   LINE      CODE     ---       #462
      01000971H   LINE      CODE     ---       #463
      01000974H   LINE      CODE     ---       #464
      01000977H   LINE      CODE     ---       #465
      0100097CH   LINE      CODE     ---       #466
      0100097CH   LINE      CODE     ---       #467
      01000982H   LINE      CODE     ---       #468
      0100098EH   LINE      CODE     ---       #469
      0100099AH   LINE      CODE     ---       #470
      0100099DH   LINE      CODE     ---       #471
      010009A5H   LINE      CODE     ---       #472
      010009AFH   LINE      CODE     ---       #473
      010009B7H   LINE      CODE     ---       #474
      010009B7H   LINE      CODE     ---       #475
      010009BEH   LINE      CODE     ---       #476
      010009C7H   LINE      CODE     ---       #477
      010009CCH   LINE      CODE     ---       #478
      010009CFH   LINE      CODE     ---       #479
      010009DAH   LINE      CODE     ---       #480
      010009DDH   LINE      CODE     ---       #482
      010009DDH   LINE      CODE     ---       #483
      010009DFH   LINE      CODE     ---       #484
      010009E4H   LINE      CODE     ---       #485
      010009E4H   LINE      CODE     ---       #486
      010009EFH   LINE      CODE     ---       #487
      010009F1H   LINE      CODE     ---       #488
LX51 LINKER/LOCATER V4.66.97.0                                                        11/10/2024  11:26:37  PAGE 90


      010009F3H   LINE      CODE     ---       #489
      010009F6H   LINE      CODE     ---       #490
      010009F6H   LINE      CODE     ---       #491
      01000A03H   LINE      CODE     ---       #493
      01000A09H   LINE      CODE     ---       #494
      01000A15H   LINE      CODE     ---       #496
      01000A1FH   LINE      CODE     ---       #497
      01000A35H   LINE      CODE     ---       #498
      01000A35H   LINE      CODE     ---       #499
      01000A3FH   LINE      CODE     ---       #500
      01000A45H   LINE      CODE     ---       #501
      01000A4CH   LINE      CODE     ---       #502
      01000A4FH   LINE      CODE     ---       #503
      01000A4FH   LINE      CODE     ---       #504
      01000A52H   LINE      CODE     ---       #506
      01000A52H   LINE      CODE     ---       #507
      01000A54H   LINE      CODE     ---       #508
      01000A64H   LINE      CODE     ---       #509
      01000A71H   LINE      CODE     ---       #510
      01000A7BH   LINE      CODE     ---       #512
      01000A7EH   LINE      CODE     ---       #513
      01000A81H   LINE      CODE     ---       #515
      01000A81H   LINE      CODE     ---       #516
      01000A83H   LINE      CODE     ---       #517
      01000A93H   LINE      CODE     ---       #518
      01000AA0H   LINE      CODE     ---       #519
      01000AAAH   LINE      CODE     ---       #521
      01000AACH   LINE      CODE     ---       #522
      01000AAFH   LINE      CODE     ---       #524
      01000AAFH   LINE      CODE     ---       #525
      01000AB1H   LINE      CODE     ---       #526
      01000AC1H   LINE      CODE     ---       #527
      01000ACEH   LINE      CODE     ---       #528
      01000AD8H   LINE      CODE     ---       #530
      01000ADDH   LINE      CODE     ---       #531
      01000ADFH   LINE      CODE     ---       #532
      01000AE1H   LINE      CODE     ---       #534
      01000AE1H   LINE      CODE     ---       #535
      01000AE3H   LINE      CODE     ---       #536
      01000AF3H   LINE      CODE     ---       #537
      01000B00H   LINE      CODE     ---       #538
      01000B0AH   LINE      CODE     ---       #540
      01000B0FH   LINE      CODE     ---       #541
      01000B11H   LINE      CODE     ---       #542
      01000B13H   LINE      CODE     ---       #544
      01000B13H   LINE      CODE     ---       #545
      01000B15H   LINE      CODE     ---       #546
      01000B25H   LINE      CODE     ---       #547
      01000B32H   LINE      CODE     ---       #548
      01000B3CH   LINE      CODE     ---       #550
      01000B41H   LINE      CODE     ---       #551
      01000B46H   LINE      CODE     ---       #552
      01000B49H   LINE      CODE     ---       #554
      01000B49H   LINE      CODE     ---       #555
      01000B4BH   LINE      CODE     ---       #556
      01000B5BH   LINE      CODE     ---       #557
      01000B6DH   LINE      CODE     ---       #558
      01000B77H   LINE      CODE     ---       #559
      01000B79H   LINE      CODE     ---       #561
      01000B79H   LINE      CODE     ---       #562
      01000B7BH   LINE      CODE     ---       #563
      01000B8BH   LINE      CODE     ---       #564
      01000B98H   LINE      CODE     ---       #565
      01000BA7H   LINE      CODE     ---       #567
      01000BA9H   LINE      CODE     ---       #568
LX51 LINKER/LOCATER V4.66.97.0                                                        11/10/2024  11:26:37  PAGE 91


      01000BABH   LINE      CODE     ---       #570
      01000BABH   LINE      CODE     ---       #571
      01000BB2H   LINE      CODE     ---       #572
      01000BC5H   LINE      CODE     ---       #573
      01000BD2H   LINE      CODE     ---       #574
      01000BE1H   LINE      CODE     ---       #576
      01000BE6H   LINE      CODE     ---       #577
      01000BE6H   LINE      CODE     ---       #578
      01000BE6H   LINE      CODE     ---       #580
      01000BFBH   LINE      CODE     ---       #581
      01000C07H   LINE      CODE     ---       #582
      01000C1CH   LINE      CODE     ---       #583
      01000C29H   LINE      CODE     ---       #584
      01000C39H   LINE      CODE     ---       #585
      01000C57H   LINE      CODE     ---       #586
      01000C57H   LINE      CODE     ---       #587
      01000C63H   LINE      CODE     ---       #588
      01000C6FH   LINE      CODE     ---       #589
      01000C7BH   LINE      CODE     ---       #590
      01000C87H   LINE      CODE     ---       #591
      01000C93H   LINE      CODE     ---       #592
      01000C9EH   LINE      CODE     ---       #593
      01000C9EH   LINE      CODE     ---       #594
      01000CAEH   LINE      CODE     ---       #596
      01000CCAH   LINE      CODE     ---       #597
      ---         BLOCKEND  ---      ---       LVL=0

      ---         MODULE    ---      ---       RAMPCONFIG
      01003DA7H   PUBLIC    CONST    ---       VendorString
      00000020H.7 PUBLIC    BIT      BIT       ?SaveRampConfig?BIT
      01001F47H   PUBLIC    CODE     ---       SaveRampConfig
      01003678H   PUBLIC    CODE     ---       RestoreToMinimumRampCurrent
      01002469H   PUBLIC    CODE     ---       ReadRampConfig
      000000C8H.0 SFRSYM    DATA     BIT       T2I0
      000000C3H   SFRSYM    DATA     BYTE      CCH1
      00000080H   SFRSYM    DATA     BYTE      P0
      000000C8H.1 SFRSYM    DATA     BIT       T2I1
      000000C5H   SFRSYM    DATA     BYTE      CCH2
      00000090H   SFRSYM    DATA     BYTE      P1
      000000C7H   SFRSYM    DATA     BYTE      CCH3
      000000ACH   SFRSYM    DATA     BYTE      P0EXTIE
      000000A0H   SFRSYM    DATA     BYTE      P2
      000000B4H   SFRSYM    DATA     BYTE      P0EXTIF
      000000B0H   SFRSYM    DATA     BYTE      P3
      000000ADH   SFRSYM    DATA     BYTE      P1EXTIE
      000000D0H.6 SFRSYM    DATA     BIT       AC
      000000FFH   SFRSYM    DATA     BYTE      MCTRL
      000000C2H   SFRSYM    DATA     BYTE      CCL1
      000000B5H   SFRSYM    DATA     BYTE      P1EXTIF
      000000AEH   SFRSYM    DATA     BYTE      P2EXTIE
      000000C4H   SFRSYM    DATA     BYTE      CCL2
      000000B6H   SFRSYM    DATA     BYTE      P2EXTIF
      000000AFH   SFRSYM    DATA     BYTE      P3EXTIE
      000000A8H.7 SFRSYM    DATA     BIT       EA
      000000C6H   SFRSYM    DATA     BYTE      CCL3
      000000B7H   SFRSYM    DATA     BYTE      P3EXTIF
      000000AAH   SFRSYM    DATA     BYTE      EIE2
      000000B2H   SFRSYM    DATA     BYTE      EIF2
      000000C8H.3 SFRSYM    DATA     BIT       T2R0
      000000C8H.4 SFRSYM    DATA     BIT       T2R1
      00000083H   SFRSYM    DATA     BYTE      DPH0
      000000A8H   SFRSYM    DATA     BYTE      IE
      00000085H   SFRSYM    DATA     BYTE      DPH1
      000000B9H   SFRSYM    DATA     BYTE      EIP1
      000000BAH   SFRSYM    DATA     BYTE      EIP2
LX51 LINKER/LOCATER V4.66.97.0                                                        11/10/2024  11:26:37  PAGE 92


      00000082H   SFRSYM    DATA     BYTE      DPL0
      00000084H   SFRSYM    DATA     BYTE      DPL1
      000000C8H.6 SFRSYM    DATA     BIT       I3FR
      000000CFH   SFRSYM    DATA     BYTE      T2IE
      00000096H   SFRSYM    DATA     BYTE      TA
      000000C9H   SFRSYM    DATA     BYTE      T2IF
      000000C8H.2 SFRSYM    DATA     BIT       T2CM
      000000DFH   SFRSYM    DATA     BYTE      ADCON0
      000000DEH   SFRSYM    DATA     BYTE      ADCON1
      000000E9H   SFRSYM    DATA     BYTE      ADCON2
      000000B8H   SFRSYM    DATA     BYTE      IP
      000000CEH   SFRSYM    DATA     BYTE      CCEN
      000000D0H.7 SFRSYM    DATA     BIT       CY
      000000D2H   SFRSYM    DATA     BYTE      T34MOD
      00000093H   SFRSYM    DATA     BYTE      DPX0
      00000095H   SFRSYM    DATA     BYTE      DPX1
      000000F4H   SFRSYM    DATA     BYTE      I2CMSA
      000000F5H   SFRSYM    DATA     BYTE      I2CMCR
      00000081H   SFRSYM    DATA     BYTE      SP
      000000D0H.2 SFRSYM    DATA     BIT       OV
      000000F2H   SFRSYM    DATA     BYTE      I2CSCR
      000000C8H.7 SFRSYM    DATA     BIT       T2PS
      000000D1H   SFRSYM    DATA     BYTE      ADCMPC
      000000CBH   SFRSYM    DATA     BYTE      RLDH
      000000D5H   SFRSYM    DATA     BYTE      ADCMPH
      000000CAH   SFRSYM    DATA     BYTE      RLDL
      00000080H.0 SFRSYM    DATA     BIT       P00
      00000090H.0 SFRSYM    DATA     BIT       P10
      00000080H.1 SFRSYM    DATA     BIT       P01
      000000F7H   SFRSYM    DATA     BYTE      I2CMTP
      00000099H   SFRSYM    DATA     BYTE      SBUF
      00000087H   SFRSYM    DATA     BYTE      PCON
      000000A0H.0 SFRSYM    DATA     BIT       P20
      00000090H.1 SFRSYM    DATA     BIT       P11
      00000080H.2 SFRSYM    DATA     BIT       P02
      000000F5H   SFRSYM    DATA     BYTE      I2CMSR
      000000B0H.0 SFRSYM    DATA     BIT       P30
      000000A0H.1 SFRSYM    DATA     BIT       P21
      00000090H.2 SFRSYM    DATA     BIT       P12
      00000080H.3 SFRSYM    DATA     BIT       P03
      000000D4H   SFRSYM    DATA     BYTE      ADCMPL
      000000B0H.1 SFRSYM    DATA     BIT       P31
      000000A0H.2 SFRSYM    DATA     BIT       P22
      00000090H.3 SFRSYM    DATA     BIT       P13
      00000080H.4 SFRSYM    DATA     BIT       P04
      000000B0H.2 SFRSYM    DATA     BIT       P32
      000000A0H.3 SFRSYM    DATA     BIT       P23
      00000090H.4 SFRSYM    DATA     BIT       P14
      00000080H.5 SFRSYM    DATA     BIT       P05
      00000089H   SFRSYM    DATA     BYTE      TMOD
      00000088H   SFRSYM    DATA     BYTE      TCON
      000000B0H.3 SFRSYM    DATA     BIT       P33
      000000A0H.4 SFRSYM    DATA     BIT       P24
      00000090H.5 SFRSYM    DATA     BIT       P15
      00000080H.6 SFRSYM    DATA     BIT       P06
      000000B0H.4 SFRSYM    DATA     BIT       P34
      000000A0H.5 SFRSYM    DATA     BIT       P25
      00000090H.6 SFRSYM    DATA     BIT       P16
      00000080H.7 SFRSYM    DATA     BIT       P07
      000000B0H.5 SFRSYM    DATA     BIT       P35
      000000A0H.6 SFRSYM    DATA     BIT       P26
      00000090H.7 SFRSYM    DATA     BIT       P17
      000000F2H   SFRSYM    DATA     BYTE      I2CSSR
      000000B0H.6 SFRSYM    DATA     BIT       P36
      000000A0H.7 SFRSYM    DATA     BIT       P27
LX51 LINKER/LOCATER V4.66.97.0                                                        11/10/2024  11:26:37  PAGE 93


      000000ECH   SFRSYM    DATA     BYTE      SPCR
      000000DDH   SFRSYM    DATA     BYTE      ADRESH
      000000B0H.7 SFRSYM    DATA     BIT       P37
      000000EEH   SFRSYM    DATA     BYTE      SPDR
      000000EFH   SFRSYM    DATA     BYTE      SSCR
      000000D3H   SFRSYM    DATA     BYTE      ADDLYL
      000000DCH   SFRSYM    DATA     BYTE      ADRESL
      00000088H.1 SFRSYM    DATA     BIT       IE0
      00000088H.3 SFRSYM    DATA     BIT       IE1
      0000008FH   SFRSYM    DATA     BYTE      CLKDIV
      000000F0H   SFRSYM    DATA     BYTE      B
      00000091H   SFRSYM    DATA     BYTE      FUNCCR
      0000009AH   SFRSYM    DATA     BYTE      P0TRIS
      000000A1H   SFRSYM    DATA     BYTE      P1TRIS
      000000A2H   SFRSYM    DATA     BYTE      P2TRIS
      000000E0H   SFRSYM    DATA     BYTE      ACC
      000000A3H   SFRSYM    DATA     BYTE      P3TRIS
      000000A8H.4 SFRSYM    DATA     BIT       ES0
      000000A8H.6 SFRSYM    DATA     BIT       ES1
      000000A8H.1 SFRSYM    DATA     BIT       ET0
      000000EDH   SFRSYM    DATA     BYTE      SPSR
      000000A8H.3 SFRSYM    DATA     BIT       ET1
      00000088H.5 SFRSYM    DATA     BIT       TF0
      000000A8H.5 SFRSYM    DATA     BIT       ET2
      00000098H.0 SFRSYM    DATA     BIT       RI0
      00000088H.7 SFRSYM    DATA     BIT       TF1
      0000008CH   SFRSYM    DATA     BYTE      TH0
      000000A8H.0 SFRSYM    DATA     BIT       EX0
      00000098H.1 SFRSYM    DATA     BIT       TI0
      00000088H.0 SFRSYM    DATA     BIT       IT0
      0000008DH   SFRSYM    DATA     BYTE      TH1
      000000A8H.2 SFRSYM    DATA     BIT       EX1
      00000088H.2 SFRSYM    DATA     BIT       IT1
      000000CDH   SFRSYM    DATA     BYTE      TH2
      000000D0H.0 SFRSYM    DATA     BIT       P
      000000DBH   SFRSYM    DATA     BYTE      TH3
      000000E3H   SFRSYM    DATA     BYTE      TH4
      0000008AH   SFRSYM    DATA     BYTE      TL0
      0000008BH   SFRSYM    DATA     BYTE      TL1
      00000098H.2 SFRSYM    DATA     BIT       U0RB8
      000000CCH   SFRSYM    DATA     BYTE      TL2
      000000B8H.4 SFRSYM    DATA     BIT       PS0
      000000DAH   SFRSYM    DATA     BYTE      TL3
      000000BFH   SFRSYM    DATA     BYTE      BUZCON
      000000B8H.6 SFRSYM    DATA     BIT       PS1
      000000B8H.1 SFRSYM    DATA     BIT       PT0
      00000098H.3 SFRSYM    DATA     BIT       U0TB8
      000000E2H   SFRSYM    DATA     BYTE      TL4
      000000D0H.3 SFRSYM    DATA     BIT       RS0
      000000B8H.3 SFRSYM    DATA     BIT       PT1
      000000D0H.4 SFRSYM    DATA     BIT       RS1
      000000B8H.5 SFRSYM    DATA     BIT       PT2
      00000098H.7 SFRSYM    DATA     BIT       U0SM0
      00000088H.4 SFRSYM    DATA     BIT       TR0
      000000BEH   SFRSYM    DATA     BYTE      BUZDIV
      00000098H.6 SFRSYM    DATA     BIT       U0SM1
      00000088H.6 SFRSYM    DATA     BIT       TR1
      000000B8H.0 SFRSYM    DATA     BIT       PX0
      00000098H.5 SFRSYM    DATA     BIT       U0SM2
      000000B8H.2 SFRSYM    DATA     BIT       PX1
      000000BDH   SFRSYM    DATA     BYTE      WUTCRH
      00000099H   SFRSYM    DATA     BYTE      SBUF0
      000000EBH   SFRSYM    DATA     BYTE      SBUF1
      000000BCH   SFRSYM    DATA     BYTE      WUTCRL
      00000098H   SFRSYM    DATA     BYTE      SCON0
LX51 LINKER/LOCATER V4.66.97.0                                                        11/10/2024  11:26:37  PAGE 94


      000000EAH   SFRSYM    DATA     BYTE      SCON1
      000000C8H   SFRSYM    DATA     BYTE      T2CON
      00000086H   SFRSYM    DATA     BYTE      DPS
      000000FEH   SFRSYM    DATA     BYTE      MDATA
      000000F6H   SFRSYM    DATA     BYTE      I2CMBUF
      000000F1H   SFRSYM    DATA     BYTE      I2CSADR
      00000098H.4 SFRSYM    DATA     BIT       U0REN
      000000C8H.5 SFRSYM    DATA     BIT       CAPES
      000000FDH   SFRSYM    DATA     BYTE      MADRH
      0000008EH   SFRSYM    DATA     BYTE      CKCON
      000000F3H   SFRSYM    DATA     BYTE      I2CSBUF
      000000FCH   SFRSYM    DATA     BYTE      MADRL
      000000D0H.5 SFRSYM    DATA     BIT       F0
      000000FBH   SFRSYM    DATA     BYTE      MLOCK
      000000D0H   SFRSYM    DATA     BYTE      PSW
      00000097H   SFRSYM    DATA     BYTE      WDCON
      01001D7DH   SYMBOL    CODE     ---       _PEC8Check

      010037F0H   BLOCK     CODE     ---       LVL=0
      ---         BLOCKEND  ---      ---       LVL=0

      01001D7DH   BLOCK     CODE     ---       LVL=0
      0000003CH   SYMBOL    DATA     ---       DIN
      0000003FH   SYMBOL    DATA     LONG      Len
      01001D8BH   BLOCK     CODE     NEAR LAB  LVL=1
      00000043H   SYMBOL    DATA     BYTE      crcbuf
      00000044H   SYMBOL    DATA     LONG      i
      00000048H   SYMBOL    DATA     LONG      ptr
      ---         BLOCKEND  ---      ---       LVL=1
      01001D7DH   LINE      CODE     ---       #11
      01001D8BH   LINE      CODE     ---       #12
      01001D8BH   LINE      CODE     ---       #13
      01001D8EH   LINE      CODE     ---       #14
      01001D96H   LINE      CODE     ---       #15
      01001DACH   LINE      CODE     ---       #16
      01001DACH   LINE      CODE     ---       #18
      01001DBDH   LINE      CODE     ---       #20
      01001DCFH   LINE      CODE     ---       #21
      01001DCFH   LINE      CODE     ---       #22
      01001DDCH   LINE      CODE     ---       #23
      01001DE2H   LINE      CODE     ---       #24
      01001DFCH   LINE      CODE     ---       #26
      01001E15H   LINE      CODE     ---       #27
      01001E2DH   LINE      CODE     ---       #28
      01001E30H   LINE      CODE     ---       #30
      01001E65H   LINE      CODE     ---       #32
      01001E67H   LINE      CODE     ---       #33
      ---         BLOCKEND  ---      ---       LVL=0

      01002469H   BLOCK     CODE     ---       LVL=0
      01002469H   BLOCK     CODE     NEAR LAB  LVL=1
      00000023H   SYMBOL    DATA     INT       i
      00000025H   SYMBOL    DATA     ---       ROMData
      ---         BLOCKEND  ---      ---       LVL=1
      01002469H   LINE      CODE     ---       #36
      01002469H   LINE      CODE     ---       #37
      01002469H   LINE      CODE     ---       #42
      0100246BH   LINE      CODE     ---       #43
      0100246CH   LINE      CODE     ---       #44
      0100246FH   LINE      CODE     ---       #46
      01002474H   LINE      CODE     ---       #47
      01002474H   LINE      CODE     ---       #48
      01002477H   LINE      CODE     ---       #49
      0100247CH   LINE      CODE     ---       #50
      0100247DH   LINE      CODE     ---       #51
LX51 LINKER/LOCATER V4.66.97.0                                                        11/10/2024  11:26:37  PAGE 95


      01002480H   LINE      CODE     ---       #52
      01002481H   LINE      CODE     ---       #53
      01002482H   LINE      CODE     ---       #54
      01002483H   LINE      CODE     ---       #55
      01002484H   LINE      CODE     ---       #56
      01002485H   LINE      CODE     ---       #57
      01002486H   LINE      CODE     ---       #58
      0100248BH   LINE      CODE     ---       #60
      01002492H   LINE      CODE     ---       #61
      010024A0H   LINE      CODE     ---       #63
      010024A3H   LINE      CODE     ---       #64
      010024A4H   LINE      CODE     ---       #65
      010024A6H   LINE      CODE     ---       #67
      010024B4H   LINE      CODE     ---       #68
      010024B4H   LINE      CODE     ---       #70
      010024BEH   LINE      CODE     ---       #71
      010024C4H   LINE      CODE     ---       #72
      010024CAH   LINE      CODE     ---       #73
      010024D2H   LINE      CODE     ---       #74
      010024D3H   LINE      CODE     ---       #77
      010024D3H   LINE      CODE     ---       #78
      010024D8H   LINE      CODE     ---       #79
      010024DEH   LINE      CODE     ---       #80
      010024E8H   LINE      CODE     ---       #81
      010024F7H   LINE      CODE     ---       #82
      01002512H   LINE      CODE     ---       #83
      01002514H   LINE      CODE     ---       #84
      01002519H   LINE      CODE     ---       #85
      01002519H   LINE      CODE     ---       #86
      ---         BLOCKEND  ---      ---       LVL=0

      01003678H   BLOCK     CODE     ---       LVL=0
      01003678H   BLOCK     CODE     NEAR LAB  LVL=1
      00000006H   SYMBOL    DATA     INT       i
      ---         BLOCKEND  ---      ---       LVL=1
      01003678H   LINE      CODE     ---       #89
      01003678H   LINE      CODE     ---       #90
      01003678H   LINE      CODE     ---       #93
      0100367EH   LINE      CODE     ---       #94
      01003693H   LINE      CODE     ---       #95
      010036B3H   LINE      CODE     ---       #96
      ---         BLOCKEND  ---      ---       LVL=0

      01001F47H   BLOCK     CODE     ---       LVL=0
      00000020H.7 SYMBOL    BIT      BIT       IsForceSave
      01001F47H   BLOCK     CODE     NEAR LAB  LVL=1
      0000002CH   SYMBOL    DATA     INT       i
      0000002EH   SYMBOL    DATA     ---       ROMData
      00000035H   SYMBOL    DATA     ---       SavedData
      ---         BLOCKEND  ---      ---       LVL=1
      01001F47H   LINE      CODE     ---       #99
      01001F47H   LINE      CODE     ---       #100
      01001F47H   LINE      CODE     ---       #104
      01001F49H   LINE      CODE     ---       #105
      01001F4AH   LINE      CODE     ---       #106
      01001F4DH   LINE      CODE     ---       #108
      01001F55H   LINE      CODE     ---       #109
      01001F55H   LINE      CODE     ---       #110
      01001F59H   LINE      CODE     ---       #111
      01001F5FH   LINE      CODE     ---       #112
      01001F60H   LINE      CODE     ---       #113
      01001F63H   LINE      CODE     ---       #114
      01001F64H   LINE      CODE     ---       #115
      01001F65H   LINE      CODE     ---       #116
      01001F66H   LINE      CODE     ---       #117
LX51 LINKER/LOCATER V4.66.97.0                                                        11/10/2024  11:26:37  PAGE 96


      01001F67H   LINE      CODE     ---       #118
      01001F68H   LINE      CODE     ---       #119
      01001F69H   LINE      CODE     ---       #120
      01001F6EH   LINE      CODE     ---       #122
      01001F75H   LINE      CODE     ---       #123
      01001F83H   LINE      CODE     ---       #125
      01001F8DH   LINE      CODE     ---       #126
      01001F93H   LINE      CODE     ---       #127
      01001F99H   LINE      CODE     ---       #128
      01001FA2H   LINE      CODE     ---       #129
      01001FAEH   LINE      CODE     ---       #131
      01001FB6H   LINE      CODE     ---       #132
      01001FB6H   LINE      CODE     ---       #133
      01001FB6H   LINE      CODE     ---       #134
      01001FB6H   LINE      CODE     ---       #135
      01001FB8H   LINE      CODE     ---       #137
      01001FB8H   LINE      CODE     ---       #139
      01001FBBH   LINE      CODE     ---       #140
      01001FBDH   LINE      CODE     ---       #141
      01001FBEH   LINE      CODE     ---       #142
      01001FC1H   LINE      CODE     ---       #143
      01001FC2H   LINE      CODE     ---       #144
      01001FC3H   LINE      CODE     ---       #145
      01001FC4H   LINE      CODE     ---       #146
      01001FC5H   LINE      CODE     ---       #147
      01001FC6H   LINE      CODE     ---       #148
      01001FC7H   LINE      CODE     ---       #149
      01001FD2H   LINE      CODE     ---       #151
      01001FD7H   LINE      CODE     ---       #152
      01001FD7H   LINE      CODE     ---       #153
      01001FE0H   LINE      CODE     ---       #155
      01001FE3H   LINE      CODE     ---       #156
      01001FE9H   LINE      CODE     ---       #157
      01001FEAH   LINE      CODE     ---       #158
      01001FEDH   LINE      CODE     ---       #159
      01001FEEH   LINE      CODE     ---       #160
      01001FEFH   LINE      CODE     ---       #161
      01001FF0H   LINE      CODE     ---       #162
      01001FF1H   LINE      CODE     ---       #163
      01001FF2H   LINE      CODE     ---       #164
      01001FF3H   LINE      CODE     ---       #165
      01001FFEH   LINE      CODE     ---       #166
      0100200CH   LINE      CODE     ---       #168
      0100200FH   LINE      CODE     ---       #169
      01002010H   LINE      CODE     ---       #170
      01002012H   LINE      CODE     ---       #171
      ---         BLOCKEND  ---      ---       LVL=0

      ---         MODULE    ---      ---       SELFTEST
      0200004AH   PUBLIC    XDATA    CHAR      InputDetectTIM
      02000046H   PUBLIC    XDATA    FLOAT     VBattBeforeTurbo
      01002300H   PUBLIC    CODE     ---       OutputFaultDetect
      01003285H   PUBLIC    CODE     ---       InputFaultDetect
      01002D97H   PUBLIC    CODE     ---       DisplayErrorIDHandler
      0100357AH   PUBLIC    CODE     ---       DisplayErrorTIMHandler
      02000044H   SYMBOL    XDATA    INT       ErrDisplayIndex
      0200004BH   SYMBOL    XDATA    CHAR      ShortDetectTIM

      010038CEH   BLOCK     CODE     ---       LVL=0
      ---         BLOCKEND  ---      ---       LVL=0

      0100357AH   BLOCK     CODE     ---       LVL=0
      0100357AH   LINE      CODE     ---       #14
      0100357AH   LINE      CODE     ---       #15
      0100357AH   LINE      CODE     ---       #17
LX51 LINKER/LOCATER V4.66.97.0                                                        11/10/2024  11:26:37  PAGE 97


      01003588H   LINE      CODE     ---       #19
      01003588H   LINE      CODE     ---       #20
      01003596H   LINE      CODE     ---       #21
      010035BBH   LINE      CODE     ---       #22
      010035BBH   LINE      CODE     ---       #23
      ---         BLOCKEND  ---      ---       LVL=0

      01002D97H   BLOCK     CODE     ---       LVL=0
      01002D97H   BLOCK     CODE     NEAR LAB  LVL=1
      00000006H   SYMBOL    DATA     INT       buf
      ---         BLOCKEND  ---      ---       LVL=1
      01002D97H   LINE      CODE     ---       #26
      01002D97H   LINE      CODE     ---       #27
      01002D97H   LINE      CODE     ---       #30
      01002DB7H   LINE      CODE     ---       #31
      01002DB7H   LINE      CODE     ---       #32
      01002DBBH   LINE      CODE     ---       #33
      01002DBFH   LINE      CODE     ---       #34
      01002DC1H   LINE      CODE     ---       #35
      01002DC1H   LINE      CODE     ---       #36
      01002DC3H   LINE      CODE     ---       #37
      01002DECH   LINE      CODE     ---       #38
      01002DECH   LINE      CODE     ---       #39
      01002DFBH   LINE      CODE     ---       #40
      01002E0AH   LINE      CODE     ---       #41
      01002E0AH   LINE      CODE     ---       #42
      01002E0CH   LINE      CODE     ---       #43
      01002E0FH   LINE      CODE     ---       #44
      ---         BLOCKEND  ---      ---       LVL=0

      01003285H   BLOCK     CODE     ---       LVL=0
      01003285H   LINE      CODE     ---       #47
      01003285H   LINE      CODE     ---       #48
      01003285H   LINE      CODE     ---       #49
      01003292H   LINE      CODE     ---       #50
      010032A6H   LINE      CODE     ---       #51
      010032A6H   LINE      CODE     ---       #52
      010032A9H   LINE      CODE     ---       #53
      010032D1H   LINE      CODE     ---       #54
      010032D3H   LINE      CODE     ---       #55
      010032DFH   LINE      CODE     ---       #56
      010032DFH   LINE      CODE     ---       #57
      ---         BLOCKEND  ---      ---       LVL=0

      01002300H   BLOCK     CODE     ---       LVL=0
      01002300H   BLOCK     CODE     NEAR LAB  LVL=1
      00000023H   SYMBOL    DATA     CHAR      buf
      ---         BLOCKEND  ---      ---       LVL=1
      01002300H   LINE      CODE     ---       #60
      01002300H   LINE      CODE     ---       #61
      01002300H   LINE      CODE     ---       #63
      0100230AH   LINE      CODE     ---       #64
      0100231EH   LINE      CODE     ---       #65
      0100231EH   LINE      CODE     ---       #66
      01002326H   LINE      CODE     ---       #67
      01002330H   LINE      CODE     ---       #68
      01002330H   LINE      CODE     ---       #69
      01002340H   LINE      CODE     ---       #70
      01002347H   LINE      CODE     ---       #71
      01002349H   LINE      CODE     ---       #72
      01002356H   LINE      CODE     ---       #73
      01002356H   LINE      CODE     ---       #74
      01002365H   LINE      CODE     ---       #75
      0100236CH   LINE      CODE     ---       #76
      0100236EH   LINE      CODE     ---       #77
LX51 LINKER/LOCATER V4.66.97.0                                                        11/10/2024  11:26:37  PAGE 98


      0100238AH   LINE      CODE     ---       #79
      01002391H   LINE      CODE     ---       #80
      01002394H   LINE      CODE     ---       #82
      01002399H   LINE      CODE     ---       #83
      010023A8H   LINE      CODE     ---       #84
      010023B4H   LINE      CODE     ---       #85
      010023B4H   LINE      CODE     ---       #86
      ---         BLOCKEND  ---      ---       LVL=0

      ---         MODULE    ---      ---       ?C?FPADD
      01000055H   PUBLIC    CODE     ---       ?C?FPADD
      01000051H   PUBLIC    CODE     ---       ?C?FPSUB

      ---         MODULE    ---      ---       ?C?FPMUL
      01000146H   PUBLIC    CODE     ---       ?C?FPMUL

      ---         MODULE    ---      ---       ?C?FPDIV
      0100024FH   PUBLIC    CODE     ---       ?C?FPDIV

      ---         MODULE    ---      ---       ?C?FPCMP
      010002EEH   PUBLIC    CODE     ---       ?C?FPCMP
      010002ECH   PUBLIC    CODE     ---       ?C?FPCMP3

      ---         MODULE    ---      ---       ?C?FCAST
      0100036FH   PUBLIC    CODE     ---       ?C?FCASTC
      0100036AH   PUBLIC    CODE     ---       ?C?FCASTI
      01000365H   PUBLIC    CODE     ---       ?C?FCASTL

      ---         MODULE    ---      ---       ?C?CASTF
      010003A3H   PUBLIC    CODE     ---       ?C?CASTF

      ---         MODULE    ---      ---       ?C?FPGETOPN
      010003DAH   PUBLIC    CODE     ---       ?C?FPGETOPN2
      0100040FH   PUBLIC    CODE     ---       ?C?FPNANRESULT
      01000419H   PUBLIC    CODE     ---       ?C?FPOVERFLOW
      010003F1H   PUBLIC    CODE     ---       ?C?FPRESULT
      01000405H   PUBLIC    CODE     ---       ?C?FPRESULT2
      01000416H   PUBLIC    CODE     ---       ?C?FPUNDERFLOW

      ---         MODULE    ---      ---       ?C_INIT
      01002A9BH   PUBLIC    CODE     ---       ?C_START

      ---         MODULE    ---      ---       ?C?COPY
      010004F4H   PUBLIC    CODE     ---       ?C?COPY

      ---         MODULE    ---      ---       ?C?SCDIV
      0100051AH   PUBLIC    CODE     ---       ?C?SCDIV

      ---         MODULE    ---      ---       ?C?CLDPTR
      0100053CH   PUBLIC    CODE     ---       ?C?CLDPTR

      ---         MODULE    ---      ---       ?C?CLDOPTR
      01000555H   PUBLIC    CODE     ---       ?C?CLDOPTR

      ---         MODULE    ---      ---       ?C?CSTPTR
      01000582H   PUBLIC    CODE     ---       ?C?CSTPTR

      ---         MODULE    ---      ---       ?C?IMUL
      01000594H   PUBLIC    CODE     ---       ?C?IMUL

      ---         MODULE    ---      ---       ?C?SIDIV
      010005A6H   PUBLIC    CODE     ---       ?C?SIDIV

      ---         MODULE    ---      ---       ?C?ILDOPTR
      010005DCH   PUBLIC    CODE     ---       ?C?ILDOPTR
LX51 LINKER/LOCATER V4.66.97.0                                                        11/10/2024  11:26:37  PAGE 99



      ---         MODULE    ---      ---       ?C?ISTPTR
      01000614H   PUBLIC    CODE     ---       ?C?ISTPTR

      ---         MODULE    ---      ---       ?C?LMUL
      01000633H   PUBLIC    CODE     ---       ?C?LMUL

      ---         MODULE    ---      ---       ?C?ULDIV
      010006BEH   PUBLIC    CODE     ---       ?C?ULDIV

      ---         MODULE    ---      ---       ?C?SLDIV
      01003536H   PUBLIC    CODE     ---       ?C?SLDIV

      ---         MODULE    ---      ---       ?C?LNEG
      01000750H   PUBLIC    CODE     ---       ?C?LNEG

      ---         MODULE    ---      ---       ?C?SLCMP
      0100075EH   PUBLIC    CODE     ---       ?C?SLCMP

      ---         MODULE    ---      ---       ?C?ULCMP
      01000774H   PUBLIC    CODE     ---       ?C?ULCMP

      ---         MODULE    ---      ---       ?C?ULSHR
      01000785H   PUBLIC    CODE     ---       ?C?ULSHR

      ---         MODULE    ---      ---       ?C?LLDCODE
      01000798H   PUBLIC    CODE     ---       ?C?LLDCODE

      ---         MODULE    ---      ---       ?C?LSTXDATA
      010007A8H   PUBLIC    CODE     ---       ?C?LSTXDATA

      ---         MODULE    ---      ---       ?C?LSTKXDATA
      010007B4H   PUBLIC    CODE     ---       ?C?LSTKXDATA

      ---         MODULE    ---      ---       ?C?OFFXADD
      010007E5H   PUBLIC    CODE     ---       ?C?OFFXADD

      ---         MODULE    ---      ---       ?C?UIDIV
      010007F1H   PUBLIC    CODE     ---       ?C?UIDIV

Program Size: data=101.0 xdata=88 const=646 code=15200
LX51 RUN COMPLETE.  0 WARNING(S),  0 ERROR(S)
