LX51 LINKER/LOCATER V4.66.97.0                                                          11/11/2024  12:36:56  PAGE 1


LX51 LINKER/LOCATER V4.66.97.0, INVOKED BY:
C:\KEIL_V5\C51\BIN\LX51.EXE .\Objects\STARTUP_CMS8S6990.obj, .\Objects\main.obj, .\Objects\gpio.obj, .\Objects\ADCCfg.ob
>> j, .\Objects\delay.obj, .\Objects\NTC.obj, .\Objects\SideKey.obj, .\Objects\LEDMgmt.obj, .\Objects\PWM.obj, .\Objects
>> \OutputChannel.obj, .\Objects\Watchdog.obj, .\Objects\BattVoltDisplay.obj, .\Objects\TempControl.obj, .\Objects\Sleep
>> .obj, .\Objects\ModeControl.obj, .\Objects\RampConfig.obj, .\Objects\SelfTest.obj TO .\Objects\XRLite PRINT (.\Listin
>> gs\XRLite.map)


CPU MODE:     8051 MODE
MEMORY MODEL: SMALL WITH FLOATING POINT ARITHMETIC


INPUT MODULES INCLUDED:
  .\Objects\STARTUP_CMS8S6990.obj (?C_STARTUP)
         COMMENT TYPE 0: AX51 V3.15.3.0
  .\Objects\main.obj (MAIN)
         COMMENT TYPE 0: C51 V9.60.0.0
  .\Objects\gpio.obj (GPIO)
         COMMENT TYPE 0: C51 V9.60.0.0
  .\Objects\ADCCfg.obj (ADCCFG)
         COMMENT TYPE 0: C51 V9.60.0.0
  .\Objects\delay.obj (DELAY)
         COMMENT TYPE 0: C51 V9.60.0.0
  .\Objects\NTC.obj (NTC)
         COMMENT TYPE 0: C51 V9.60.0.0
  .\Objects\SideKey.obj (SIDEKEY)
         COMMENT TYPE 0: C51 V9.60.0.0
  .\Objects\LEDMgmt.obj (LEDMGMT)
         COMMENT TYPE 0: C51 V9.60.0.0
  .\Objects\PWM.obj (PWM)
         COMMENT TYPE 0: C51 V9.60.0.0
  .\Objects\OutputChannel.obj (OUTPUTCHANNEL)
         COMMENT TYPE 0: C51 V9.60.0.0
  .\Objects\Watchdog.obj (WATCHDOG)
         COMMENT TYPE 0: C51 V9.60.0.0
  .\Objects\BattVoltDisplay.obj (BATTVOLTDISPLAY)
         COMMENT TYPE 0: C51 V9.60.0.0
  .\Objects\TempControl.obj (TEMPCONTROL)
         COMMENT TYPE 0: C51 V9.60.0.0
  .\Objects\Sleep.obj (SLEEP)
         COMMENT TYPE 0: C51 V9.60.0.0
  .\Objects\ModeControl.obj (MODECONTROL)
         COMMENT TYPE 0: C51 V9.60.0.0
  .\Objects\RampConfig.obj (RAMPCONFIG)
         COMMENT TYPE 0: C51 V9.60.0.0
  .\Objects\SelfTest.obj (SELFTEST)
         COMMENT TYPE 0: C51 V9.60.0.0
  C:\KEIL_V5\C51\LIB\C51FPS.LIB (?C?FPADD)
         COMMENT TYPE 1: A51 / ASM51 Assembler
  C:\KEIL_V5\C51\LIB\C51FPS.LIB (?C?FPMUL)
         COMMENT TYPE 1: A51 / ASM51 Assembler
  C:\KEIL_V5\C51\LIB\C51FPS.LIB (?C?FPDIV)
         COMMENT TYPE 1: A51 / ASM51 Assembler
  C:\KEIL_V5\C51\LIB\C51FPS.LIB (?C?FPCMP)
         COMMENT TYPE 1: A51 / ASM51 Assembler
  C:\KEIL_V5\C51\LIB\C51FPS.LIB (?C?FCAST)
         COMMENT TYPE 1: A51 / ASM51 Assembler
  C:\KEIL_V5\C51\LIB\C51FPS.LIB (?C?CASTF)
         COMMENT TYPE 1: A51 / ASM51 Assembler
  C:\KEIL_V5\C51\LIB\C51FPS.LIB (?C?FPGETOPN)
         COMMENT TYPE 1: A51 / ASM51 Assembler
  C:\KEIL_V5\C51\LIB\C51S.LIB (?C_INIT)
         COMMENT TYPE 1: A51 / ASM51 Assembler
  C:\KEIL_V5\C51\LIB\C51S.LIB (?C?COPY)
         COMMENT TYPE 1: A51 / ASM51 Assembler
  C:\KEIL_V5\C51\LIB\C51S.LIB (?C?SCDIV)
LX51 LINKER/LOCATER V4.66.97.0                                                        11/11/2024  12:36:56  PAGE 2


         COMMENT TYPE 1: A51 / ASM51 Assembler
  C:\KEIL_V5\C51\LIB\C51S.LIB (?C?CLDPTR)
         COMMENT TYPE 1: A51 / ASM51 Assembler
  C:\KEIL_V5\C51\LIB\C51S.LIB (?C?CLDOPTR)
         COMMENT TYPE 1: A51 / ASM51 Assembler
  C:\KEIL_V5\C51\LIB\C51S.LIB (?C?CSTPTR)
         COMMENT TYPE 1: A51 / ASM51 Assembler
  C:\KEIL_V5\C51\LIB\C51S.LIB (?C?IMUL)
         COMMENT TYPE 1: A51 / ASM51 Assembler
  C:\KEIL_V5\C51\LIB\C51S.LIB (?C?SIDIV)
         COMMENT TYPE 1: A51 / ASM51 Assembler
  C:\KEIL_V5\C51\LIB\C51S.LIB (?C?ILDOPTR)
         COMMENT TYPE 1: A51 / ASM51 Assembler
  C:\KEIL_V5\C51\LIB\C51S.LIB (?C?ISTPTR)
         COMMENT TYPE 1: A51 / ASM51 Assembler
  C:\KEIL_V5\C51\LIB\C51S.LIB (?C?LMUL)
         COMMENT TYPE 1: A51 / ASM51 Assembler
  C:\KEIL_V5\C51\LIB\C51S.LIB (?C?ULDIV)
         COMMENT TYPE 1: A51 / ASM51 Assembler
  C:\KEIL_V5\C51\LIB\C51S.LIB (?C?SLDIV)
         COMMENT TYPE 1: A51 / ASM51 Assembler
  C:\KEIL_V5\C51\LIB\C51S.LIB (?C?LNEG)
         COMMENT TYPE 1: A51 / ASM51 Assembler
  C:\KEIL_V5\C51\LIB\C51S.LIB (?C?SLCMP)
         COMMENT TYPE 1: A51 / ASM51 Assembler
  C:\KEIL_V5\C51\LIB\C51S.LIB (?C?ULCMP)
         COMMENT TYPE 1: A51 / ASM51 Assembler
  C:\KEIL_V5\C51\LIB\C51S.LIB (?C?ULSHR)
         COMMENT TYPE 1: A51 / ASM51 Assembler
  C:\KEIL_V5\C51\LIB\C51S.LIB (?C?LLDCODE)
         COMMENT TYPE 1: A51 / ASM51 Assembler
  C:\KEIL_V5\C51\LIB\C51S.LIB (?C?LSTXDATA)
         COMMENT TYPE 1: A51 / ASM51 Assembler
  C:\KEIL_V5\C51\LIB\C51S.LIB (?C?LSTKXDATA)
         COMMENT TYPE 1: A51 / ASM51 Assembler
  C:\KEIL_V5\C51\LIB\C51S.LIB (?C?OFFXADD)
         COMMENT TYPE 1: A51 / ASM51 Assembler
  C:\KEIL_V5\C51\LIB\C51S.LIB (?C?UIDIV)
         COMMENT TYPE 1: A51 / ASM51 Assembler


ACTIVE MEMORY CLASSES OF MODULE:  .\Objects\XRLite (?C_STARTUP)

BASE        START       END         USED      MEMORY CLASS
==========================================================
C:000000H   C:000000H   C:00FFFFH   003BCEH   CODE
I:000000H   I:000000H   I:0000FFH   000001H   IDATA
I:000000H   I:000000H   I:00007FH   00005DH   DATA
I:000020H.0 I:000020H.0 I:00002FH.7 000003H.0 BIT
C:000000H   C:000000H   C:00FFFFH   000286H   CONST
X:000000H   X:000000H   X:00FFFFH   000062H   XDATA


MEMORY MAP OF MODULE:  .\Objects\XRLite (?C_STARTUP)


START     STOP      LENGTH    ALIGN  RELOC    MEMORY CLASS   SEGMENT NAME
=========================================================================

* * * * * * * * * * *   D A T A   M E M O R Y   * * * * * * * * * * * * *
000000H   000007H   000008H   ---    AT..     DATA           "REG BANK 0"
000008H   00001AH   000013H   BYTE   UNIT     DATA           ?DT?ADCCFG
00001BH   00001EH   000004H   BYTE   UNIT     DATA           ?DT?TEMPCONTROL
00001FH   00001FH   000001H   BYTE   UNIT     DATA           ?DT?DELAY
000020H.0 000020H.5 000000H.6 BIT    UNIT     BIT            ?BI?MODECONTROL
LX51 LINKER/LOCATER V4.66.97.0                                                        11/11/2024  12:36:56  PAGE 3


000020H.6 000021H.2 000000H.5 BIT    UNIT     BIT            _BIT_GROUP_
000021H.3 000021H.5 000000H.3 BIT    UNIT     BIT            ?BI?DELAY
000021H.6 000022H.0 000000H.3 BIT    UNIT     BIT            ?BI?PWM
000022H.1 000022H.3 000000H.3 BIT    UNIT     BIT            ?BI?TEMPCONTROL
000022H.4 000022H.5 000000H.2 BIT    UNIT     BIT            ?BI?BATTVOLTDISPLAY
000022H.6 000022H.6 000000H.1 BIT    UNIT     BIT            ?BI?SIDEKEY
000022H.7 000022H.7 000000H.1 BIT    UNIT     BIT            ?BI?SLEEP
000023H   00004BH   000029H   BYTE   UNIT     DATA           _DATA_GROUP_
00004CH   000054H   000009H   BYTE   UNIT     DATA           ?DT?SIDEKEY
000055H   00005BH   000007H   BYTE   UNIT     DATA           ?DT?MODECONTROL
00005CH   00005DH   000002H   BYTE   UNIT     DATA           ?DT?LEDMGMT
00005EH   00005EH   000001H   BYTE   UNIT     DATA           ?DT?WDOG_INIT?WATCHDOG
00005FH   00005FH   000001H   BYTE   UNIT     DATA           ?DT?GETIFWDOGCAUSERST?WATCHDOG
000060H   000060H   000001H   BYTE   UNIT     IDATA          ?STACK

* * * * * * * * * * *   C O D E   M E M O R Y   * * * * * * * * * * * * *
000000H   000002H   000003H   ---    OFFS..   CODE           ?CO?STARTUP_CMS8S6990?3
000003H   00000AH   000008H   BYTE   UNIT     CODE           ?PR?SIDEKEY
00000BH   00000DH   000003H   BYTE   OFFS..   CODE           ?DELAY?0000B
00000EH   000029H   00001CH   BYTE   UNIT     CODE           ?PR?WDOG_INIT?WATCHDOG
00002AH   00002AH   000001H   ---    ---      **GAP**
00002BH   00002DH   000003H   BYTE   OFFS..   CODE           ?DELAY?0002B
00002EH   000046H   000019H   BYTE   UNIT     CODE           ?PR?GETIFWDOGCAUSERST?WATCHDOG
000047H   000049H   000003H   BYTE   UNIT     CODE           ?PR?SYSTEMTELEMHANDLER?ADCCFG
00004AH   00004AH   000001H   ---    ---      **GAP**
00004BH   00004DH   000003H   BYTE   OFFS..   CODE           ?MAIN?0004B
00004EH   000845H   0007F8H   BYTE   UNIT     CODE           ?C?LIB_CODE
000846H   000D0BH   0004C6H   BYTE   UNIT     CODE           ?PR?MODESWITCHFSM?MODECONTROL
000D0CH   000FD8H   0002CDH   BYTE   UNIT     CODE           ?PR?_GPIO_CONFIGGPIOMODE?GPIO
000FD9H   00125EH   000286H   BYTE   UNIT     CODE           ?PR?BATTERYTELEMHANDLER?BATTVOLTDISPLAY
00125FH   00148FH   000231H   BYTE   UNIT     CODE           ?PR?OUTPUTCHANNEL_TESTRUN?OUTPUTCHANNEL
001490H   001680H   0001F1H   BYTE   UNIT     CODE           ?PR?BATVSHOWFSM?BATTVOLTDISPLAY
001681H   001802H   000182H   BYTE   UNIT     CODE           ?PR?THERMALCALCPROCESS?TEMPCONTROL
001803H   001980H   00017EH   BYTE   UNIT     CODE           ?PR?_ADC_WRITEOUTPUTBUF?ADCCFG
001981H   001A9FH   00011FH   BYTE   UNIT     CODE           ?PR?LEDCONTROLHANDLER?LEDMGMT
001AA0H   001BB5H   000116H   BYTE   UNIT     CODE           ?PR?BATTVOLTDISPLAY
001BB6H   001CC3H   00010EH   BYTE   UNIT     CODE           ?PR?_THERMALILIMCALC?TEMPCONTROL
001CC4H   001DCAH   000107H   BYTE   UNIT     CODE           ?PR?ADCENGINEHANDLER?ADCCFG
001DCBH   001EBCH   0000F2H   BYTE   UNIT     CODE           ?PR?OUTPUTCHANNEL_CALC?OUTPUTCHANNEL
001EBDH   001FA7H   0000EBH   BYTE   UNIT     CODE           ?PR?_PEC8CHECK?RAMPCONFIG
001FA8H   00208BH   0000E4H   BYTE   UNIT     CODE           ?PR?DISPLAYVBATTATSTART?BATTVOLTDISPLAY
00208CH   00216AH   0000DFH   BYTE   UNIT     CODE           ?PR?_CALCNTCTEMP?NTC
00216BH   002236H   0000CCH   BYTE   UNIT     CODE           ?PR?SAVERAMPCONFIG?RAMPCONFIG
002237H   0022F5H   0000BFH   BYTE   UNIT     CODE           ?PR?PWM_OUTPUTCTRLHANDLER?PWM
0022F6H   0023B4H   0000BFH   BYTE   UNIT     CODE           ?PR?MODECONTROL
0023B5H   00246DH   0000B9H   BYTE   UNIT     CODE           ?PR?SOSFSM?MODECONTROL
00246EH   002525H   0000B8H   BYTE   UNIT     CODE           ?PR?_GPIO_WRITEBIT?GPIO
002526H   0025DBH   0000B6H   BYTE   UNIT     CODE           ?PR?_DELAY_MS?DELAY
0025DCH   002690H   0000B5H   BYTE   UNIT     CODE           ?PR?OUTPUTFAULTDETECT?SELFTEST
002691H   002741H   0000B1H   BYTE   UNIT     CODE           ?PR?READRAMPCONFIG?RAMPCONFIG
002742H   0027EEH   0000ADH   BYTE   UNIT     CODE           ?PR?ADC_DEINIT?ADCCFG
0027EFH   002897H   0000A9H   BYTE   UNIT     CODE           ?PR?_ADC_READBACKRESULT?ADCCFG
002898H   00293FH   0000A8H   BYTE   UNIT     CODE           ?PR?_DUTY_CALC?OUTPUTCHANNEL
002940H   0029E4H   0000A5H   BYTE   UNIT     CODE           ?PR?GPIO
0029E5H   002A88H   0000A4H   BYTE   UNIT     CODE           ?PR?SIDEKEY_LOGICHANDLER?SIDEKEY
002A89H   002B26H   00009EH   BYTE   UNIT     CODE           ?PR?ADC_INIT?ADCCFG
002B27H   002BC0H   00009AH   BYTE   UNIT     CODE           ?C_C51STARTUP
002BC1H   002C57H   000097H   BYTE   UNIT     CODE           ?PR?_GPIO_GETEXTINTMODE?GPIO
002C58H   002CEDH   000096H   BYTE   UNIT     CODE           ?PR?OUTPUTCHANNEL
002CEEH   002D7AH   00008DH   BYTE   UNIT     CODE           ?PR?LEDMGMT_SWITCHTOPWM?LEDMGMT
002D7BH   002E06H   00008CH   BYTE   UNIT     CODE           ?PR?SLEEPMGMT?SLEEP
002E07H   002E8DH   000087H   BYTE   UNIT     CODE           ?PR?PWM_INIT?PWM
002E8EH   002F11H   000084H   BYTE   UNIT     CODE           ?PR?RAMPADJHANDLER?MODECONTROL
002F12H   002F8AH   000079H   BYTE   UNIT     CODE           ?PR?DISPLAYERRORIDHANDLER?SELFTEST
002F8BH   002FFEH   000074H   BYTE   UNIT     CODE           ?PR?_SWITCHTOGEAR?MODECONTROL
LX51 LINKER/LOCATER V4.66.97.0                                                        11/11/2024  12:36:56  PAGE 4


002FFFH   003072H   000074H   BYTE   UNIT     CODE           ?PR?HOLDSWITCHGEARCMDHANDLER?MODECONTROL
003073H   0030E4H   000072H   BYTE   UNIT     CODE           ?PR?_GPIO_SETMUXMODE?GPIO
0030E5H   00314FH   00006BH   BYTE   UNIT     CODE           ?PR?MAIN?MAIN
003150H   0031B8H   000069H   BYTE   UNIT     CODE           ?PR?SIDEKEYLEDBRIADJHANDLER?MODECONTROL
0031B9H   00321FH   000067H   BYTE   UNIT     CODE           ?PR?SIDEKEY_INT_CALLBACK?SIDEKEY
003220H   003280H   000061H   BYTE   UNIT     CODE           ?PR?_BATTERYLOWALERTPROCESS?MODECONTROL
003281H   0032DEH   00005EH   BYTE   UNIT     CODE           ?PR?ADCCFG
0032DFH   003339H   00005BH   BYTE   UNIT     CODE           ?PR?_GPIO_SETEXTINTMODE?GPIO
00333AH   003394H   00005BH   BYTE   UNIT     CODE           ?PR?MODEFSMTIMHANDLER?MODECONTROL
003395H   0033EFH   00005BH   BYTE   UNIT     CODE           ?PR?INPUTFAULTDETECT?SELFTEST
0033F0H   00343EH   00004FH   BYTE   UNIT     CODE           ?PR?_ADC_SUBMITMISSON?ADCCFG
00343FH   00348DH   00004FH   BYTE   UNIT     CODE           ?C_INITSEG
00348EH   0034D8H   00004BH   BYTE   UNIT     CODE           ?PR?TIMER2_IRQHANDLER?DELAY
0034D9H   00351FH   000047H   BYTE   UNIT     CODE           ?PR?SIDEKEYINIT?SIDEKEY
003520H   003565H   000046H   BYTE   UNIT     CODE           ?PR?LEDMGMT
003566H   0035A9H   000044H   BYTE   UNIT     CODE           ?C?LDIV
0035AAH   0035EBH   000042H   BYTE   UNIT     CODE           ?PR?DISPLAYERRORTIMHANDLER?SELFTEST
0035ECH   00362CH   000041H   BYTE   UNIT     CODE           ?PR?MOONCONFIGHANDLER?MODECONTROL
00362DH   00366BH   00003FH   BYTE   UNIT     CODE           ?PR?_DELAY_US?DELAY
00366CH   0036A9H   00003EH   BYTE   UNIT     CODE           ?PR?KEY_IRQHANDLER?MAIN
0036AAH   0036E5H   00003CH   BYTE   UNIT     CODE           ?PR?BATTDISPLAYTIM?BATTVOLTDISPLAY
0036E6H   003721H   00003CH   BYTE   UNIT     CODE           ?PR?RESTORETOMINIMUMRAMPCURRENT?RAMPCONFIG
003722H   00375BH   00003AH   BYTE   UNIT     CODE           ?PR?_MAKEFASTSTROBE?LEDMGMT
00375CH   003795H   00003AH   BYTE   UNIT     CODE           ?PR?OUTPUTCHANNEL_INIT?OUTPUTCHANNEL
003796H   0037CAH   000035H   BYTE   UNIT     CODE           ?PR?PWM_FORCESETDUTY?PWM
0037CBH   0037FCH   000032H   BYTE   UNIT     CODE           ?PR?SIDEKEY_TIM_CALLBACK?SIDEKEY
0037FDH   00382EH   000032H   BYTE   UNIT     CODE           ?PR?SETLEDONOFF?LEDMGMT
00382FH   00385DH   00002FH   BYTE   UNIT     CODE           ?PR?_PRESENTLIM?TEMPCONTROL
00385EH   00388BH   00002EH   BYTE   UNIT     CODE           ?PR?RAMPCONFIG
00388CH   0038B8H   00002DH   BYTE   UNIT     CODE           ?PR?LEDMGMT_SETBRIGHTNESS?LEDMGMT
0038B9H   0038E4H   00002CH   BYTE   UNIT     CODE           ?PR?_GPIO_CHECKIFINTENABLED?GPIO
0038E5H   003910H   00002CH   BYTE   UNIT     CODE           ?PR?SYSTEMPERIPHERALCTRL?SLEEP
003911H   00393BH   00002BH   BYTE   UNIT     CODE           ?PR?TEMPCONTROL
00393CH   003966H   00002BH   BYTE   UNIT     CODE           ?PR?SELFTEST
003967H   00398EH   000028H   BYTE   UNIT     CODE           ?PR?LED_INIT?LEDMGMT
00398FH   0039B5H   000027H   BYTE   UNIT     CODE           ?PR?SETSYSTEMHBTIMER?DELAY
0039B6H   0039DBH   000026H   BYTE   UNIT     CODE           ?PR?MODEFSMINIT?MODECONTROL
0039DCH   0039FEH   000023H   BYTE   UNIT     CODE           ?PR?CHECKIFHBTIMISREADY?DELAY
0039FFH   003A21H   000023H   BYTE   UNIT     CODE           ?PR?PWM_DEINIT?PWM
003A22H   003A43H   000022H   BYTE   UNIT     CODE           ?PR?_GPIO_DISABLEINT?GPIO
003A44H   003A65H   000022H   BYTE   UNIT     CODE           ?PR?NTC
003A66H   003A86H   000021H   BYTE   UNIT     CODE           ?PR?CHECKNTCSTATUS?TEMPCONTROL
003A87H   003AA6H   000020H   BYTE   UNIT     CODE           ?PR?MARKASKEYPRESSED?SIDEKEY
003AA7H   003AC5H   00001FH   BYTE   UNIT     CODE           ?PR?GETSIDEKEYSHORTPRESSCOUNT?SIDEKEY
003AC6H   003AE3H   00001EH   BYTE   UNIT     CODE           ?PR?_GPIO_ENABLEINT?GPIO
003AE4H   003AFCH   000019H   BYTE   UNIT     CODE           ?PR?RETURNTOOFFSTATE?MODECONTROL
003AFDH   003B14H   000018H   BYTE   UNIT     CODE           ?PR?_CLICKANDHOLDEVENTHANDLER?SIDEKEY
003B15H   003B29H   000015H   BYTE   UNIT     CODE           ?PR?ADC_SETVREF?ADCCFG
003B2AH   003B3EH   000015H   BYTE   UNIT     CODE           ?PR?DELAY_INIT?DELAY
003B3FH   003B51H   000013H   BYTE   UNIT     CODE           ?PR?ISKEYEVENTOCCURRED?SIDEKEY
003B52H   003B61H   000010H   BYTE   UNIT     CODE           ?PR?WDOG_DEINIT?WATCHDOG
003B62H   003B71H   000010H   BYTE   UNIT     CODE           ?PR?WDOG_FEED?WATCHDOG
003B72H   003B81H   000010H   BYTE   UNIT     CODE           ?PR?_SIDEKEYSWITCHGEARHANDLER?MODECONTROL
003B82H   003B91H   000010H   BYTE   UNIT     CODE           ?PR?_SIDEKEY1HREVGEARHANDLER?MODECONTROL
003B92H   003BA0H   00000FH   BYTE   UNIT     CODE           ?PR?PWM
003BA1H   003BABH   00000BH   BYTE   UNIT     CODE           ?PR?GETSIDEKEYLONGPRESSEVENT?SIDEKEY
003BACH   003BB4H   000009H   BYTE   UNIT     CODE           ?PR?TRIGGERVSHOWDISPLAY?BATTVOLTDISPLAY
003BB5H   003BBBH   000007H   BYTE   UNIT     CODE           ?PR?GETSIDEKEYHOLDEVENT?SIDEKEY
003BBCH   003BC2H   000007H   BYTE   UNIT     CODE           ?PR?GETSIDEKEYCLICKANDHOLDEVENT?SIDEKEY
003BC3H   003BC9H   000007H   BYTE   UNIT     CODE           ?PR?OUTPUTCHANNEL_DEINIT?OUTPUTCHANNEL
003BCAH   003BCFH   000006H   BYTE   UNIT     CODE           ?PR?TIMER0_IRQHANDLER?DELAY
003BD0H   003DB1H   0001E2H   BYTE   UNIT     CONST          ?CO?NTC
003DB2H   003E14H   000063H   BYTE   UNIT     CONST          ?CO?MODECONTROL
003E15H   003E3DH   000029H   BYTE   UNIT     CONST          ?CO?RAMPCONFIG
003E3EH   003E51H   000014H   BYTE   UNIT     CONST          ?CO?OUTPUTCHANNEL
LX51 LINKER/LOCATER V4.66.97.0                                                        11/11/2024  12:36:56  PAGE 5


003E52H   003E55H   000004H   BYTE   UNIT     CONST          ?CO?ADCCFG

* * * * * * * * * * *  X D A T A   M E M O R Y  * * * * * * * * * * * * *
000000H   00001BH   00001CH   BYTE   UNIT     XDATA          _XDATA_GROUP_
00001CH   000033H   000018H   BYTE   UNIT     XDATA          ?XD?BATTVOLTDISPLAY
000034H   000040H   00000DH   BYTE   UNIT     XDATA          ?XD?ADCCFG
000041H   00004CH   00000CH   BYTE   UNIT     XDATA          ?XD?MODECONTROL
00004DH   000054H   000008H   BYTE   UNIT     XDATA          ?XD?SELFTEST
000055H   000059H   000005H   BYTE   UNIT     XDATA          ?XD?OUTPUTCHANNEL
00005AH   00005DH   000004H   BYTE   UNIT     XDATA          ?XD?PWM
00005EH   000060H   000003H   BYTE   UNIT     XDATA          ?XD?LEDMGMT
000061H   000061H   000001H   BYTE   UNIT     XDATA          ?XD?SIDEKEY



OVERLAY MAP OF MODULE:   .\Objects\XRLite (?C_STARTUP)


FUNCTION/MODULE                              BIT_GROUP   DATA_GROUP   XDATA_GROUP
--> CALLED FUNCTION/MODULE                  START  STOP  START  STOP  START  STOP
=================================================================================
?C_C51STARTUP                               ----- -----  ----- -----  ----- -----
  +--> MAIN/MAIN
  +--> ?C_INITSEG

MAIN/MAIN                                   ----- -----  ----- -----  ----- -----
  +--> DELAY_INIT/DELAY
  +--> SETSYSTEMHBTIMER/DELAY
  +--> CHECKIFHBTIMISREADY/DELAY
  +--> LED_INIT/LEDMGMT
  +--> ADC_INIT/ADCCFG
  +--> CHECKNTCSTATUS/TEMPCONTROL
  +--> MODEFSMINIT/MODECONTROL
  +--> SIDEKEYINIT/SIDEKEY
  +--> PWM_INIT/PWM
  +--> OUTPUTCHANNEL_INIT/OUTPUTCHANNEL
  +--> OUTPUTCHANNEL_TESTRUN/OUTPUTCHANNEL
  +--> DISPLAYVBATTATSTART/BATTVOLTDISPLAY
  +--> LEDMGMT_SWITCHTOPWM/LEDMGMT
  +--> WDOG_INIT/WATCHDOG
  +--> SYSTEMTELEMHANDLER/ADCCFG
  +--> SIDEKEY_LOGICHANDLER/SIDEKEY
  +--> BATTERYTELEMHANDLER/BATTVOLTDISPLAY
  +--> MODESWITCHFSM/MODECONTROL
  +--> THERMALCALCPROCESS/TEMPCONTROL
  +--> OUTPUTCHANNEL_CALC/OUTPUTCHANNEL
  +--> PWM_OUTPUTCTRLHANDLER/PWM
  +--> WDOG_FEED/WATCHDOG
  +--> BATTDISPLAYTIM/BATTVOLTDISPLAY
  +--> LEDCONTROLHANDLER/LEDMGMT
  +--> MODEFSMTIMHANDLER/MODECONTROL
  +--> HOLDSWITCHGEARCMDHANDLER/MODECONTROL
  +--> DISPLAYERRORTIMHANDLER/SELFTEST
  +--> MOONCONFIGHANDLER/MODECONTROL
  +--> OUTPUTFAULTDETECT/SELFTEST
  +--> INPUTFAULTDETECT/SELFTEST
  +--> SLEEPMGMT/SLEEP

DELAY_INIT/DELAY                            ----- -----  ----- -----  ----- -----

SETSYSTEMHBTIMER/DELAY                      20H.7 20H.7  ----- -----  ----- -----

CHECKIFHBTIMISREADY/DELAY                   ----- -----  0023H 0024H  ----- -----
  +--> _DELAY_MS/DELAY

LX51 LINKER/LOCATER V4.66.97.0                                                        11/11/2024  12:36:56  PAGE 6


_DELAY_MS/DELAY                             ----- -----  002FH 0036H  ----- -----

LED_INIT/LEDMGMT                            ----- -----  0025H 0027H  ----- -----
  +--> _GPIO_CONFIGGPIOMODE/GPIO

_GPIO_CONFIGGPIOMODE/GPIO                   ----- -----  0028H 0032H  ----- -----
  +--> GPIO

GPIO                                        ----- -----  ----- -----  ----- -----

ADC_INIT/ADCCFG                             ----- -----  0025H 0027H  ----- -----
  +--> _GPIO_CONFIGGPIOMODE/GPIO
  +--> _GPIO_SETMUXMODE/GPIO
  +--> _GPIO_WRITEBIT/GPIO
  +--> ADCCFG
  +--> SYSTEMTELEMHANDLER/ADCCFG

_GPIO_SETMUXMODE/GPIO                       ----- -----  0028H 0029H  ----- -----
  +--> GPIO

_GPIO_WRITEBIT/GPIO                         20H.7 20H.7  ----- -----  ----- -----
  +--> GPIO

ADCCFG                                      ----- -----  ----- -----  ----- -----

SYSTEMTELEMHANDLER/ADCCFG                   ----- -----  ----- -----  ----- -----
  +--> ADCENGINEHANDLER/ADCCFG

ADCENGINEHANDLER/ADCCFG                     ----- -----  0028H 002CH  ----- -----
  +--> ADC_SETVREF/ADCCFG
  +--> ADCCFG
  +--> _ADC_SUBMITMISSON/ADCCFG
  +--> _ADC_READBACKRESULT/ADCCFG
  +--> _ADC_WRITEOUTPUTBUF/ADCCFG

ADC_SETVREF/ADCCFG                          20H.7 20H.7  ----- -----  ----- -----

_ADC_SUBMITMISSON/ADCCFG                    ----- -----  ----- -----  ----- -----
  +--> ADCCFG
  +--> _DELAY_US/DELAY

_DELAY_US/DELAY                             20H.7 20H.7  ----- -----  ----- -----

_ADC_READBACKRESULT/ADCCFG                  ----- -----  002DH 0032H  ----- -----

_ADC_WRITEOUTPUTBUF/ADCCFG                  ----- -----  002DH 003BH  ----- -----
  +--> ADCCFG
  +--> _CALCNTCTEMP/NTC

_CALCNTCTEMP/NTC                            ----- -----  003CH 0048H  ----- -----
  +--> NTC

NTC                                         ----- -----  ----- -----  ----- -----

CHECKNTCSTATUS/TEMPCONTROL                  ----- -----  0023H 0023H  ----- -----
  +--> _DELAY_MS/DELAY
  +--> SYSTEMTELEMHANDLER/ADCCFG
  +--> LEDCONTROLHANDLER/LEDMGMT

LEDCONTROLHANDLER/LEDMGMT                   20H.6 21H.0  ----- -----  ----- -----
  +--> LEDMGMT
  +--> SETLEDONOFF/LEDMGMT

LEDMGMT                                     ----- -----  ----- -----  ----- -----

LX51 LINKER/LOCATER V4.66.97.0                                                        11/11/2024  12:36:56  PAGE 7


SETLEDONOFF/LEDMGMT                         21H.1 21H.2  ----- -----  ----- -----

MODEFSMINIT/MODECONTROL                     ----- -----  ----- -----  ----- -----
  +--> READRAMPCONFIG/RAMPCONFIG

READRAMPCONFIG/RAMPCONFIG                   ----- -----  0023H 002BH  ----- -----
  +--> RAMPCONFIG
  +--> _PEC8CHECK/RAMPCONFIG
  +--> SAVERAMPCONFIG/RAMPCONFIG

RAMPCONFIG                                  ----- -----  ----- -----  ----- -----

_PEC8CHECK/RAMPCONFIG                       ----- -----  003CH 004BH  ----- -----
  +--> RAMPCONFIG

SAVERAMPCONFIG/RAMPCONFIG                   20H.7 20H.7  002CH 003BH  ----- -----
  +--> RAMPCONFIG
  +--> _PEC8CHECK/RAMPCONFIG

SIDEKEYINIT/SIDEKEY                         ----- -----  0023H 0025H  ----- -----
  +--> _GPIO_SETMUXMODE/GPIO
  +--> _GPIO_CONFIGGPIOMODE/GPIO
  +--> _GPIO_ENABLEINT/GPIO
  +--> _GPIO_SETEXTINTMODE/GPIO

_GPIO_ENABLEINT/GPIO                        ----- -----  ----- -----  ----- -----

_GPIO_SETEXTINTMODE/GPIO                    ----- -----  0026H 0027H  ----- -----
  +--> GPIO

PWM_INIT/PWM                                ----- -----  0025H 0027H  ----- -----
  +--> _GPIO_WRITEBIT/GPIO
  +--> _GPIO_CONFIGGPIOMODE/GPIO
  +--> _GPIO_SETMUXMODE/GPIO

OUTPUTCHANNEL_INIT/OUTPUTCHANNEL            ----- -----  0025H 0027H  ----- -----
  +--> OUTPUTCHANNEL
  +--> _GPIO_CONFIGGPIOMODE/GPIO

OUTPUTCHANNEL                               ----- -----  ----- -----  ----- -----

OUTPUTCHANNEL_TESTRUN/OUTPUTCHANNEL         ----- -----  0023H 0026H  0000H 001BH
  +--> GETIFWDOGCAUSERST/WATCHDOG
  +--> OUTPUTCHANNEL
  +--> PWM_FORCESETDUTY/PWM
  +--> _DELAY_MS/DELAY
  +--> SYSTEMTELEMHANDLER/ADCCFG
  +--> _SWITCHTOGEAR/MODECONTROL

GETIFWDOGCAUSERST/WATCHDOG                  ----- -----  ----- -----  ----- -----

PWM_FORCESETDUTY/PWM                        20H.6 20H.6  ----- -----  ----- -----

_SWITCHTOGEAR/MODECONTROL                   ----- -----  0028H 002BH  ----- -----
  +--> MODECONTROL

MODECONTROL                                 ----- -----  ----- -----  ----- -----

DISPLAYVBATTATSTART/BATTVOLTDISPLAY         ----- -----  0023H 0027H  ----- -----
  +--> _GPIO_SETMUXMODE/GPIO
  +--> _DELAY_MS/DELAY
  +--> SYSTEMTELEMHANDLER/ADCCFG
  +--> BATTVOLTDISPLAY
  +--> _MAKEFASTSTROBE/LEDMGMT
  +--> _GPIO_CONFIGGPIOMODE/GPIO
LX51 LINKER/LOCATER V4.66.97.0                                                        11/11/2024  12:36:56  PAGE 8



BATTVOLTDISPLAY                             ----- -----  ----- -----  ----- -----

_MAKEFASTSTROBE/LEDMGMT                     20H.6 20H.7  ----- -----  ----- -----
  +--> SETLEDONOFF/LEDMGMT
  +--> _DELAY_MS/DELAY

LEDMGMT_SWITCHTOPWM/LEDMGMT                 ----- -----  ----- -----  ----- -----
  +--> _GPIO_SETMUXMODE/GPIO
  +--> LEDMGMT

WDOG_INIT/WATCHDOG                          ----- -----  ----- -----  ----- -----

SIDEKEY_LOGICHANDLER/SIDEKEY                ----- -----  ----- -----  ----- -----
  +--> _GPIO_CHECKIFINTENABLED/GPIO
  +--> _GPIO_SETEXTINTMODE/GPIO
  +--> _GPIO_ENABLEINT/GPIO
  +--> SIDEKEY
  +--> _CLICKANDHOLDEVENTHANDLER/SIDEKEY

_GPIO_CHECKIFINTENABLED/GPIO                ----- -----  ----- -----  ----- -----

SIDEKEY                                     ----- -----  ----- -----  ----- -----

_CLICKANDHOLDEVENTHANDLER/SIDEKEY           ----- -----  ----- -----  ----- -----

BATTERYTELEMHANDLER/BATTVOLTDISPLAY         ----- -----  0025H 002CH  ----- -----
  +--> BATTVOLTDISPLAY
  +--> DISPLAYERRORIDHANDLER/SELFTEST
  +--> BATVSHOWFSM/BATTVOLTDISPLAY

DISPLAYERRORIDHANDLER/SELFTEST              ----- -----  ----- -----  ----- -----

BATVSHOWFSM/BATTVOLTDISPLAY                 ----- -----  002DH 002EH  ----- -----
  +--> BATTVOLTDISPLAY
  +--> _MAKEFASTSTROBE/LEDMGMT
  +--> GETSIDEKEYCLICKANDHOLDEVENT/SIDEKEY

GETSIDEKEYCLICKANDHOLDEVENT/SIDEKEY         ----- -----  ----- -----  ----- -----

MODESWITCHFSM/MODECONTROL                   20H.6 20H.6  0023H 0024H  0000H 0003H
  +--> GETSIDEKEYLONGPRESSEVENT/SIDEKEY
  +--> GETSIDEKEYSHORTPRESSCOUNT/SIDEKEY
  +--> MODECONTROL
  +--> ISKEYEVENTOCCURRED/SIDEKEY
  +--> GETSIDEKEYHOLDEVENT/SIDEKEY
  +--> SAVERAMPCONFIG/RAMPCONFIG
  +--> GETSIDEKEYCLICKANDHOLDEVENT/SIDEKEY
  +--> TRIGGERVSHOWDISPLAY/BATTVOLTDISPLAY
  +--> RETURNTOOFFSTATE/MODECONTROL
  +--> SIDEKEYLEDBRIADJHANDLER/MODECONTROL
  +--> _SWITCHTOGEAR/MODECONTROL
  +--> RESTORETOMINIMUMRAMPCURRENT/RAMPCONFIG
  +--> RAMPADJHANDLER/MODECONTROL
  +--> _SIDEKEYSWITCHGEARHANDLER/MODECONTROL
  +--> _SIDEKEY1HREVGEARHANDLER/MODECONTROL
  +--> _BATTERYLOWALERTPROCESS/MODECONTROL
  +--> SOSFSM/MODECONTROL
  +--> _THERMALILIMCALC/TEMPCONTROL

GETSIDEKEYLONGPRESSEVENT/SIDEKEY            ----- -----  ----- -----  ----- -----

GETSIDEKEYSHORTPRESSCOUNT/SIDEKEY           20H.7 20H.7  ----- -----  ----- -----
  +--> SIDEKEY

LX51 LINKER/LOCATER V4.66.97.0                                                        11/11/2024  12:36:56  PAGE 9


ISKEYEVENTOCCURRED/SIDEKEY                  ----- -----  ----- -----  ----- -----

GETSIDEKEYHOLDEVENT/SIDEKEY                 ----- -----  ----- -----  ----- -----

TRIGGERVSHOWDISPLAY/BATTVOLTDISPLAY         ----- -----  ----- -----  ----- -----

RETURNTOOFFSTATE/MODECONTROL                ----- -----  ----- -----  ----- -----
  +--> MODECONTROL
  +--> _SWITCHTOGEAR/MODECONTROL

SIDEKEYLEDBRIADJHANDLER/MODECONTROL         ----- -----  ----- -----  ----- -----
  +--> LEDMGMT_SETBRIGHTNESS/LEDMGMT

LEDMGMT_SETBRIGHTNESS/LEDMGMT               ----- -----  ----- -----  ----- -----
  +--> LEDMGMT

RESTORETOMINIMUMRAMPCURRENT/RAMPCONFIG      ----- -----  ----- -----  ----- -----
  +--> RAMPCONFIG

RAMPADJHANDLER/MODECONTROL                  ----- -----  ----- -----  ----- -----
  +--> GETSIDEKEYHOLDEVENT/SIDEKEY
  +--> GETSIDEKEYCLICKANDHOLDEVENT/SIDEKEY
  +--> MODECONTROL
  +--> SAVERAMPCONFIG/RAMPCONFIG

_SIDEKEYSWITCHGEARHANDLER/MODECONTROL       ----- -----  ----- -----  ----- -----
  +--> MODECONTROL
  +--> _SWITCHTOGEAR/MODECONTROL

_SIDEKEY1HREVGEARHANDLER/MODECONTROL        ----- -----  ----- -----  ----- -----
  +--> MODECONTROL
  +--> _SWITCHTOGEAR/MODECONTROL

_BATTERYLOWALERTPROCESS/MODECONTROL         ----- -----  0025H 0027H  ----- -----
  +--> MODECONTROL
  +--> RETURNTOOFFSTATE/MODECONTROL
  +--> _SWITCHTOGEAR/MODECONTROL

SOSFSM/MODECONTROL                          ----- -----  0025H 0026H  ----- -----
  +--> MODECONTROL

_THERMALILIMCALC/TEMPCONTROL                ----- -----  0025H 0032H  ----- -----
  +--> TEMPCONTROL
  +--> _PRESENTLIM/TEMPCONTROL

TEMPCONTROL                                 ----- -----  ----- -----  ----- -----

_PRESENTLIM/TEMPCONTROL                     ----- -----  0033H 0036H  ----- -----
  +--> TEMPCONTROL

THERMALCALCPROCESS/TEMPCONTROL              ----- -----  ----- -----  ----- -----
  +--> TEMPCONTROL
  +--> _SWITCHTOGEAR/MODECONTROL

OUTPUTCHANNEL_CALC/OUTPUTCHANNEL            ----- -----  ----- -----  ----- -----
  +--> OUTPUTCHANNEL
  +--> _DUTY_CALC/OUTPUTCHANNEL

_DUTY_CALC/OUTPUTCHANNEL                    ----- -----  0023H 0030H  ----- -----
  +--> OUTPUTCHANNEL

PWM_OUTPUTCTRLHANDLER/PWM                   ----- -----  0023H 0026H  ----- -----
  +--> PWM

PWM                                         ----- -----  ----- -----  ----- -----
LX51 LINKER/LOCATER V4.66.97.0                                                        11/11/2024  12:36:56  PAGE 10



WDOG_FEED/WATCHDOG                          ----- -----  ----- -----  ----- -----

BATTDISPLAYTIM/BATTVOLTDISPLAY              ----- -----  ----- -----  ----- -----
  +--> BATTVOLTDISPLAY

MODEFSMTIMHANDLER/MODECONTROL               ----- -----  ----- -----  ----- -----
  +--> MODECONTROL

HOLDSWITCHGEARCMDHANDLER/MODECONTROL        ----- -----  0023H 0023H  ----- -----
  +--> GETSIDEKEYHOLDEVENT/SIDEKEY
  +--> MODECONTROL
  +--> GETSIDEKEYCLICKANDHOLDEVENT/SIDEKEY

DISPLAYERRORTIMHANDLER/SELFTEST             ----- -----  ----- -----  ----- -----

MOONCONFIGHANDLER/MODECONTROL               ----- -----  ----- -----  ----- -----
  +--> MODECONTROL

OUTPUTFAULTDETECT/SELFTEST                  ----- -----  0023H 0023H  ----- -----
  +--> SELFTEST
  +--> _SWITCHTOGEAR/MODECONTROL

SELFTEST                                    ----- -----  ----- -----  ----- -----

INPUTFAULTDETECT/SELFTEST                   ----- -----  ----- -----  ----- -----
  +--> SELFTEST
  +--> _SWITCHTOGEAR/MODECONTROL

SLEEPMGMT/SLEEP                             ----- -----  0023H 0024H  ----- -----
  +--> SYSTEMPERIPHERALCTRL/SLEEP
  +--> DELAY_INIT/DELAY
  +--> SETSYSTEMHBTIMER/DELAY
  +--> MARKASKEYPRESSED/SIDEKEY
  +--> _DELAY_MS/DELAY
  +--> SIDEKEY_LOGICHANDLER/SIDEKEY
  +--> ISKEYEVENTOCCURRED/SIDEKEY
  +--> SYSTEMTELEMHANDLER/ADCCFG
  +--> BATTERYTELEMHANDLER/BATTVOLTDISPLAY

SYSTEMPERIPHERALCTRL/SLEEP                  20H.6 20H.6  ----- -----  ----- -----
  +--> LED_INIT/LEDMGMT
  +--> ADC_INIT/ADCCFG
  +--> PWM_INIT/PWM
  +--> OUTPUTCHANNEL_INIT/OUTPUTCHANNEL
  +--> LEDMGMT_SWITCHTOPWM/LEDMGMT
  +--> WDOG_INIT/WATCHDOG
  +--> WDOG_DEINIT/WATCHDOG
  +--> SETSYSTEMHBTIMER/DELAY
  +--> PWM_DEINIT/PWM
  +--> ADC_DEINIT/ADCCFG
  +--> OUTPUTCHANNEL_DEINIT/OUTPUTCHANNEL

WDOG_DEINIT/WATCHDOG                        ----- -----  ----- -----  ----- -----

PWM_DEINIT/PWM                              ----- -----  ----- -----  ----- -----
  +--> _GPIO_SETMUXMODE/GPIO
  +--> _GPIO_WRITEBIT/GPIO

ADC_DEINIT/ADCCFG                           ----- -----  0025H 0027H  ----- -----
  +--> ADCCFG
  +--> _GPIO_SETMUXMODE/GPIO
  +--> _GPIO_CONFIGGPIOMODE/GPIO
  +--> _GPIO_WRITEBIT/GPIO

LX51 LINKER/LOCATER V4.66.97.0                                                        11/11/2024  12:36:56  PAGE 11


OUTPUTCHANNEL_DEINIT/OUTPUTCHANNEL          ----- -----  ----- -----  ----- -----
  +--> OUTPUTCHANNEL

MARKASKEYPRESSED/SIDEKEY                    ----- -----  ----- -----  ----- -----
  +--> _GPIO_DISABLEINT/GPIO

_GPIO_DISABLEINT/GPIO                       ----- -----  ----- -----  ----- -----

?C_INITSEG                                  ----- -----  ----- -----  ----- -----

*** NEW ROOT ******************************

KEY_IRQHANDLER/MAIN                         ----- -----  ----- -----  ----- -----
  +--> SIDEKEY_INT_CALLBACK/SIDEKEY

SIDEKEY_INT_CALLBACK/SIDEKEY                ----- -----  ----- -----  ----- -----
  +--> _GPIO_GETEXTINTMODE/GPIO
  +--> SIDEKEY
  +--> _GPIO_DISABLEINT/GPIO

_GPIO_GETEXTINTMODE/GPIO                    ----- -----  ----- -----  ----- -----
  +--> GPIO

*** NEW ROOT ******************************

TIMER2_IRQHANDLER/DELAY                     ----- -----  ----- -----  ----- -----
  +--> SIDEKEY_TIM_CALLBACK/SIDEKEY

SIDEKEY_TIM_CALLBACK/SIDEKEY                ----- -----  ----- -----  ----- -----

*** NEW ROOT ******************************

TIMER0_IRQHANDLER/DELAY                     ----- -----  ----- -----  ----- -----



PUBLIC SYMBOLS OF MODULE:  .\Objects\XRLite (?C_STARTUP)


      VALUE       CLASS    TYPE      PUBLIC SYMBOL NAME
      =================================================
      00000020H.7 BIT      BIT       ?_GPIO_WriteBit?BIT
      010003A3H   CODE     ---       ?C?CASTF
      01000555H   CODE     ---       ?C?CLDOPTR
      0100053CH   CODE     ---       ?C?CLDPTR
      00000000H   NUMBER   ---       ?C?CODESEG
      010004F4H   CODE     ---       ?C?COPY
      01000582H   CODE     ---       ?C?CSTPTR
      0100036FH   CODE     ---       ?C?FCASTC
      0100036AH   CODE     ---       ?C?FCASTI
      01000365H   CODE     ---       ?C?FCASTL
      01000055H   CODE     ---       ?C?FPADD
      010002EEH   CODE     ---       ?C?FPCMP
      010002ECH   CODE     ---       ?C?FPCMP3
      0100024FH   CODE     ---       ?C?FPDIV
      010003DAH   CODE     ---       ?C?FPGETOPN2
      01000146H   CODE     ---       ?C?FPMUL
      0100040FH   CODE     ---       ?C?FPNANRESULT
      01000419H   CODE     ---       ?C?FPOVERFLOW
      010003F1H   CODE     ---       ?C?FPRESULT
      01000405H   CODE     ---       ?C?FPRESULT2
      01000051H   CODE     ---       ?C?FPSUB
      01000416H   CODE     ---       ?C?FPUNDERFLOW
      010005DCH   CODE     ---       ?C?ILDOPTR
      01000594H   CODE     ---       ?C?IMUL
LX51 LINKER/LOCATER V4.66.97.0                                                        11/11/2024  12:36:56  PAGE 12


      01000614H   CODE     ---       ?C?ISTPTR
      01000798H   CODE     ---       ?C?LLDCODE
      01000633H   CODE     ---       ?C?LMUL
      01000750H   CODE     ---       ?C?LNEG
      010007B4H   CODE     ---       ?C?LSTKXDATA
      010007A8H   CODE     ---       ?C?LSTXDATA
      010007E5H   CODE     ---       ?C?OFFXADD
      0100051AH   CODE     ---       ?C?SCDIV
      010005A6H   CODE     ---       ?C?SIDIV
      0100075EH   CODE     ---       ?C?SLCMP
      01003566H   CODE     ---       ?C?SLDIV
      010007F1H   CODE     ---       ?C?UIDIV
      01000774H   CODE     ---       ?C?ULCMP
      010006BEH   CODE     ---       ?C?ULDIV
      01000785H   CODE     ---       ?C?ULSHR
      00000000H   NUMBER   ---       ?C?XDATASEG
      01002B7CH   CODE     ---       ?C_START
      01000000H   CODE     NEAR LAB  ?C_STARTUP
      00000020H.7 BIT      BIT       ?getSideKeyShortPressCount?BIT
      00000020H.6 BIT      BIT       ?PWM_ForceSetDuty?BIT
      00000020H.7 BIT      BIT       ?SaveRampConfig?BIT
      00000020H.7 BIT      BIT       ?SetSystemHBTimer?BIT
      0100208CH   CODE     ---       _CalcNTCTemp
      01002526H   CODE     ---       _delay_ms
      0100362DH   CODE     ---       _delay_us
      010038B9H   CODE     ---       _GPIO_CheckIfIntEnabled
      01000D0CH   CODE     ---       _GPIO_ConfigGPIOMode
      01003A22H   CODE     ---       _GPIO_DisableInt
      01003AC6H   CODE     ---       _GPIO_EnableInt
      01002BC1H   CODE     ---       _GPIO_GetExtIntMode
      010032DFH   CODE     ---       _GPIO_SetExtIntMode
      01003073H   CODE     ---       _GPIO_SetMUXMode
      0100246EH   CODE     ---       _GPIO_WriteBit
      01003722H   CODE     ---       _MakeFastStrobe
      01002F8BH   CODE     ---       _SwitchToGear
      01001BB6H   CODE     ---       _ThermalILIMCalc
*SFR* 000000D0H.6 DATA     BIT       AC
*SFR* 000000E0H   DATA     BYTE      ACC
      01002742H   CODE     ---       ADC_DeInit
      01002A89H   CODE     ---       ADC_Init
      01003E52H   CONST    ---       ADCChQueue
*SFR* 000000D1H   DATA     BYTE      ADCMPC
*SFR* 000000D5H   DATA     BYTE      ADCMPH
*SFR* 000000D4H   DATA     BYTE      ADCMPL
*SFR* 000000DFH   DATA     BYTE      ADCON0
*SFR* 000000DEH   DATA     BYTE      ADCON1
*SFR* 000000E9H   DATA     BYTE      ADCON2
*SFR* 000000D3H   DATA     BYTE      ADDLYL
*SFR* 000000DDH   DATA     BYTE      ADRESH
*SFR* 000000DCH   DATA     BYTE      ADRESL
*SFR* 000000F0H   DATA     BYTE      B
      02000043H   XDATA    CHAR      BattAlertTimer
      010036AAH   CODE     ---       BattDisplayTIM
      0200002CH   XDATA    FLOAT     Battery
      01000FD9H   CODE     ---       BatteryTelemHandler
*SFR* 000000BFH   DATA     BYTE      BUZCON
*SFR* 000000BEH   DATA     BYTE      BUZDIV
*SFR* 000000C8H.5 DATA     BIT       CAPES
*SFR* 000000CEH   DATA     BYTE      CCEN
*SFR* 000000C3H   DATA     BYTE      CCH1
*SFR* 000000C5H   DATA     BYTE      CCH2
*SFR* 000000C7H   DATA     BYTE      CCH3
*SFR* 000000C2H   DATA     BYTE      CCL1
*SFR* 000000C4H   DATA     BYTE      CCL2
*SFR* 000000C6H   DATA     BYTE      CCL3
LX51 LINKER/LOCATER V4.66.97.0                                                        11/11/2024  12:36:56  PAGE 13


      010039DCH   CODE     ---       CheckIfHBTIMIsReady
      01003A66H   CODE     ---       CheckNTCStatus
*SFR* 0000008EH   DATA     BYTE      CKCON
      0200004AH   XDATA    CHAR      ClickHoldReverseGearTIM
*SFR* 0000008FH   DATA     BYTE      CLKDIV
*SFR* 000000A0H.2 DATA     BIT       CSPin
      02000057H   XDATA    INT       Current
      00000059H   DATA     ---       CurrentMode
*SFR* 000000D0H.7 DATA     BIT       CY
      00000009H   DATA     ---       Data
*SFR* 00000080H.4 DATA     BIT       DCDCEN
      01003B2AH   CODE     ---       delay_init
      01002F12H   CODE     ---       DisplayErrorIDHandler
      010035AAH   CODE     ---       DisplayErrorTIMHandler
      02000045H   XDATA    CHAR      DisplayLockedTIM
      01001FA8H   CODE     ---       DisplayVBattAtStart
*SFR* 00000083H   DATA     BYTE      DPH
*SFR* 00000083H   DATA     BYTE      DPH0
*SFR* 00000085H   DATA     BYTE      DPH1
*SFR* 00000082H   DATA     BYTE      DPL
*SFR* 00000082H   DATA     BYTE      DPL0
*SFR* 00000084H   DATA     BYTE      DPL1
*SFR* 00000086H   DATA     BYTE      DPS
*SFR* 00000093H   DATA     BYTE      DPX0
*SFR* 00000095H   DATA     BYTE      DPX1
*SFR* 000000A8H.7 DATA     BIT       EA
*SFR* 000000AAH   DATA     BYTE      EIE2
*SFR* 000000B2H   DATA     BYTE      EIF2
*SFR* 000000B9H   DATA     BYTE      EIP1
*SFR* 000000BAH   DATA     BYTE      EIP2
      02000047H   XDATA    BYTE      ErrCode
*SFR* 000000A8H.4 DATA     BIT       ES0
*SFR* 000000A8H.6 DATA     BIT       ES1
*SFR* 000000A8H.1 DATA     BIT       ET0
*SFR* 000000A8H.3 DATA     BIT       ET1
*SFR* 000000A8H.5 DATA     BIT       ET2
*SFR* 000000A8H.0 DATA     BIT       EX0
*SFR* 000000A8H.2 DATA     BIT       EX1
*SFR* 000000D0H.5 DATA     BIT       F0
*SFR* 00000091H   DATA     BYTE      FUNCCR
      0100002EH   CODE     ---       GetIfWDogCauseRST
      01003BBCH   CODE     ---       getSideKeyClickAndHoldEvent
      01003BB5H   CODE     ---       getSideKeyHoldEvent
      01003BA1H   CODE     ---       getSideKeyLongPressEvent
      01003AA7H   CODE     ---       getSideKeyShortPressCount
*SFR* 000000A0H.5 DATA     BIT       GreenLED
      0000001FH   DATA     CHAR      HBcounter
      02000049H   XDATA    CHAR      HoldChangeGearTIM
      01002FFFH   CODE     ---       HoldSwitchGearCmdHandler
*SFR* 00000080H.5 DATA     BIT       HShuntSEL
*SFR* 000000F6H   DATA     BYTE      I2CMBUF
*SFR* 000000F5H   DATA     BYTE      I2CMCR
*SFR* 000000F4H   DATA     BYTE      I2CMSA
*SFR* 000000F5H   DATA     BYTE      I2CMSR
*SFR* 000000F7H   DATA     BYTE      I2CMTP
*SFR* 000000F1H   DATA     BYTE      I2CSADR
*SFR* 000000F3H   DATA     BYTE      I2CSBUF
*SFR* 000000F2H   DATA     BYTE      I2CSCR
*SFR* 000000F2H   DATA     BYTE      I2CSSR
*SFR* 000000C8H.6 DATA     BIT       I3FR
*SFR* 000000A8H   DATA     BYTE      IE
*SFR* 00000088H.1 DATA     BIT       IE0
*SFR* 00000088H.3 DATA     BIT       IE1
      02000053H   XDATA    CHAR      InputDetectTIM
      01003395H   CODE     ---       InputFaultDetect
LX51 LINKER/LOCATER V4.66.97.0                                                        11/11/2024  12:36:56  PAGE 14


*SFR* 000000B8H   DATA     BYTE      IP
      00000022H.4 BIT      BIT       IsBatteryAlert
      00000022H.5 BIT      BIT       IsBatteryFault
      00000022H.1 BIT      BIT       IsDisableTurbo
      00000020H.2 BIT      BIT       IsEnableMoonConfigMode
      00000022H.3 BIT      BIT       IsForceLeaveTurbo
      01003B3FH   CODE     ---       IsKeyEventOccurred
      00000020H.3 BIT      BIT       IsLocked
      00000021H.6 BIT      BIT       IsNeedToUploadPWM
      02000040H   XDATA    BYTE      IsNotAllowAsync
      00000020H.1 BIT      BIT       IsRampEnabled
      00000020H.4 BIT      BIT       IsSideLEDCfgMode
      00000021H.3 BIT      BIT       IsT0OVF
      00000020H.5 BIT      BIT       IsTacMode
      00000022H.2 BIT      BIT       IsTempLIMActive
      00000022H.7 BIT      BIT       IsWakupFromSleep
*SFR* 00000088H.0 DATA     BIT       IT0
*SFR* 00000088H.2 DATA     BIT       IT1
      0100366CH   CODE     ---       Key_IRQHandler
*SFR* 000000A0H.3 DATA     BIT       KeyPress
      02000061H   XDATA    BYTE      KeyState
      02000046H   XDATA    BYTE      LastMode
      01003967H   CODE     ---       LED_Init
      0200005FH   XDATA    INT       LEDBrightNess
      01001981H   CODE     ---       LEDControlHandler
      0100388CH   CODE     ---       LEDMgmt_SetBrightness
      01002CEEH   CODE     ---       LEDMgmt_SwitchToPWM
      0000005DH   DATA     BYTE      LEDMode
*SFR* 00000080H.3 DATA     BIT       LShuntSEL
*SFR* 000000FDH   DATA     BYTE      MADRH
*SFR* 000000FCH   DATA     BYTE      MADRL
      010030E5H   CODE     ---       main
      01003A87H   CODE     ---       MarkAsKeyPressed
*SFR* 000000FFH   DATA     BYTE      MCTRL
*SFR* 000000FEH   DATA     BYTE      MDATA
*SFR* 000000FBH   DATA     BYTE      MLOCK
      010039B6H   CODE     ---       ModeFSMInit
      0100333AH   CODE     ---       ModeFSMTIMHandler
      01003DB2H   CONST    ---       ModeSettings
      01000846H   CODE     ---       ModeSwitchFSM
      02000048H   XDATA    BYTE      MoonCfg
      02000044H   XDATA    CHAR      MoonCfgTIM
      010035ECH   CODE     ---       MoonConfigHandler
      01003CFCH   CONST    ---       NTCTableBottom
      01003BD0H   CONST    ---       NTCTableTop
      01001DCBH   CODE     ---       OutputChannel_Calc
      01003BC3H   CODE     ---       OutputChannel_DeInit
      0100375CH   CODE     ---       OutputChannel_Init
      0100125FH   CODE     ---       OutputChannel_TestRun
      010025DCH   CODE     ---       OutputFaultDetect
*SFR* 000000D0H.2 DATA     BIT       OV
*SFR* 000000D0H.0 DATA     BIT       P
*SFR* 00000080H   DATA     BYTE      P0
*SFR* 00000080H.0 DATA     BIT       P00
*SFR* 00000080H.1 DATA     BIT       P01
*SFR* 00000080H.2 DATA     BIT       P02
*SFR* 00000080H.3 DATA     BIT       P03
*SFR* 00000080H.4 DATA     BIT       P04
*SFR* 00000080H.5 DATA     BIT       P05
*SFR* 00000080H.6 DATA     BIT       P06
*SFR* 00000080H.7 DATA     BIT       P07
*SFR* 000000ACH   DATA     BYTE      P0EXTIE
*SFR* 000000B4H   DATA     BYTE      P0EXTIF
*SFR* 0000009AH   DATA     BYTE      P0TRIS
*SFR* 00000090H   DATA     BYTE      P1
LX51 LINKER/LOCATER V4.66.97.0                                                        11/11/2024  12:36:56  PAGE 15


*SFR* 00000090H.0 DATA     BIT       P10
*SFR* 00000090H.1 DATA     BIT       P11
*SFR* 00000090H.2 DATA     BIT       P12
*SFR* 00000090H.3 DATA     BIT       P13
*SFR* 00000090H.4 DATA     BIT       P14
*SFR* 00000090H.5 DATA     BIT       P15
*SFR* 00000090H.6 DATA     BIT       P16
*SFR* 00000090H.7 DATA     BIT       P17
*SFR* 000000ADH   DATA     BYTE      P1EXTIE
*SFR* 000000B5H   DATA     BYTE      P1EXTIF
*SFR* 000000A1H   DATA     BYTE      P1TRIS
*SFR* 000000A0H   DATA     BYTE      P2
*SFR* 000000A0H.0 DATA     BIT       P20
*SFR* 000000A0H.1 DATA     BIT       P21
*SFR* 000000A0H.2 DATA     BIT       P22
*SFR* 000000A0H.3 DATA     BIT       P23
*SFR* 000000A0H.4 DATA     BIT       P24
*SFR* 000000A0H.5 DATA     BIT       P25
*SFR* 000000A0H.6 DATA     BIT       P26
*SFR* 000000A0H.7 DATA     BIT       P27
*SFR* 000000AEH   DATA     BYTE      P2EXTIE
*SFR* 000000B6H   DATA     BYTE      P2EXTIF
*SFR* 000000A2H   DATA     BYTE      P2TRIS
*SFR* 000000B0H   DATA     BYTE      P3
*SFR* 000000B0H.0 DATA     BIT       P30
*SFR* 000000B0H.1 DATA     BIT       P31
*SFR* 000000B0H.2 DATA     BIT       P32
*SFR* 000000B0H.3 DATA     BIT       P33
*SFR* 000000B0H.4 DATA     BIT       P34
*SFR* 000000B0H.5 DATA     BIT       P35
*SFR* 000000B0H.6 DATA     BIT       P36
*SFR* 000000B0H.7 DATA     BIT       P37
*SFR* 000000AFH   DATA     BYTE      P3EXTIE
*SFR* 000000B7H   DATA     BYTE      P3EXTIF
*SFR* 000000A3H   DATA     BYTE      P3TRIS
*SFR* 00000087H   DATA     BYTE      PCON
*SFR* 000000A0H   DATA     BYTE      PPAGE_SFR
*SFR* 000000B8H.4 DATA     BIT       PS0
*SFR* 000000B8H.6 DATA     BIT       PS1
*SFR* 000000D0H   DATA     BYTE      PSW
*SFR* 000000B8H.1 DATA     BIT       PT0
*SFR* 000000B8H.3 DATA     BIT       PT1
*SFR* 000000B8H.5 DATA     BIT       PT2
      010039FFH   CODE     ---       PWM_DeInit
      01003796H   CODE     ---       PWM_ForceSetDuty
      01002E07H   CODE     ---       PWM_Init
      01002237H   CODE     ---       PWM_OutputCtrlHandler
      0200005AH   XDATA    FLOAT     PWMDuty
*SFR* 000000B8H.0 DATA     BIT       PX0
*SFR* 000000B8H.2 DATA     BIT       PX1
      00000055H   DATA     ---       RampCfg
      01002691H   CODE     ---       ReadRampConfig
*SFR* 000000A0H.4 DATA     BIT       RedLED
      010036E6H   CODE     ---       RestoreToMinimumRampCurrent
      01003AE4H   CODE     ---       ReturnToOFFState
*SFR* 00000080H.1 DATA     BIT       RevPGate
*SFR* 00000098H.0 DATA     BIT       RI0
*SFR* 000000CBH   DATA     BYTE      RLDH
*SFR* 000000CAH   DATA     BYTE      RLDL
*SFR* 000000D0H.3 DATA     BIT       RS0
*SFR* 000000D0H.4 DATA     BIT       RS1
      0100216BH   CODE     ---       SaveRampConfig
*SFR* 00000099H   DATA     BYTE      SBUF
*SFR* 00000099H   DATA     BYTE      SBUF0
*SFR* 000000EBH   DATA     BYTE      SBUF1
LX51 LINKER/LOCATER V4.66.97.0                                                        11/11/2024  12:36:56  PAGE 16


*SFR* 00000098H   DATA     BYTE      SCON0
*SFR* 000000EAH   DATA     BYTE      SCON1
      0100398FH   CODE     ---       SetSystemHBTimer
      010031B9H   CODE     ---       SideKey_Int_Callback
      010029E5H   CODE     ---       SideKey_LogicHandler
      010037CBH   CODE     ---       SideKey_TIM_Callback
      010034D9H   CODE     ---       SideKeyInit
      01003150H   CODE     ---       SideKeyLEDBriAdjHandler
      01002D7BH   CODE     ---       SleepMgmt
      0000004CH   DATA     INT       SleepTimer
      0200004BH   XDATA    CHAR      SOSTIM
*SFR* 00000081H   DATA     BYTE      SP
*SFR* 000000ECH   DATA     BYTE      SPCR
*SFR* 000000EEH   DATA     BYTE      SPDR
*SFR* 000000EDH   DATA     BYTE      SPSR
*SFR* 000000EFH   DATA     BYTE      SSCR
      00000021H.5 BIT      BIT       StrobeFlag
      00000021H.4 BIT      BIT       SysHBFlag
      01000047H   CODE     ---       SystemTelemHandler
*SFR* 000000C8H.2 DATA     BIT       T2CM
*SFR* 000000C8H   DATA     BYTE      T2CON
*SFR* 000000C8H.0 DATA     BIT       T2I0
*SFR* 000000C8H.1 DATA     BIT       T2I1
*SFR* 000000CFH   DATA     BYTE      T2IE
*SFR* 000000C9H   DATA     BYTE      T2IF
*SFR* 000000C8H.7 DATA     BIT       T2PS
*SFR* 000000C8H.3 DATA     BIT       T2R0
*SFR* 000000C8H.4 DATA     BIT       T2R1
*SFR* 000000D2H   DATA     BYTE      T34MOD
*SFR* 00000096H   DATA     BYTE      TA
*SFR* 00000088H   DATA     BYTE      TCON
*SFR* 00000088H.5 DATA     BIT       TF0
*SFR* 00000088H.7 DATA     BIT       TF1
*SFR* 0000008CH   DATA     BYTE      TH0
*SFR* 0000008DH   DATA     BYTE      TH1
*SFR* 000000CDH   DATA     BYTE      TH2
*SFR* 000000DBH   DATA     BYTE      TH3
*SFR* 000000E3H   DATA     BYTE      TH4
      01001681H   CODE     ---       ThermalCalcProcess
*SFR* 00000098H.1 DATA     BIT       TI0
      01003BCAH   CODE     ---       Timer0_IRQHandler
      0100348EH   CODE     ---       Timer2_IRQHandler
*SFR* 0000008AH   DATA     BYTE      TL0
*SFR* 0000008BH   DATA     BYTE      TL1
*SFR* 000000CCH   DATA     BYTE      TL2
*SFR* 000000DAH   DATA     BYTE      TL3
*SFR* 000000E2H   DATA     BYTE      TL4
*SFR* 00000089H   DATA     BYTE      TMOD
*SFR* 00000088H.4 DATA     BIT       TR0
*SFR* 00000088H.6 DATA     BIT       TR1
      01003BACH   CODE     ---       TriggerVshowDisplay
*SFR* 00000098H.2 DATA     BIT       U0RB8
*SFR* 00000098H.4 DATA     BIT       U0REN
*SFR* 00000098H.7 DATA     BIT       U0SM0
*SFR* 00000098H.6 DATA     BIT       U0SM1
*SFR* 00000098H.5 DATA     BIT       U0SM2
*SFR* 00000098H.3 DATA     BIT       U0TB8
      0200004FH   XDATA    FLOAT     VBattBeforeTurbo
      02000020H   XDATA    CHAR      VbattCellCount
      01003E15H   CONST    ---       VendorString
      0200001EH   XDATA    BYTE      VshowFSMState
*SFR* 00000097H   DATA     BYTE      WDCON
      01003B52H   CODE     ---       WDog_DeInit
      01003B62H   CODE     ---       WDog_Feed
      0100000EH   CODE     ---       WDog_Init
LX51 LINKER/LOCATER V4.66.97.0                                                        11/11/2024  12:36:56  PAGE 17


*SFR* 000000BDH   DATA     BYTE      WUTCRH
*SFR* 000000BCH   DATA     BYTE      WUTCRL



SYMBOL TABLE OF MODULE:  .\Objects\XRLite (?C_STARTUP)

      VALUE       REP       CLASS    TYPE      SYMBOL NAME
      ====================================================
      ---         MODULE    ---      ---       ?C_STARTUP
      01000000H   PUBLIC    CODE     NEAR LAB  ?C_STARTUP
      000000E0H   SFRSYM    DATA     BYTE      ACC
      000000F0H   SFRSYM    DATA     BYTE      B
      00000083H   SFRSYM    DATA     BYTE      DPH
      00000082H   SFRSYM    DATA     BYTE      DPL
      000000A0H   SFRSYM    DATA     BYTE      PPAGE_SFR
      00000081H   SFRSYM    DATA     BYTE      SP
      00000000H   SYMBOL    NUMBER   ---       IBPSTACK
      00000100H   SYMBOL    NUMBER   ---       IBPSTACKTOP
      00000100H   SYMBOL    NUMBER   ---       IDATALEN
      01002B2AH   SYMBOL    CODE     NEAR LAB  IDATALOOP
      00000000H   SYMBOL    NUMBER   ---       PBPSTACK
      00000100H   SYMBOL    NUMBER   ---       PBPSTACKTOP
      00000000H   SYMBOL    NUMBER   ---       PDATALEN
      00000000H   SYMBOL    NUMBER   ---       PDATASTART
      00000000H   SYMBOL    NUMBER   ---       PPAGE
      00000000H   SYMBOL    NUMBER   ---       PPAGEENABLE
      01002B27H   SYMBOL    CODE     NEAR LAB  STARTUP1
      00000000H   SYMBOL    NUMBER   ---       XBPSTACK
      00010000H   SYMBOL    NUMBER   ---       XBPSTACKTOP
      00000400H   SYMBOL    NUMBER   ---       XDATALEN
      01002B35H   SYMBOL    CODE     NEAR LAB  XDATALOOP
      00000000H   SYMBOL    NUMBER   ---       XDATASTART

      01000000H   BLOCK     CODE     NEAR LAB  LVL=0
      01000000H   LINE      CODE     ---       #126
      ---         BLOCKEND  ---      ---       LVL=0

      01002B27H   BLOCK     CODE     NEAR LAB  LVL=0
      01002B27H   LINE      CODE     ---       #133
      01002B29H   LINE      CODE     ---       #134
      01002B2AH   LINE      CODE     ---       #135
      01002B2BH   LINE      CODE     ---       #136
      01002B2DH   LINE      CODE     ---       #140
      01002B30H   LINE      CODE     ---       #141
      01002B32H   LINE      CODE     ---       #145
      01002B34H   LINE      CODE     ---       #147
      01002B35H   LINE      CODE     ---       #148
      01002B36H   LINE      CODE     ---       #149
      01002B37H   LINE      CODE     ---       #150
      01002B39H   LINE      CODE     ---       #151
      01002B3BH   LINE      CODE     ---       #185
      01002B3EH   LINE      CODE     ---       #196
      ---         BLOCKEND  ---      ---       LVL=0

      ---         MODULE    ---      ---       MAIN
      0100366CH   PUBLIC    CODE     ---       Key_IRQHandler
      010030E5H   PUBLIC    CODE     ---       main
      000000C8H.0 SFRSYM    DATA     BIT       T2I0
      000000C3H   SFRSYM    DATA     BYTE      CCH1
      00000080H   SFRSYM    DATA     BYTE      P0
      000000C8H.1 SFRSYM    DATA     BIT       T2I1
      000000C5H   SFRSYM    DATA     BYTE      CCH2
      00000090H   SFRSYM    DATA     BYTE      P1
      000000C7H   SFRSYM    DATA     BYTE      CCH3
LX51 LINKER/LOCATER V4.66.97.0                                                        11/11/2024  12:36:56  PAGE 18


      000000ACH   SFRSYM    DATA     BYTE      P0EXTIE
      000000A0H   SFRSYM    DATA     BYTE      P2
      000000B4H   SFRSYM    DATA     BYTE      P0EXTIF
      000000B0H   SFRSYM    DATA     BYTE      P3
      000000ADH   SFRSYM    DATA     BYTE      P1EXTIE
      000000D0H.6 SFRSYM    DATA     BIT       AC
      000000FFH   SFRSYM    DATA     BYTE      MCTRL
      000000C2H   SFRSYM    DATA     BYTE      CCL1
      000000B5H   SFRSYM    DATA     BYTE      P1EXTIF
      000000AEH   SFRSYM    DATA     BYTE      P2EXTIE
      000000C4H   SFRSYM    DATA     BYTE      CCL2
      000000B6H   SFRSYM    DATA     BYTE      P2EXTIF
      000000AFH   SFRSYM    DATA     BYTE      P3EXTIE
      000000A8H.7 SFRSYM    DATA     BIT       EA
      000000C6H   SFRSYM    DATA     BYTE      CCL3
      000000B7H   SFRSYM    DATA     BYTE      P3EXTIF
      000000AAH   SFRSYM    DATA     BYTE      EIE2
      000000B2H   SFRSYM    DATA     BYTE      EIF2
      000000C8H.3 SFRSYM    DATA     BIT       T2R0
      000000C8H.4 SFRSYM    DATA     BIT       T2R1
      00000083H   SFRSYM    DATA     BYTE      DPH0
      000000A8H   SFRSYM    DATA     BYTE      IE
      00000085H   SFRSYM    DATA     BYTE      DPH1
      000000B9H   SFRSYM    DATA     BYTE      EIP1
      000000BAH   SFRSYM    DATA     BYTE      EIP2
      00000082H   SFRSYM    DATA     BYTE      DPL0
      00000084H   SFRSYM    DATA     BYTE      DPL1
      000000C8H.6 SFRSYM    DATA     BIT       I3FR
      000000CFH   SFRSYM    DATA     BYTE      T2IE
      00000096H   SFRSYM    DATA     BYTE      TA
      000000C9H   SFRSYM    DATA     BYTE      T2IF
      000000C8H.2 SFRSYM    DATA     BIT       T2CM
      000000DFH   SFRSYM    DATA     BYTE      ADCON0
      000000DEH   SFRSYM    DATA     BYTE      ADCON1
      000000E9H   SFRSYM    DATA     BYTE      ADCON2
      000000B8H   SFRSYM    DATA     BYTE      IP
      000000CEH   SFRSYM    DATA     BYTE      CCEN
      000000D0H.7 SFRSYM    DATA     BIT       CY
      000000D2H   SFRSYM    DATA     BYTE      T34MOD
      00000093H   SFRSYM    DATA     BYTE      DPX0
      00000095H   SFRSYM    DATA     BYTE      DPX1
      000000F4H   SFRSYM    DATA     BYTE      I2CMSA
      000000F5H   SFRSYM    DATA     BYTE      I2CMCR
      00000081H   SFRSYM    DATA     BYTE      SP
      000000D0H.2 SFRSYM    DATA     BIT       OV
      000000F2H   SFRSYM    DATA     BYTE      I2CSCR
      000000C8H.7 SFRSYM    DATA     BIT       T2PS
      000000D1H   SFRSYM    DATA     BYTE      ADCMPC
      000000CBH   SFRSYM    DATA     BYTE      RLDH
      000000D5H   SFRSYM    DATA     BYTE      ADCMPH
      000000CAH   SFRSYM    DATA     BYTE      RLDL
      00000080H.0 SFRSYM    DATA     BIT       P00
      00000090H.0 SFRSYM    DATA     BIT       P10
      00000080H.1 SFRSYM    DATA     BIT       P01
      000000F7H   SFRSYM    DATA     BYTE      I2CMTP
      00000099H   SFRSYM    DATA     BYTE      SBUF
      00000087H   SFRSYM    DATA     BYTE      PCON
      000000A0H.0 SFRSYM    DATA     BIT       P20
      00000090H.1 SFRSYM    DATA     BIT       P11
      00000080H.2 SFRSYM    DATA     BIT       P02
      000000F5H   SFRSYM    DATA     BYTE      I2CMSR
      000000B0H.0 SFRSYM    DATA     BIT       P30
      000000A0H.1 SFRSYM    DATA     BIT       P21
      00000090H.2 SFRSYM    DATA     BIT       P12
      00000080H.3 SFRSYM    DATA     BIT       P03
LX51 LINKER/LOCATER V4.66.97.0                                                        11/11/2024  12:36:56  PAGE 19


      000000D4H   SFRSYM    DATA     BYTE      ADCMPL
      000000B0H.1 SFRSYM    DATA     BIT       P31
      000000A0H.2 SFRSYM    DATA     BIT       P22
      00000090H.3 SFRSYM    DATA     BIT       P13
      00000080H.4 SFRSYM    DATA     BIT       P04
      000000B0H.2 SFRSYM    DATA     BIT       P32
      000000A0H.3 SFRSYM    DATA     BIT       P23
      00000090H.4 SFRSYM    DATA     BIT       P14
      00000080H.5 SFRSYM    DATA     BIT       P05
      00000089H   SFRSYM    DATA     BYTE      TMOD
      00000088H   SFRSYM    DATA     BYTE      TCON
      000000B0H.3 SFRSYM    DATA     BIT       P33
      000000A0H.4 SFRSYM    DATA     BIT       P24
      00000090H.5 SFRSYM    DATA     BIT       P15
      00000080H.6 SFRSYM    DATA     BIT       P06
      000000B0H.4 SFRSYM    DATA     BIT       P34
      000000A0H.5 SFRSYM    DATA     BIT       P25
      00000090H.6 SFRSYM    DATA     BIT       P16
      00000080H.7 SFRSYM    DATA     BIT       P07
      000000B0H.5 SFRSYM    DATA     BIT       P35
      000000A0H.6 SFRSYM    DATA     BIT       P26
      00000090H.7 SFRSYM    DATA     BIT       P17
      000000F2H   SFRSYM    DATA     BYTE      I2CSSR
      000000B0H.6 SFRSYM    DATA     BIT       P36
      000000A0H.7 SFRSYM    DATA     BIT       P27
      000000ECH   SFRSYM    DATA     BYTE      SPCR
      000000DDH   SFRSYM    DATA     BYTE      ADRESH
      000000B0H.7 SFRSYM    DATA     BIT       P37
      000000EEH   SFRSYM    DATA     BYTE      SPDR
      000000EFH   SFRSYM    DATA     BYTE      SSCR
      000000D3H   SFRSYM    DATA     BYTE      ADDLYL
      000000DCH   SFRSYM    DATA     BYTE      ADRESL
      00000088H.1 SFRSYM    DATA     BIT       IE0
      00000088H.3 SFRSYM    DATA     BIT       IE1
      0000008FH   SFRSYM    DATA     BYTE      CLKDIV
      000000F0H   SFRSYM    DATA     BYTE      B
      00000091H   SFRSYM    DATA     BYTE      FUNCCR
      0000009AH   SFRSYM    DATA     BYTE      P0TRIS
      000000A1H   SFRSYM    DATA     BYTE      P1TRIS
      000000A2H   SFRSYM    DATA     BYTE      P2TRIS
      000000E0H   SFRSYM    DATA     BYTE      ACC
      000000A3H   SFRSYM    DATA     BYTE      P3TRIS
      000000A8H.4 SFRSYM    DATA     BIT       ES0
      000000A8H.6 SFRSYM    DATA     BIT       ES1
      000000A8H.1 SFRSYM    DATA     BIT       ET0
      000000EDH   SFRSYM    DATA     BYTE      SPSR
      000000A8H.3 SFRSYM    DATA     BIT       ET1
      00000088H.5 SFRSYM    DATA     BIT       TF0
      000000A8H.5 SFRSYM    DATA     BIT       ET2
      00000098H.0 SFRSYM    DATA     BIT       RI0
      00000088H.7 SFRSYM    DATA     BIT       TF1
      0000008CH   SFRSYM    DATA     BYTE      TH0
      000000A8H.0 SFRSYM    DATA     BIT       EX0
      00000098H.1 SFRSYM    DATA     BIT       TI0
      00000088H.0 SFRSYM    DATA     BIT       IT0
      0000008DH   SFRSYM    DATA     BYTE      TH1
      000000A8H.2 SFRSYM    DATA     BIT       EX1
      00000088H.2 SFRSYM    DATA     BIT       IT1
      000000CDH   SFRSYM    DATA     BYTE      TH2
      000000D0H.0 SFRSYM    DATA     BIT       P
      000000DBH   SFRSYM    DATA     BYTE      TH3
      000000E3H   SFRSYM    DATA     BYTE      TH4
      0000008AH   SFRSYM    DATA     BYTE      TL0
      0000008BH   SFRSYM    DATA     BYTE      TL1
      00000098H.2 SFRSYM    DATA     BIT       U0RB8
LX51 LINKER/LOCATER V4.66.97.0                                                        11/11/2024  12:36:56  PAGE 20


      000000CCH   SFRSYM    DATA     BYTE      TL2
      000000B8H.4 SFRSYM    DATA     BIT       PS0
      000000DAH   SFRSYM    DATA     BYTE      TL3
      000000BFH   SFRSYM    DATA     BYTE      BUZCON
      000000B8H.6 SFRSYM    DATA     BIT       PS1
      000000B8H.1 SFRSYM    DATA     BIT       PT0
      00000098H.3 SFRSYM    DATA     BIT       U0TB8
      000000E2H   SFRSYM    DATA     BYTE      TL4
      000000D0H.3 SFRSYM    DATA     BIT       RS0
      000000B8H.3 SFRSYM    DATA     BIT       PT1
      000000D0H.4 SFRSYM    DATA     BIT       RS1
      000000B8H.5 SFRSYM    DATA     BIT       PT2
      00000098H.7 SFRSYM    DATA     BIT       U0SM0
      00000088H.4 SFRSYM    DATA     BIT       TR0
      000000BEH   SFRSYM    DATA     BYTE      BUZDIV
      00000098H.6 SFRSYM    DATA     BIT       U0SM1
      00000088H.6 SFRSYM    DATA     BIT       TR1
      000000B8H.0 SFRSYM    DATA     BIT       PX0
      00000098H.5 SFRSYM    DATA     BIT       U0SM2
      000000B8H.2 SFRSYM    DATA     BIT       PX1
      000000BDH   SFRSYM    DATA     BYTE      WUTCRH
      00000099H   SFRSYM    DATA     BYTE      SBUF0
      000000EBH   SFRSYM    DATA     BYTE      SBUF1
      000000BCH   SFRSYM    DATA     BYTE      WUTCRL
      00000098H   SFRSYM    DATA     BYTE      SCON0
      000000EAH   SFRSYM    DATA     BYTE      SCON1
      000000C8H   SFRSYM    DATA     BYTE      T2CON
      00000086H   SFRSYM    DATA     BYTE      DPS
      000000FEH   SFRSYM    DATA     BYTE      MDATA
      000000F6H   SFRSYM    DATA     BYTE      I2CMBUF
      000000F1H   SFRSYM    DATA     BYTE      I2CSADR
      00000098H.4 SFRSYM    DATA     BIT       U0REN
      000000C8H.5 SFRSYM    DATA     BIT       CAPES
      000000FDH   SFRSYM    DATA     BYTE      MADRH
      0000008EH   SFRSYM    DATA     BYTE      CKCON
      000000F3H   SFRSYM    DATA     BYTE      I2CSBUF
      000000FCH   SFRSYM    DATA     BYTE      MADRL
      000000D0H.5 SFRSYM    DATA     BIT       F0
      000000FBH   SFRSYM    DATA     BYTE      MLOCK
      000000D0H   SFRSYM    DATA     BYTE      PSW
      00000097H   SFRSYM    DATA     BYTE      WDCON

      010030E5H   BLOCK     CODE     ---       LVL=0
      010030E5H   LINE      CODE     ---       #23
      010030E5H   LINE      CODE     ---       #24
      010030E5H   LINE      CODE     ---       #26
      010030E8H   LINE      CODE     ---       #27
      010030EDH   LINE      CODE     ---       #29
      010030F0H   LINE      CODE     ---       #30
      010030F3H   LINE      CODE     ---       #31
      010030F6H   LINE      CODE     ---       #32
      010030F9H   LINE      CODE     ---       #33
      010030FCH   LINE      CODE     ---       #34
      010030FFH   LINE      CODE     ---       #35
      01003102H   LINE      CODE     ---       #36
      01003105H   LINE      CODE     ---       #37
      01003108H   LINE      CODE     ---       #38
      0100310BH   LINE      CODE     ---       #39
      0100310EH   LINE      CODE     ---       #40
      01003111H   LINE      CODE     ---       #41
      01003116H   LINE      CODE     ---       #43
      01003116H   LINE      CODE     ---       #44
      01003116H   LINE      CODE     ---       #46
      01003119H   LINE      CODE     ---       #47
      0100311CH   LINE      CODE     ---       #48
LX51 LINKER/LOCATER V4.66.97.0                                                        11/11/2024  12:36:56  PAGE 21


      0100311FH   LINE      CODE     ---       #49
      01003122H   LINE      CODE     ---       #50
      01003125H   LINE      CODE     ---       #51
      01003128H   LINE      CODE     ---       #52
      0100312BH   LINE      CODE     ---       #54
      0100312EH   LINE      CODE     ---       #55
      01003130H   LINE      CODE     ---       #56
      01003133H   LINE      CODE     ---       #57
      01003136H   LINE      CODE     ---       #58
      01003139H   LINE      CODE     ---       #59
      0100313CH   LINE      CODE     ---       #60
      0100313FH   LINE      CODE     ---       #61
      01003142H   LINE      CODE     ---       #62
      01003145H   LINE      CODE     ---       #63
      01003148H   LINE      CODE     ---       #64
      0100314BH   LINE      CODE     ---       #65
      0100314EH   LINE      CODE     ---       #66
      ---         BLOCKEND  ---      ---       LVL=0

      0100366CH   BLOCK     CODE     ---       LVL=0
      0100366CH   LINE      CODE     ---       #70
      01003689H   LINE      CODE     ---       #73
      0100368CH   LINE      CODE     ---       #74
      0100368FH   LINE      CODE     ---       #75
      ---         BLOCKEND  ---      ---       LVL=0

      ---         MODULE    ---      ---       GPIO
      01003073H   PUBLIC    CODE     ---       _GPIO_SetMUXMode
      01002BC1H   PUBLIC    CODE     ---       _GPIO_GetExtIntMode
      010032DFH   PUBLIC    CODE     ---       _GPIO_SetExtIntMode
      00000020H.7 PUBLIC    BIT      BIT       ?_GPIO_WriteBit?BIT
      0100246EH   PUBLIC    CODE     ---       _GPIO_WriteBit
      01003A22H   PUBLIC    CODE     ---       _GPIO_DisableInt
      010038B9H   PUBLIC    CODE     ---       _GPIO_CheckIfIntEnabled
      01003AC6H   PUBLIC    CODE     ---       _GPIO_EnableInt
      01000D0CH   PUBLIC    CODE     ---       _GPIO_ConfigGPIOMode
      000000C8H.0 SFRSYM    DATA     BIT       T2I0
      000000C3H   SFRSYM    DATA     BYTE      CCH1
      00000080H   SFRSYM    DATA     BYTE      P0
      000000C8H.1 SFRSYM    DATA     BIT       T2I1
      000000C5H   SFRSYM    DATA     BYTE      CCH2
      00000090H   SFRSYM    DATA     BYTE      P1
      000000C7H   SFRSYM    DATA     BYTE      CCH3
      000000ACH   SFRSYM    DATA     BYTE      P0EXTIE
      000000A0H   SFRSYM    DATA     BYTE      P2
      000000B4H   SFRSYM    DATA     BYTE      P0EXTIF
      000000B0H   SFRSYM    DATA     BYTE      P3
      000000ADH   SFRSYM    DATA     BYTE      P1EXTIE
      000000D0H.6 SFRSYM    DATA     BIT       AC
      000000FFH   SFRSYM    DATA     BYTE      MCTRL
      000000C2H   SFRSYM    DATA     BYTE      CCL1
      000000B5H   SFRSYM    DATA     BYTE      P1EXTIF
      000000AEH   SFRSYM    DATA     BYTE      P2EXTIE
      000000C4H   SFRSYM    DATA     BYTE      CCL2
      000000B6H   SFRSYM    DATA     BYTE      P2EXTIF
      000000AFH   SFRSYM    DATA     BYTE      P3EXTIE
      000000A8H.7 SFRSYM    DATA     BIT       EA
      000000C6H   SFRSYM    DATA     BYTE      CCL3
      000000B7H   SFRSYM    DATA     BYTE      P3EXTIF
      000000AAH   SFRSYM    DATA     BYTE      EIE2
      000000B2H   SFRSYM    DATA     BYTE      EIF2
      000000C8H.3 SFRSYM    DATA     BIT       T2R0
      000000C8H.4 SFRSYM    DATA     BIT       T2R1
      00000083H   SFRSYM    DATA     BYTE      DPH0
      000000A8H   SFRSYM    DATA     BYTE      IE
LX51 LINKER/LOCATER V4.66.97.0                                                        11/11/2024  12:36:56  PAGE 22


      00000085H   SFRSYM    DATA     BYTE      DPH1
      000000B9H   SFRSYM    DATA     BYTE      EIP1
      000000BAH   SFRSYM    DATA     BYTE      EIP2
      00000082H   SFRSYM    DATA     BYTE      DPL0
      00000084H   SFRSYM    DATA     BYTE      DPL1
      000000C8H.6 SFRSYM    DATA     BIT       I3FR
      000000CFH   SFRSYM    DATA     BYTE      T2IE
      00000096H   SFRSYM    DATA     BYTE      TA
      000000C9H   SFRSYM    DATA     BYTE      T2IF
      000000C8H.2 SFRSYM    DATA     BIT       T2CM
      000000DFH   SFRSYM    DATA     BYTE      ADCON0
      000000DEH   SFRSYM    DATA     BYTE      ADCON1
      000000E9H   SFRSYM    DATA     BYTE      ADCON2
      000000B8H   SFRSYM    DATA     BYTE      IP
      000000CEH   SFRSYM    DATA     BYTE      CCEN
      000000D0H.7 SFRSYM    DATA     BIT       CY
      000000D2H   SFRSYM    DATA     BYTE      T34MOD
      00000093H   SFRSYM    DATA     BYTE      DPX0
      00000095H   SFRSYM    DATA     BYTE      DPX1
      000000F4H   SFRSYM    DATA     BYTE      I2CMSA
      000000F5H   SFRSYM    DATA     BYTE      I2CMCR
      00000081H   SFRSYM    DATA     BYTE      SP
      000000D0H.2 SFRSYM    DATA     BIT       OV
      000000F2H   SFRSYM    DATA     BYTE      I2CSCR
      000000C8H.7 SFRSYM    DATA     BIT       T2PS
      000000D1H   SFRSYM    DATA     BYTE      ADCMPC
      000000CBH   SFRSYM    DATA     BYTE      RLDH
      000000D5H   SFRSYM    DATA     BYTE      ADCMPH
      000000CAH   SFRSYM    DATA     BYTE      RLDL
      00000080H.0 SFRSYM    DATA     BIT       P00
      00000090H.0 SFRSYM    DATA     BIT       P10
      00000080H.1 SFRSYM    DATA     BIT       P01
      000000F7H   SFRSYM    DATA     BYTE      I2CMTP
      00000099H   SFRSYM    DATA     BYTE      SBUF
      00000087H   SFRSYM    DATA     BYTE      PCON
      000000A0H.0 SFRSYM    DATA     BIT       P20
      00000090H.1 SFRSYM    DATA     BIT       P11
      00000080H.2 SFRSYM    DATA     BIT       P02
      000000F5H   SFRSYM    DATA     BYTE      I2CMSR
      000000B0H.0 SFRSYM    DATA     BIT       P30
      000000A0H.1 SFRSYM    DATA     BIT       P21
      00000090H.2 SFRSYM    DATA     BIT       P12
      00000080H.3 SFRSYM    DATA     BIT       P03
      000000D4H   SFRSYM    DATA     BYTE      ADCMPL
      000000B0H.1 SFRSYM    DATA     BIT       P31
      000000A0H.2 SFRSYM    DATA     BIT       P22
      00000090H.3 SFRSYM    DATA     BIT       P13
      00000080H.4 SFRSYM    DATA     BIT       P04
      000000B0H.2 SFRSYM    DATA     BIT       P32
      000000A0H.3 SFRSYM    DATA     BIT       P23
      00000090H.4 SFRSYM    DATA     BIT       P14
      00000080H.5 SFRSYM    DATA     BIT       P05
      00000089H   SFRSYM    DATA     BYTE      TMOD
      00000088H   SFRSYM    DATA     BYTE      TCON
      000000B0H.3 SFRSYM    DATA     BIT       P33
      000000A0H.4 SFRSYM    DATA     BIT       P24
      00000090H.5 SFRSYM    DATA     BIT       P15
      00000080H.6 SFRSYM    DATA     BIT       P06
      000000B0H.4 SFRSYM    DATA     BIT       P34
      000000A0H.5 SFRSYM    DATA     BIT       P25
      00000090H.6 SFRSYM    DATA     BIT       P16
      00000080H.7 SFRSYM    DATA     BIT       P07
      000000B0H.5 SFRSYM    DATA     BIT       P35
      000000A0H.6 SFRSYM    DATA     BIT       P26
      00000090H.7 SFRSYM    DATA     BIT       P17
LX51 LINKER/LOCATER V4.66.97.0                                                        11/11/2024  12:36:56  PAGE 23


      000000F2H   SFRSYM    DATA     BYTE      I2CSSR
      000000B0H.6 SFRSYM    DATA     BIT       P36
      000000A0H.7 SFRSYM    DATA     BIT       P27
      000000ECH   SFRSYM    DATA     BYTE      SPCR
      000000DDH   SFRSYM    DATA     BYTE      ADRESH
      000000B0H.7 SFRSYM    DATA     BIT       P37
      000000EEH   SFRSYM    DATA     BYTE      SPDR
      000000EFH   SFRSYM    DATA     BYTE      SSCR
      000000D3H   SFRSYM    DATA     BYTE      ADDLYL
      000000DCH   SFRSYM    DATA     BYTE      ADRESL
      00000088H.1 SFRSYM    DATA     BIT       IE0
      00000088H.3 SFRSYM    DATA     BIT       IE1
      0000008FH   SFRSYM    DATA     BYTE      CLKDIV
      000000F0H   SFRSYM    DATA     BYTE      B
      00000091H   SFRSYM    DATA     BYTE      FUNCCR
      0000009AH   SFRSYM    DATA     BYTE      P0TRIS
      000000A1H   SFRSYM    DATA     BYTE      P1TRIS
      000000A2H   SFRSYM    DATA     BYTE      P2TRIS
      000000E0H   SFRSYM    DATA     BYTE      ACC
      000000A3H   SFRSYM    DATA     BYTE      P3TRIS
      000000A8H.4 SFRSYM    DATA     BIT       ES0
      000000A8H.6 SFRSYM    DATA     BIT       ES1
      000000A8H.1 SFRSYM    DATA     BIT       ET0
      000000EDH   SFRSYM    DATA     BYTE      SPSR
      000000A8H.3 SFRSYM    DATA     BIT       ET1
      00000088H.5 SFRSYM    DATA     BIT       TF0
      000000A8H.5 SFRSYM    DATA     BIT       ET2
      00000098H.0 SFRSYM    DATA     BIT       RI0
      00000088H.7 SFRSYM    DATA     BIT       TF1
      0000008CH   SFRSYM    DATA     BYTE      TH0
      000000A8H.0 SFRSYM    DATA     BIT       EX0
      00000098H.1 SFRSYM    DATA     BIT       TI0
      00000088H.0 SFRSYM    DATA     BIT       IT0
      0000008DH   SFRSYM    DATA     BYTE      TH1
      000000A8H.2 SFRSYM    DATA     BIT       EX1
      00000088H.2 SFRSYM    DATA     BIT       IT1
      000000CDH   SFRSYM    DATA     BYTE      TH2
      000000D0H.0 SFRSYM    DATA     BIT       P
      000000DBH   SFRSYM    DATA     BYTE      TH3
      000000E3H   SFRSYM    DATA     BYTE      TH4
      0000008AH   SFRSYM    DATA     BYTE      TL0
      0000008BH   SFRSYM    DATA     BYTE      TL1
      00000098H.2 SFRSYM    DATA     BIT       U0RB8
      000000CCH   SFRSYM    DATA     BYTE      TL2
      000000B8H.4 SFRSYM    DATA     BIT       PS0
      000000DAH   SFRSYM    DATA     BYTE      TL3
      000000BFH   SFRSYM    DATA     BYTE      BUZCON
      000000B8H.6 SFRSYM    DATA     BIT       PS1
      000000B8H.1 SFRSYM    DATA     BIT       PT0
      00000098H.3 SFRSYM    DATA     BIT       U0TB8
      000000E2H   SFRSYM    DATA     BYTE      TL4
      000000D0H.3 SFRSYM    DATA     BIT       RS0
      000000B8H.3 SFRSYM    DATA     BIT       PT1
      000000D0H.4 SFRSYM    DATA     BIT       RS1
      000000B8H.5 SFRSYM    DATA     BIT       PT2
      00000098H.7 SFRSYM    DATA     BIT       U0SM0
      00000088H.4 SFRSYM    DATA     BIT       TR0
      000000BEH   SFRSYM    DATA     BYTE      BUZDIV
      00000098H.6 SFRSYM    DATA     BIT       U0SM1
      00000088H.6 SFRSYM    DATA     BIT       TR1
      000000B8H.0 SFRSYM    DATA     BIT       PX0
      00000098H.5 SFRSYM    DATA     BIT       U0SM2
      000000B8H.2 SFRSYM    DATA     BIT       PX1
      000000BDH   SFRSYM    DATA     BYTE      WUTCRH
      00000099H   SFRSYM    DATA     BYTE      SBUF0
LX51 LINKER/LOCATER V4.66.97.0                                                        11/11/2024  12:36:56  PAGE 24


      000000EBH   SFRSYM    DATA     BYTE      SBUF1
      000000BCH   SFRSYM    DATA     BYTE      WUTCRL
      00000098H   SFRSYM    DATA     BYTE      SCON0
      000000EAH   SFRSYM    DATA     BYTE      SCON1
      000000C8H   SFRSYM    DATA     BYTE      T2CON
      00000086H   SFRSYM    DATA     BYTE      DPS
      000000FEH   SFRSYM    DATA     BYTE      MDATA
      000000F6H   SFRSYM    DATA     BYTE      I2CMBUF
      000000F1H   SFRSYM    DATA     BYTE      I2CSADR
      00000098H.4 SFRSYM    DATA     BIT       U0REN
      000000C8H.5 SFRSYM    DATA     BIT       CAPES
      000000FDH   SFRSYM    DATA     BYTE      MADRH
      0000008EH   SFRSYM    DATA     BYTE      CKCON
      000000F3H   SFRSYM    DATA     BYTE      I2CSBUF
      000000FCH   SFRSYM    DATA     BYTE      MADRL
      000000D0H.5 SFRSYM    DATA     BIT       F0
      000000FBH   SFRSYM    DATA     BYTE      MLOCK
      000000D0H   SFRSYM    DATA     BYTE      PSW
      00000097H   SFRSYM    DATA     BYTE      WDCON

      01002940H   BLOCK     CODE     ---       LVL=0
      ---         BLOCKEND  ---      ---       LVL=0

      01000D0CH   BLOCK     CODE     ---       LVL=0
      00000028H   SYMBOL    DATA     BYTE      Port
      00000005H   SYMBOL    DATA     BYTE      PinMSK
      00000001H   SYMBOL    DATA     ---       Cfg
      01000D0EH   BLOCK     CODE     NEAR LAB  LVL=1
      00000029H   SYMBOL    DATA     INT       TRISMSK
      0000002BH   SYMBOL    DATA     INT       ODMSK
      0000002DH   SYMBOL    DATA     INT       UPMSK
      0000002FH   SYMBOL    DATA     INT       RDMSK
      00000006H   SYMBOL    DATA     INT       DRMSK
      00000031H   SYMBOL    DATA     INT       SRMSK
      ---         BLOCKEND  ---      ---       LVL=1
      01000D0CH   LINE      CODE     ---       #77
      01000D0EH   LINE      CODE     ---       #78
      01000D0EH   LINE      CODE     ---       #82
      01000D22H   LINE      CODE     ---       #83
      01000D22H   LINE      CODE     ---       #84
      01000D22H   LINE      CODE     ---       #85
      01000D22H   LINE      CODE     ---       #86
      01000D22H   LINE      CODE     ---       #87
      01000D25H   LINE      CODE     ---       #88
      01000D28H   LINE      CODE     ---       #89
      01000D2AH   LINE      CODE     ---       #90
      01000D2AH   LINE      CODE     ---       #91
      01000D2AH   LINE      CODE     ---       #92
      01000D2AH   LINE      CODE     ---       #93
      01000D36H   LINE      CODE     ---       #94
      01000D3EH   LINE      CODE     ---       #95
      01000D40H   LINE      CODE     ---       #96
      01000D40H   LINE      CODE     ---       #97
      01000D40H   LINE      CODE     ---       #98
      01000D40H   LINE      CODE     ---       #99
      01000D4CH   LINE      CODE     ---       #100
      01000D56H   LINE      CODE     ---       #101
      01000D58H   LINE      CODE     ---       #102
      01000D58H   LINE      CODE     ---       #103
      01000D58H   LINE      CODE     ---       #104
      01000D59H   LINE      CODE     ---       #105
      01000D5FH   LINE      CODE     ---       #106
      01000D69H   LINE      CODE     ---       #107
      01000D7EH   LINE      CODE     ---       #108
      01000D7EH   LINE      CODE     ---       #109
LX51 LINKER/LOCATER V4.66.97.0                                                        11/11/2024  12:36:56  PAGE 25


      01000D96H   LINE      CODE     ---       #110
      01000DAAH   LINE      CODE     ---       #112
      01000DC5H   LINE      CODE     ---       #113
      01000DC5H   LINE      CODE     ---       #114
      01000DC5H   LINE      CODE     ---       #115
      01000DD8H   LINE      CODE     ---       #116
      01000DF0H   LINE      CODE     ---       #117
      01000E05H   LINE      CODE     ---       #118
      01000E1AH   LINE      CODE     ---       #119
      01000E30H   LINE      CODE     ---       #120
      01000E47H   LINE      CODE     ---       #121
      01000E48H   LINE      CODE     ---       #122
      01000E48H   LINE      CODE     ---       #123
      01000E5BH   LINE      CODE     ---       #124
      01000E73H   LINE      CODE     ---       #125
      01000E88H   LINE      CODE     ---       #126
      01000E9DH   LINE      CODE     ---       #127
      01000EB3H   LINE      CODE     ---       #128
      01000ECAH   LINE      CODE     ---       #129
      01000ECBH   LINE      CODE     ---       #130
      01000ECBH   LINE      CODE     ---       #131
      01000EDEH   LINE      CODE     ---       #132
      01000EF6H   LINE      CODE     ---       #133
      01000F0BH   LINE      CODE     ---       #134
      01000F20H   LINE      CODE     ---       #135
      01000F36H   LINE      CODE     ---       #136
      01000F4DH   LINE      CODE     ---       #137
      01000F4EH   LINE      CODE     ---       #138
      01000F4EH   LINE      CODE     ---       #139
      01000F61H   LINE      CODE     ---       #140
      01000F79H   LINE      CODE     ---       #141
      01000F8EH   LINE      CODE     ---       #142
      01000FA3H   LINE      CODE     ---       #143
      01000FBCH   LINE      CODE     ---       #144
      01000FD8H   LINE      CODE     ---       #145
      01000FD8H   LINE      CODE     ---       #146
      01000FD8H   LINE      CODE     ---       #147
      ---         BLOCKEND  ---      ---       LVL=0

      01003AC6H   BLOCK     CODE     ---       LVL=0
      00000007H   SYMBOL    DATA     BYTE      Port
      00000005H   SYMBOL    DATA     BYTE      PinMSK
      01003AC6H   LINE      CODE     ---       #161
      01003AC6H   LINE      CODE     ---       #162
      01003AC6H   LINE      CODE     ---       #163
      01003AD4H   LINE      CODE     ---       #164
      01003AD4H   LINE      CODE     ---       #165
      01003AD4H   LINE      CODE     ---       #166
      01003AD7H   LINE      CODE     ---       #167
      01003AD8H   LINE      CODE     ---       #168
      01003AD8H   LINE      CODE     ---       #169
      01003ADBH   LINE      CODE     ---       #170
      01003ADCH   LINE      CODE     ---       #171
      01003ADCH   LINE      CODE     ---       #172
      01003ADFH   LINE      CODE     ---       #173
      01003AE0H   LINE      CODE     ---       #174
      01003AE0H   LINE      CODE     ---       #175
      01003AE3H   LINE      CODE     ---       #176
      01003AE3H   LINE      CODE     ---       #177
      01003AE3H   LINE      CODE     ---       #178
      01003AE3H   LINE      CODE     ---       #179
      01003AE3H   LINE      CODE     ---       #180
      ---         BLOCKEND  ---      ---       LVL=0

      010038B9H   BLOCK     CODE     ---       LVL=0
LX51 LINKER/LOCATER V4.66.97.0                                                        11/11/2024  12:36:56  PAGE 26


      00000007H   SYMBOL    DATA     BYTE      Port
      00000005H   SYMBOL    DATA     BYTE      PinMSK
      010038B9H   LINE      CODE     ---       #193
      010038B9H   LINE      CODE     ---       #194
      010038B9H   LINE      CODE     ---       #195
      010038C7H   LINE      CODE     ---       #196
      010038C7H   LINE      CODE     ---       #197
      010038C7H   LINE      CODE     ---       #198
      010038CEH   LINE      CODE     ---       #199
      010038CEH   LINE      CODE     ---       #200
      010038CEH   LINE      CODE     ---       #201
      010038D5H   LINE      CODE     ---       #202
      010038D5H   LINE      CODE     ---       #203
      010038D5H   LINE      CODE     ---       #204
      010038DCH   LINE      CODE     ---       #205
      010038DCH   LINE      CODE     ---       #206
      010038DCH   LINE      CODE     ---       #207
      010038E3H   LINE      CODE     ---       #208
      010038E3H   LINE      CODE     ---       #209
      010038E3H   LINE      CODE     ---       #211
      010038E4H   LINE      CODE     ---       #212
      ---         BLOCKEND  ---      ---       LVL=0

      01003A22H   BLOCK     CODE     ---       LVL=0
      00000007H   SYMBOL    DATA     BYTE      Port
      00000005H   SYMBOL    DATA     BYTE      PinMSK
      01003A22H   LINE      CODE     ---       #225
      01003A22H   LINE      CODE     ---       #226
      01003A22H   LINE      CODE     ---       #227
      01003A30H   LINE      CODE     ---       #228
      01003A30H   LINE      CODE     ---       #229
      01003A30H   LINE      CODE     ---       #230
      01003A34H   LINE      CODE     ---       #231
      01003A35H   LINE      CODE     ---       #232
      01003A35H   LINE      CODE     ---       #233
      01003A39H   LINE      CODE     ---       #234
      01003A3AH   LINE      CODE     ---       #235
      01003A3AH   LINE      CODE     ---       #236
      01003A3EH   LINE      CODE     ---       #237
      01003A3FH   LINE      CODE     ---       #238
      01003A3FH   LINE      CODE     ---       #239
      01003A43H   LINE      CODE     ---       #240
      01003A43H   LINE      CODE     ---       #241
      01003A43H   LINE      CODE     ---       #242
      01003A43H   LINE      CODE     ---       #243
      01003A43H   LINE      CODE     ---       #244
      ---         BLOCKEND  ---      ---       LVL=0

      0100246EH   BLOCK     CODE     ---       LVL=0
      00000007H   SYMBOL    DATA     BYTE      Port
      00000005H   SYMBOL    DATA     BYTE      PinNum
      00000020H.7 SYMBOL    BIT      BIT       Val
      0100246EH   LINE      CODE     ---       #259
      0100246EH   LINE      CODE     ---       #260
      0100246EH   LINE      CODE     ---       #261
      01002482H   LINE      CODE     ---       #262
      01002482H   LINE      CODE     ---       #263
      01002482H   LINE      CODE     ---       #264
      0100248AH   LINE      CODE     ---       #265
      0100249BH   LINE      CODE     ---       #266
      010024A9H   LINE      CODE     ---       #267
      010024AAH   LINE      CODE     ---       #268
      010024AAH   LINE      CODE     ---       #269
      010024B4H   LINE      CODE     ---       #270
      010024C5H   LINE      CODE     ---       #271
LX51 LINKER/LOCATER V4.66.97.0                                                        11/11/2024  12:36:56  PAGE 27


      010024D3H   LINE      CODE     ---       #272
      010024D4H   LINE      CODE     ---       #273
      010024D4H   LINE      CODE     ---       #274
      010024DEH   LINE      CODE     ---       #275
      010024EFH   LINE      CODE     ---       #276
      010024FDH   LINE      CODE     ---       #277
      010024FEH   LINE      CODE     ---       #278
      010024FEH   LINE      CODE     ---       #279
      01002504H   LINE      CODE     ---       #280
      01002515H   LINE      CODE     ---       #281
      01002525H   LINE      CODE     ---       #282
      01002525H   LINE      CODE     ---       #283
      01002525H   LINE      CODE     ---       #284
      01002525H   LINE      CODE     ---       #285
      ---         BLOCKEND  ---      ---       LVL=0

      010032DFH   BLOCK     CODE     ---       LVL=0
      00000007H   SYMBOL    DATA     BYTE      Port
      00000005H   SYMBOL    DATA     BYTE      PinNum
      00000003H   SYMBOL    DATA     BYTE      Mode
      010032DFH   BLOCK     CODE     NEAR LAB  LVL=1
      00000026H   SYMBOL    DATA     ---       PCFG
      ---         BLOCKEND  ---      ---       LVL=1
      010032DFH   LINE      CODE     ---       #302
      010032DFH   LINE      CODE     ---       #303
      010032DFH   LINE      CODE     ---       #306
      010032E6H   LINE      CODE     ---       #308
      010032F4H   LINE      CODE     ---       #309
      010032F4H   LINE      CODE     ---       #310
      010032F4H   LINE      CODE     ---       #311
      010032F9H   LINE      CODE     ---       #312
      010032FCH   LINE      CODE     ---       #313
      010032FEH   LINE      CODE     ---       #314
      010032FEH   LINE      CODE     ---       #315
      01003308H   LINE      CODE     ---       #316
      0100330BH   LINE      CODE     ---       #317
      0100330DH   LINE      CODE     ---       #318
      0100330DH   LINE      CODE     ---       #319
      01003317H   LINE      CODE     ---       #320
      0100331DH   LINE      CODE     ---       #321
      0100331FH   LINE      CODE     ---       #322
      0100331FH   LINE      CODE     ---       #323
      01003325H   LINE      CODE     ---       #324
      0100332FH   LINE      CODE     ---       #325
      0100332FH   LINE      CODE     ---       #326
      0100332FH   LINE      CODE     ---       #327
      0100332FH   LINE      CODE     ---       #328
      01003339H   LINE      CODE     ---       #329
      ---         BLOCKEND  ---      ---       LVL=0

      01002BC1H   BLOCK     CODE     ---       LVL=0
      00000007H   SYMBOL    DATA     BYTE      Port
      00000005H   SYMBOL    DATA     BYTE      PinNum
      01002BC1H   BLOCK     CODE     NEAR LAB  LVL=1
      00000004H   SYMBOL    DATA     BYTE      flag
      00000002H   SYMBOL    DATA     ---       PCFG
      ---         BLOCKEND  ---      ---       LVL=1
      01002BC1H   LINE      CODE     ---       #347
      01002BC1H   LINE      CODE     ---       #348
      01002BC1H   LINE      CODE     ---       #352
      01002BCFH   LINE      CODE     ---       #353
      01002BCFH   LINE      CODE     ---       #354
      01002BCFH   LINE      CODE     ---       #355
      01002BD6H   LINE      CODE     ---       #356
      01002BD9H   LINE      CODE     ---       #357
LX51 LINKER/LOCATER V4.66.97.0                                                        11/11/2024  12:36:56  PAGE 28


      01002BE5H   LINE      CODE     ---       #358
      01002BE7H   LINE      CODE     ---       #359
      01002BE7H   LINE      CODE     ---       #360
      01002BF3H   LINE      CODE     ---       #361
      01002BF6H   LINE      CODE     ---       #362
      01002C02H   LINE      CODE     ---       #363
      01002C04H   LINE      CODE     ---       #364
      01002C04H   LINE      CODE     ---       #365
      01002C10H   LINE      CODE     ---       #366
      01002C13H   LINE      CODE     ---       #367
      01002C1FH   LINE      CODE     ---       #368
      01002C21H   LINE      CODE     ---       #369
      01002C21H   LINE      CODE     ---       #370
      01002C29H   LINE      CODE     ---       #371
      01002C31H   LINE      CODE     ---       #372
      01002C41H   LINE      CODE     ---       #373
      01002C43H   LINE      CODE     ---       #374
      01002C47H   LINE      CODE     ---       #375
      01002C47H   LINE      CODE     ---       #377
      01002C4DH   LINE      CODE     ---       #378
      01002C57H   LINE      CODE     ---       #379
      ---         BLOCKEND  ---      ---       LVL=0

      01003073H   BLOCK     CODE     ---       LVL=0
      00000007H   SYMBOL    DATA     BYTE      Port
      00000005H   SYMBOL    DATA     BYTE      PinNum
      00000003H   SYMBOL    DATA     BYTE      Mode
      01003073H   BLOCK     CODE     NEAR LAB  LVL=1
      00000028H   SYMBOL    DATA     ---       PCFG
      ---         BLOCKEND  ---      ---       LVL=1
      01003073H   LINE      CODE     ---       #418
      01003073H   LINE      CODE     ---       #419
      01003073H   LINE      CODE     ---       #422
      01003080H   LINE      CODE     ---       #423
      01003091H   LINE      CODE     ---       #425
      0100309FH   LINE      CODE     ---       #426
      0100309FH   LINE      CODE     ---       #427
      0100309FH   LINE      CODE     ---       #428
      010030A4H   LINE      CODE     ---       #429
      010030A7H   LINE      CODE     ---       #430
      010030A9H   LINE      CODE     ---       #431
      010030A9H   LINE      CODE     ---       #432
      010030B3H   LINE      CODE     ---       #433
      010030B6H   LINE      CODE     ---       #434
      010030B8H   LINE      CODE     ---       #435
      010030B8H   LINE      CODE     ---       #436
      010030C2H   LINE      CODE     ---       #437
      010030C8H   LINE      CODE     ---       #438
      010030CAH   LINE      CODE     ---       #439
      010030CAH   LINE      CODE     ---       #440
      010030D0H   LINE      CODE     ---       #441
      010030DAH   LINE      CODE     ---       #442
      010030DAH   LINE      CODE     ---       #443
      010030DAH   LINE      CODE     ---       #444
      010030DAH   LINE      CODE     ---       #445
      010030E4H   LINE      CODE     ---       #446
      ---         BLOCKEND  ---      ---       LVL=0

      ---         MODULE    ---      ---       ADCCFG
      00000009H   PUBLIC    DATA     ---       Data
      02000040H   PUBLIC    XDATA    BYTE      IsNotAllowAsync
      01003E52H   PUBLIC    CONST    ---       ADCChQueue
      01002A89H   PUBLIC    CODE     ---       ADC_Init
      01002742H   PUBLIC    CODE     ---       ADC_DeInit
      01000047H   PUBLIC    CODE     ---       SystemTelemHandler
LX51 LINKER/LOCATER V4.66.97.0                                                        11/11/2024  12:36:56  PAGE 29


      000000C8H.0 SFRSYM    DATA     BIT       T2I0
      000000C3H   SFRSYM    DATA     BYTE      CCH1
      00000080H   SFRSYM    DATA     BYTE      P0
      000000C8H.1 SFRSYM    DATA     BIT       T2I1
      000000C5H   SFRSYM    DATA     BYTE      CCH2
      00000090H   SFRSYM    DATA     BYTE      P1
      000000C7H   SFRSYM    DATA     BYTE      CCH3
      000000ACH   SFRSYM    DATA     BYTE      P0EXTIE
      000000A0H   SFRSYM    DATA     BYTE      P2
      000000B4H   SFRSYM    DATA     BYTE      P0EXTIF
      000000B0H   SFRSYM    DATA     BYTE      P3
      000000ADH   SFRSYM    DATA     BYTE      P1EXTIE
      000000D0H.6 SFRSYM    DATA     BIT       AC
      000000FFH   SFRSYM    DATA     BYTE      MCTRL
      000000C2H   SFRSYM    DATA     BYTE      CCL1
      000000B5H   SFRSYM    DATA     BYTE      P1EXTIF
      000000AEH   SFRSYM    DATA     BYTE      P2EXTIE
      000000C4H   SFRSYM    DATA     BYTE      CCL2
      000000B6H   SFRSYM    DATA     BYTE      P2EXTIF
      000000AFH   SFRSYM    DATA     BYTE      P3EXTIE
      000000A8H.7 SFRSYM    DATA     BIT       EA
      000000C6H   SFRSYM    DATA     BYTE      CCL3
      000000B7H   SFRSYM    DATA     BYTE      P3EXTIF
      000000AAH   SFRSYM    DATA     BYTE      EIE2
      000000B2H   SFRSYM    DATA     BYTE      EIF2
      000000C8H.3 SFRSYM    DATA     BIT       T2R0
      000000C8H.4 SFRSYM    DATA     BIT       T2R1
      00000083H   SFRSYM    DATA     BYTE      DPH0
      000000A8H   SFRSYM    DATA     BYTE      IE
      00000085H   SFRSYM    DATA     BYTE      DPH1
      000000B9H   SFRSYM    DATA     BYTE      EIP1
      000000BAH   SFRSYM    DATA     BYTE      EIP2
      00000082H   SFRSYM    DATA     BYTE      DPL0
      00000084H   SFRSYM    DATA     BYTE      DPL1
      000000C8H.6 SFRSYM    DATA     BIT       I3FR
      000000CFH   SFRSYM    DATA     BYTE      T2IE
      00000096H   SFRSYM    DATA     BYTE      TA
      000000C9H   SFRSYM    DATA     BYTE      T2IF
      000000C8H.2 SFRSYM    DATA     BIT       T2CM
      000000DFH   SFRSYM    DATA     BYTE      ADCON0
      000000DEH   SFRSYM    DATA     BYTE      ADCON1
      000000E9H   SFRSYM    DATA     BYTE      ADCON2
      000000B8H   SFRSYM    DATA     BYTE      IP
      000000CEH   SFRSYM    DATA     BYTE      CCEN
      000000D0H.7 SFRSYM    DATA     BIT       CY
      000000D2H   SFRSYM    DATA     BYTE      T34MOD
      00000093H   SFRSYM    DATA     BYTE      DPX0
      00000095H   SFRSYM    DATA     BYTE      DPX1
      000000F4H   SFRSYM    DATA     BYTE      I2CMSA
      000000F5H   SFRSYM    DATA     BYTE      I2CMCR
      00000081H   SFRSYM    DATA     BYTE      SP
      000000D0H.2 SFRSYM    DATA     BIT       OV
      000000F2H   SFRSYM    DATA     BYTE      I2CSCR
      000000C8H.7 SFRSYM    DATA     BIT       T2PS
      000000D1H   SFRSYM    DATA     BYTE      ADCMPC
      000000CBH   SFRSYM    DATA     BYTE      RLDH
      000000D5H   SFRSYM    DATA     BYTE      ADCMPH
      000000CAH   SFRSYM    DATA     BYTE      RLDL
      00000080H.0 SFRSYM    DATA     BIT       P00
      00000090H.0 SFRSYM    DATA     BIT       P10
      00000080H.1 SFRSYM    DATA     BIT       P01
      000000F7H   SFRSYM    DATA     BYTE      I2CMTP
      00000099H   SFRSYM    DATA     BYTE      SBUF
      00000087H   SFRSYM    DATA     BYTE      PCON
      000000A0H.0 SFRSYM    DATA     BIT       P20
LX51 LINKER/LOCATER V4.66.97.0                                                        11/11/2024  12:36:56  PAGE 30


      00000090H.1 SFRSYM    DATA     BIT       P11
      00000080H.2 SFRSYM    DATA     BIT       P02
      000000F5H   SFRSYM    DATA     BYTE      I2CMSR
      000000B0H.0 SFRSYM    DATA     BIT       P30
      000000A0H.1 SFRSYM    DATA     BIT       P21
      00000090H.2 SFRSYM    DATA     BIT       P12
      00000080H.3 SFRSYM    DATA     BIT       P03
      000000D4H   SFRSYM    DATA     BYTE      ADCMPL
      000000B0H.1 SFRSYM    DATA     BIT       P31
      000000A0H.2 SFRSYM    DATA     BIT       P22
      00000090H.3 SFRSYM    DATA     BIT       P13
      00000080H.4 SFRSYM    DATA     BIT       P04
      000000B0H.2 SFRSYM    DATA     BIT       P32
      000000A0H.3 SFRSYM    DATA     BIT       P23
      00000090H.4 SFRSYM    DATA     BIT       P14
      00000080H.5 SFRSYM    DATA     BIT       P05
      00000089H   SFRSYM    DATA     BYTE      TMOD
      00000088H   SFRSYM    DATA     BYTE      TCON
      000000B0H.3 SFRSYM    DATA     BIT       P33
      000000A0H.4 SFRSYM    DATA     BIT       P24
      00000090H.5 SFRSYM    DATA     BIT       P15
      00000080H.6 SFRSYM    DATA     BIT       P06
      000000B0H.4 SFRSYM    DATA     BIT       P34
      000000A0H.5 SFRSYM    DATA     BIT       P25
      00000090H.6 SFRSYM    DATA     BIT       P16
      00000080H.7 SFRSYM    DATA     BIT       P07
      000000B0H.5 SFRSYM    DATA     BIT       P35
      000000A0H.6 SFRSYM    DATA     BIT       P26
      00000090H.7 SFRSYM    DATA     BIT       P17
      000000F2H   SFRSYM    DATA     BYTE      I2CSSR
      000000B0H.6 SFRSYM    DATA     BIT       P36
      000000A0H.7 SFRSYM    DATA     BIT       P27
      000000ECH   SFRSYM    DATA     BYTE      SPCR
      000000DDH   SFRSYM    DATA     BYTE      ADRESH
      000000B0H.7 SFRSYM    DATA     BIT       P37
      000000EEH   SFRSYM    DATA     BYTE      SPDR
      000000EFH   SFRSYM    DATA     BYTE      SSCR
      000000D3H   SFRSYM    DATA     BYTE      ADDLYL
      000000DCH   SFRSYM    DATA     BYTE      ADRESL
      00000088H.1 SFRSYM    DATA     BIT       IE0
      00000088H.3 SFRSYM    DATA     BIT       IE1
      0000008FH   SFRSYM    DATA     BYTE      CLKDIV
      000000F0H   SFRSYM    DATA     BYTE      B
      00000091H   SFRSYM    DATA     BYTE      FUNCCR
      0000009AH   SFRSYM    DATA     BYTE      P0TRIS
      000000A1H   SFRSYM    DATA     BYTE      P1TRIS
      000000A2H   SFRSYM    DATA     BYTE      P2TRIS
      000000E0H   SFRSYM    DATA     BYTE      ACC
      000000A3H   SFRSYM    DATA     BYTE      P3TRIS
      000000A8H.4 SFRSYM    DATA     BIT       ES0
      000000A8H.6 SFRSYM    DATA     BIT       ES1
      000000A8H.1 SFRSYM    DATA     BIT       ET0
      000000EDH   SFRSYM    DATA     BYTE      SPSR
      000000A8H.3 SFRSYM    DATA     BIT       ET1
      00000088H.5 SFRSYM    DATA     BIT       TF0
      000000A8H.5 SFRSYM    DATA     BIT       ET2
      00000098H.0 SFRSYM    DATA     BIT       RI0
      00000088H.7 SFRSYM    DATA     BIT       TF1
      0000008CH   SFRSYM    DATA     BYTE      TH0
      000000A8H.0 SFRSYM    DATA     BIT       EX0
      00000098H.1 SFRSYM    DATA     BIT       TI0
      00000088H.0 SFRSYM    DATA     BIT       IT0
      0000008DH   SFRSYM    DATA     BYTE      TH1
      000000A8H.2 SFRSYM    DATA     BIT       EX1
      00000088H.2 SFRSYM    DATA     BIT       IT1
LX51 LINKER/LOCATER V4.66.97.0                                                        11/11/2024  12:36:56  PAGE 31


      000000CDH   SFRSYM    DATA     BYTE      TH2
      000000D0H.0 SFRSYM    DATA     BIT       P
      000000DBH   SFRSYM    DATA     BYTE      TH3
      000000E3H   SFRSYM    DATA     BYTE      TH4
      0000008AH   SFRSYM    DATA     BYTE      TL0
      0000008BH   SFRSYM    DATA     BYTE      TL1
      00000098H.2 SFRSYM    DATA     BIT       U0RB8
      000000CCH   SFRSYM    DATA     BYTE      TL2
      000000B8H.4 SFRSYM    DATA     BIT       PS0
      000000DAH   SFRSYM    DATA     BYTE      TL3
      000000BFH   SFRSYM    DATA     BYTE      BUZCON
      000000B8H.6 SFRSYM    DATA     BIT       PS1
      000000B8H.1 SFRSYM    DATA     BIT       PT0
      00000098H.3 SFRSYM    DATA     BIT       U0TB8
      000000E2H   SFRSYM    DATA     BYTE      TL4
      000000D0H.3 SFRSYM    DATA     BIT       RS0
      000000B8H.3 SFRSYM    DATA     BIT       PT1
      000000D0H.4 SFRSYM    DATA     BIT       RS1
      000000B8H.5 SFRSYM    DATA     BIT       PT2
      00000098H.7 SFRSYM    DATA     BIT       U0SM0
      00000088H.4 SFRSYM    DATA     BIT       TR0
      000000BEH   SFRSYM    DATA     BYTE      BUZDIV
      00000098H.6 SFRSYM    DATA     BIT       U0SM1
      00000088H.6 SFRSYM    DATA     BIT       TR1
      000000B8H.0 SFRSYM    DATA     BIT       PX0
      00000098H.5 SFRSYM    DATA     BIT       U0SM2
      000000B8H.2 SFRSYM    DATA     BIT       PX1
      000000BDH   SFRSYM    DATA     BYTE      WUTCRH
      00000099H   SFRSYM    DATA     BYTE      SBUF0
      000000EBH   SFRSYM    DATA     BYTE      SBUF1
      000000BCH   SFRSYM    DATA     BYTE      WUTCRL
      00000098H   SFRSYM    DATA     BYTE      SCON0
      000000EAH   SFRSYM    DATA     BYTE      SCON1
      000000C8H   SFRSYM    DATA     BYTE      T2CON
      00000086H   SFRSYM    DATA     BYTE      DPS
      000000FEH   SFRSYM    DATA     BYTE      MDATA
      000000F6H   SFRSYM    DATA     BYTE      I2CMBUF
      000000F1H   SFRSYM    DATA     BYTE      I2CSADR
      00000098H.4 SFRSYM    DATA     BIT       U0REN
      000000C8H.5 SFRSYM    DATA     BIT       CAPES
      000000FDH   SFRSYM    DATA     BYTE      MADRH
      0000008EH   SFRSYM    DATA     BYTE      CKCON
      000000F3H   SFRSYM    DATA     BYTE      I2CSBUF
      000000FCH   SFRSYM    DATA     BYTE      MADRL
      000000D0H.5 SFRSYM    DATA     BIT       F0
      000000FBH   SFRSYM    DATA     BYTE      MLOCK
      000000D0H   SFRSYM    DATA     BYTE      PSW
      00000097H   SFRSYM    DATA     BYTE      WDCON
      01003B15H   SYMBOL    CODE     ---       ADC_SetVREF
      010027EFH   SYMBOL    CODE     ---       _ADC_ReadBackResult
      010033F0H   SYMBOL    CODE     ---       _ADC_SubmitMisson
      02000034H   SYMBOL    XDATA    ---       ADCConvertQueue
      00000008H   SYMBOL    DATA     BYTE      ADCState
      02000038H   SYMBOL    XDATA    ---       ADCTemp
      01001CC4H   SYMBOL    CODE     ---       ADCEngineHandler
      01001803H   SYMBOL    CODE     ---       _ADC_WriteOutputBuf

      01003281H   BLOCK     CODE     ---       LVL=0
      ---         BLOCKEND  ---      ---       LVL=0

      010033F0H   BLOCK     CODE     ---       LVL=0
      00000003H   SYMBOL    DATA     CHAR      Ch
      010033F0H   LINE      CODE     ---       #18
      010033F2H   LINE      CODE     ---       #19
      010033F2H   LINE      CODE     ---       #21
LX51 LINKER/LOCATER V4.66.97.0                                                        11/11/2024  12:36:56  PAGE 32


      010033F8H   LINE      CODE     ---       #22
      0100340DH   LINE      CODE     ---       #24
      01003417H   LINE      CODE     ---       #25
      01003417H   LINE      CODE     ---       #26
      0100341CH   LINE      CODE     ---       #27
      01003420H   LINE      CODE     ---       #29
      01003429H   LINE      CODE     ---       #30
      0100342CH   LINE      CODE     ---       #31
      0100342FH   LINE      CODE     ---       #32
      01003434H   LINE      CODE     ---       #34
      0100343BH   LINE      CODE     ---       #35
      0100343EH   LINE      CODE     ---       #36
      ---         BLOCKEND  ---      ---       LVL=0

      010027EFH   BLOCK     CODE     ---       LVL=0
      0000002DH   SYMBOL    DATA     ---       Result
      00000030H   SYMBOL    DATA     ---       Queue
      010027EFH   LINE      CODE     ---       #39
      010027F5H   LINE      CODE     ---       #40
      010027F5H   LINE      CODE     ---       #42
      010027FCH   LINE      CODE     ---       #44
      0100280AH   LINE      CODE     ---       #45
      01002838H   LINE      CODE     ---       #46
      01002849H   LINE      CODE     ---       #47
      01002849H   LINE      CODE     ---       #48
      0100284CH   LINE      CODE     ---       #49
      01002850H   LINE      CODE     ---       #50
      01002850H   LINE      CODE     ---       #52
      0100286DH   LINE      CODE     ---       #53
      01002882H   LINE      CODE     ---       #54
      0100288FH   LINE      CODE     ---       #55
      01002894H   LINE      CODE     ---       #56
      01002897H   LINE      CODE     ---       #57
      ---         BLOCKEND  ---      ---       LVL=0

      01003B15H   BLOCK     CODE     ---       LVL=0
      00000020H.7 SYMBOL    BIT      BIT       IsUsingVDD
      01003B15H   LINE      CODE     ---       #60
      01003B15H   LINE      CODE     ---       #61
      01003B15H   LINE      CODE     ---       #62
      01003B18H   LINE      CODE     ---       #63
      01003B19H   LINE      CODE     ---       #64
      01003B25H   LINE      CODE     ---       #65
      01003B26H   LINE      CODE     ---       #66
      01003B29H   LINE      CODE     ---       #67
      ---         BLOCKEND  ---      ---       LVL=0

      01001803H   BLOCK     CODE     ---       LVL=0
      0000002DH   SYMBOL    DATA     INT       ADCResult
      0000002FH   SYMBOL    DATA     CHAR      Ch
      01001809H   BLOCK     CODE     NEAR LAB  LVL=1
      00000030H   SYMBOL    DATA     FLOAT     Buf
      00000034H   SYMBOL    DATA     FLOAT     Rt
      00000038H   SYMBOL    DATA     FLOAT     Vadc
      00000004H   SYMBOL    DATA     DWORD     NTCRES
      ---         BLOCKEND  ---      ---       LVL=1
      01001803H   LINE      CODE     ---       #71
      01001809H   LINE      CODE     ---       #72
      01001809H   LINE      CODE     ---       #77
      01001823H   LINE      CODE     ---       #78
      01001858H   LINE      CODE     ---       #80
      01001871H   LINE      CODE     ---       #81
      01001871H   LINE      CODE     ---       #83
      01001871H   LINE      CODE     ---       #84
      01001894H   LINE      CODE     ---       #85
LX51 LINKER/LOCATER V4.66.97.0                                                        11/11/2024  12:36:56  PAGE 33


      0100189CH   LINE      CODE     ---       #86
      0100189DH   LINE      CODE     ---       #88
      0100189DH   LINE      CODE     ---       #89
      010018A6H   LINE      CODE     ---       #90
      010018B1H   LINE      CODE     ---       #91
      010018D1H   LINE      CODE     ---       #92
      010018F4H   LINE      CODE     ---       #93
      010018F5H   LINE      CODE     ---       #95
      010018F5H   LINE      CODE     ---       #96
      010018FEH   LINE      CODE     ---       #97
      01001909H   LINE      CODE     ---       #98
      01001929H   LINE      CODE     ---       #99
      0100192AH   LINE      CODE     ---       #101
      0100192AH   LINE      CODE     ---       #102
      01001965H   LINE      CODE     ---       #103
      01001972H   LINE      CODE     ---       #104
      01001975H   LINE      CODE     ---       #105
      01001980H   LINE      CODE     ---       #106
      01001980H   LINE      CODE     ---       #107
      01001980H   LINE      CODE     ---       #108
      ---         BLOCKEND  ---      ---       LVL=0

      01001CC4H   BLOCK     CODE     ---       LVL=0
      01001CC4H   BLOCK     CODE     NEAR LAB  LVL=1
      00000028H   SYMBOL    DATA     INT       i
      0000002AH   SYMBOL    DATA     INT       result
      0000002CH   SYMBOL    DATA     CHAR      Ch
      ---         BLOCKEND  ---      ---       LVL=1
      01001CC4H   LINE      CODE     ---       #111
      01001CC4H   LINE      CODE     ---       #112
      01001CC4H   LINE      CODE     ---       #117
      01001CC4H   LINE      CODE     ---       #118
      01001CCCH   LINE      CODE     ---       #119
      01001CE4H   LINE      CODE     ---       #120
      01001CE4H   LINE      CODE     ---       #122
      01001CE4H   LINE      CODE     ---       #123
      01001CE9H   LINE      CODE     ---       #124
      01001D10H   LINE      CODE     ---       #125
      01001D10H   LINE      CODE     ---       #126
      01001D13H   LINE      CODE     ---       #128
      01001D13H   LINE      CODE     ---       #129
      01001D18H   LINE      CODE     ---       #130
      01001D18H   LINE      CODE     ---       #131
      01001D18H   LINE      CODE     ---       #132
      01001D31H   LINE      CODE     ---       #133
      01001D39H   LINE      CODE     ---       #134
      01001D3FH   LINE      CODE     ---       #136
      01001D4CH   LINE      CODE     ---       #137
      01001D4CH   LINE      CODE     ---       #138
      01001D52H   LINE      CODE     ---       #139
      01001D65H   LINE      CODE     ---       #140
      01001D6AH   LINE      CODE     ---       #141
      01001D6DH   LINE      CODE     ---       #142
      01001D6FH   LINE      CODE     ---       #144
      01001D72H   LINE      CODE     ---       #145
      01001D74H   LINE      CODE     ---       #147
      01001D74H   LINE      CODE     ---       #148
      01001D8AH   LINE      CODE     ---       #149
      01001D93H   LINE      CODE     ---       #150
      01001DB3H   LINE      CODE     ---       #151
      01001DB6H   LINE      CODE     ---       #152
      01001DB8H   LINE      CODE     ---       #154
      01001DB8H   LINE      CODE     ---       #156
      01001DBBH   LINE      CODE     ---       #157
      01001DBBH   LINE      CODE     ---       #158
LX51 LINKER/LOCATER V4.66.97.0                                                        11/11/2024  12:36:56  PAGE 34


      01001DBBH   LINE      CODE     ---       #159
      01001DCAH   LINE      CODE     ---       #160
      ---         BLOCKEND  ---      ---       LVL=0

      01000047H   BLOCK     CODE     ---       LVL=0
      01000047H   LINE      CODE     ---       #170
      01000047H   LINE      CODE     ---       #171
      01000047H   LINE      CODE     ---       #173
      ---         BLOCKEND  ---      ---       LVL=0

      01002742H   BLOCK     CODE     ---       LVL=0
      01002742H   BLOCK     CODE     NEAR LAB  LVL=1
      00000025H   SYMBOL    DATA     ---       ADCDeInitCfg
      00000007H   SYMBOL    DATA     CHAR      i
      ---         BLOCKEND  ---      ---       LVL=1
      01002742H   LINE      CODE     ---       #177
      01002742H   LINE      CODE     ---       #178
      01002742H   LINE      CODE     ---       #182
      01002745H   LINE      CODE     ---       #183
      01002749H   LINE      CODE     ---       #185
      0100274EH   LINE      CODE     ---       #186
      01002751H   LINE      CODE     ---       #187
      01002778H   LINE      CODE     ---       #188
      01002782H   LINE      CODE     ---       #189
      01002782H   LINE      CODE     ---       #190
      01002786H   LINE      CODE     ---       #191
      01002788H   LINE      CODE     ---       #193
      01002790H   LINE      CODE     ---       #194
      01002799H   LINE      CODE     ---       #195
      010027A0H   LINE      CODE     ---       #197
      010027A3H   LINE      CODE     ---       #198
      010027A6H   LINE      CODE     ---       #199
      010027A8H   LINE      CODE     ---       #200
      010027ADH   LINE      CODE     ---       #201
      010027B4H   LINE      CODE     ---       #202
      010027C2H   LINE      CODE     ---       #204
      010027CBH   LINE      CODE     ---       #205
      010027D4H   LINE      CODE     ---       #206
      010027DCH   LINE      CODE     ---       #207
      010027E5H   LINE      CODE     ---       #208
      ---         BLOCKEND  ---      ---       LVL=0

      01002A89H   BLOCK     CODE     ---       LVL=0
      01002A89H   BLOCK     CODE     NEAR LAB  LVL=1
      00000025H   SYMBOL    DATA     ---       ADCInitCfg
      ---         BLOCKEND  ---      ---       LVL=1
      01002A89H   LINE      CODE     ---       #211
      01002A89H   LINE      CODE     ---       #212
      01002A89H   LINE      CODE     ---       #215
      01002A8CH   LINE      CODE     ---       #216
      01002A8EH   LINE      CODE     ---       #217
      01002A90H   LINE      CODE     ---       #219
      01002A9CH   LINE      CODE     ---       #220
      01002AA9H   LINE      CODE     ---       #221
      01002AAEH   LINE      CODE     ---       #223
      01002AB7H   LINE      CODE     ---       #224
      01002AC0H   LINE      CODE     ---       #225
      01002AC8H   LINE      CODE     ---       #227
      01002ACBH   LINE      CODE     ---       #228
      01002ACEH   LINE      CODE     ---       #229
      01002AD1H   LINE      CODE     ---       #231
      01002AD8H   LINE      CODE     ---       #232
      01002ADDH   LINE      CODE     ---       #233
      01002AE6H   LINE      CODE     ---       #235
      01002AE9H   LINE      CODE     ---       #236
LX51 LINKER/LOCATER V4.66.97.0                                                        11/11/2024  12:36:56  PAGE 35


      01002AECH   LINE      CODE     ---       #237
      01002AEFH   LINE      CODE     ---       #238
      01002AF1H   LINE      CODE     ---       #239
      01002AF3H   LINE      CODE     ---       #240
      01002AF6H   LINE      CODE     ---       #241
      01002AF9H   LINE      CODE     ---       #242
      01002AFFH   LINE      CODE     ---       #244
      01002B02H   LINE      CODE     ---       #245
      01002B0CH   LINE      CODE     ---       #246
      01002B0CH   LINE      CODE     ---       #247
      01002B10H   LINE      CODE     ---       #248
      01002B12H   LINE      CODE     ---       #249
      01002B15H   LINE      CODE     ---       #251
      01002B18H   LINE      CODE     ---       #252
      01002B1BH   LINE      CODE     ---       #253
      ---         BLOCKEND  ---      ---       LVL=0

      ---         MODULE    ---      ---       DELAY
      00000021H.5 PUBLIC    BIT      BIT       StrobeFlag
      00000021H.4 PUBLIC    BIT      BIT       SysHBFlag
      00000021H.3 PUBLIC    BIT      BIT       IsT0OVF
      0000001FH   PUBLIC    DATA     CHAR      HBcounter
      01002526H   PUBLIC    CODE     ---       _delay_ms
      0100362DH   PUBLIC    CODE     ---       _delay_us
      01003B2AH   PUBLIC    CODE     ---       delay_init
      01003BCAH   PUBLIC    CODE     ---       Timer0_IRQHandler
      0100348EH   PUBLIC    CODE     ---       Timer2_IRQHandler
      010039DCH   PUBLIC    CODE     ---       CheckIfHBTIMIsReady
      00000020H.7 PUBLIC    BIT      BIT       ?SetSystemHBTimer?BIT
      0100398FH   PUBLIC    CODE     ---       SetSystemHBTimer
      000000C8H.0 SFRSYM    DATA     BIT       T2I0
      000000C3H   SFRSYM    DATA     BYTE      CCH1
      00000080H   SFRSYM    DATA     BYTE      P0
      000000C8H.1 SFRSYM    DATA     BIT       T2I1
      000000C5H   SFRSYM    DATA     BYTE      CCH2
      00000090H   SFRSYM    DATA     BYTE      P1
      000000C7H   SFRSYM    DATA     BYTE      CCH3
      000000ACH   SFRSYM    DATA     BYTE      P0EXTIE
      000000A0H   SFRSYM    DATA     BYTE      P2
      000000B4H   SFRSYM    DATA     BYTE      P0EXTIF
      000000B0H   SFRSYM    DATA     BYTE      P3
      000000ADH   SFRSYM    DATA     BYTE      P1EXTIE
      000000D0H.6 SFRSYM    DATA     BIT       AC
      000000FFH   SFRSYM    DATA     BYTE      MCTRL
      000000C2H   SFRSYM    DATA     BYTE      CCL1
      000000B5H   SFRSYM    DATA     BYTE      P1EXTIF
      000000AEH   SFRSYM    DATA     BYTE      P2EXTIE
      000000C4H   SFRSYM    DATA     BYTE      CCL2
      000000B6H   SFRSYM    DATA     BYTE      P2EXTIF
      000000AFH   SFRSYM    DATA     BYTE      P3EXTIE
      000000A8H.7 SFRSYM    DATA     BIT       EA
      000000C6H   SFRSYM    DATA     BYTE      CCL3
      000000B7H   SFRSYM    DATA     BYTE      P3EXTIF
      000000AAH   SFRSYM    DATA     BYTE      EIE2
      000000B2H   SFRSYM    DATA     BYTE      EIF2
      000000C8H.3 SFRSYM    DATA     BIT       T2R0
      000000C8H.4 SFRSYM    DATA     BIT       T2R1
      00000083H   SFRSYM    DATA     BYTE      DPH0
      000000A8H   SFRSYM    DATA     BYTE      IE
      00000085H   SFRSYM    DATA     BYTE      DPH1
      000000B9H   SFRSYM    DATA     BYTE      EIP1
      000000BAH   SFRSYM    DATA     BYTE      EIP2
      00000082H   SFRSYM    DATA     BYTE      DPL0
      00000084H   SFRSYM    DATA     BYTE      DPL1
      000000C8H.6 SFRSYM    DATA     BIT       I3FR
LX51 LINKER/LOCATER V4.66.97.0                                                        11/11/2024  12:36:56  PAGE 36


      000000CFH   SFRSYM    DATA     BYTE      T2IE
      00000096H   SFRSYM    DATA     BYTE      TA
      000000C9H   SFRSYM    DATA     BYTE      T2IF
      000000C8H.2 SFRSYM    DATA     BIT       T2CM
      000000DFH   SFRSYM    DATA     BYTE      ADCON0
      000000DEH   SFRSYM    DATA     BYTE      ADCON1
      000000E9H   SFRSYM    DATA     BYTE      ADCON2
      000000B8H   SFRSYM    DATA     BYTE      IP
      000000CEH   SFRSYM    DATA     BYTE      CCEN
      000000D0H.7 SFRSYM    DATA     BIT       CY
      000000D2H   SFRSYM    DATA     BYTE      T34MOD
      00000093H   SFRSYM    DATA     BYTE      DPX0
      00000095H   SFRSYM    DATA     BYTE      DPX1
      000000F4H   SFRSYM    DATA     BYTE      I2CMSA
      000000F5H   SFRSYM    DATA     BYTE      I2CMCR
      00000081H   SFRSYM    DATA     BYTE      SP
      000000D0H.2 SFRSYM    DATA     BIT       OV
      000000F2H   SFRSYM    DATA     BYTE      I2CSCR
      000000C8H.7 SFRSYM    DATA     BIT       T2PS
      000000D1H   SFRSYM    DATA     BYTE      ADCMPC
      000000CBH   SFRSYM    DATA     BYTE      RLDH
      000000D5H   SFRSYM    DATA     BYTE      ADCMPH
      000000CAH   SFRSYM    DATA     BYTE      RLDL
      00000080H.0 SFRSYM    DATA     BIT       P00
      00000090H.0 SFRSYM    DATA     BIT       P10
      00000080H.1 SFRSYM    DATA     BIT       P01
      000000F7H   SFRSYM    DATA     BYTE      I2CMTP
      00000099H   SFRSYM    DATA     BYTE      SBUF
      00000087H   SFRSYM    DATA     BYTE      PCON
      000000A0H.0 SFRSYM    DATA     BIT       P20
      00000090H.1 SFRSYM    DATA     BIT       P11
      00000080H.2 SFRSYM    DATA     BIT       P02
      000000F5H   SFRSYM    DATA     BYTE      I2CMSR
      000000B0H.0 SFRSYM    DATA     BIT       P30
      000000A0H.1 SFRSYM    DATA     BIT       P21
      00000090H.2 SFRSYM    DATA     BIT       P12
      00000080H.3 SFRSYM    DATA     BIT       P03
      000000D4H   SFRSYM    DATA     BYTE      ADCMPL
      000000B0H.1 SFRSYM    DATA     BIT       P31
      000000A0H.2 SFRSYM    DATA     BIT       P22
      00000090H.3 SFRSYM    DATA     BIT       P13
      00000080H.4 SFRSYM    DATA     BIT       P04
      000000B0H.2 SFRSYM    DATA     BIT       P32
      000000A0H.3 SFRSYM    DATA     BIT       P23
      00000090H.4 SFRSYM    DATA     BIT       P14
      00000080H.5 SFRSYM    DATA     BIT       P05
      00000089H   SFRSYM    DATA     BYTE      TMOD
      00000088H   SFRSYM    DATA     BYTE      TCON
      000000B0H.3 SFRSYM    DATA     BIT       P33
      000000A0H.4 SFRSYM    DATA     BIT       P24
      00000090H.5 SFRSYM    DATA     BIT       P15
      00000080H.6 SFRSYM    DATA     BIT       P06
      000000B0H.4 SFRSYM    DATA     BIT       P34
      000000A0H.5 SFRSYM    DATA     BIT       P25
      00000090H.6 SFRSYM    DATA     BIT       P16
      00000080H.7 SFRSYM    DATA     BIT       P07
      000000B0H.5 SFRSYM    DATA     BIT       P35
      000000A0H.6 SFRSYM    DATA     BIT       P26
      00000090H.7 SFRSYM    DATA     BIT       P17
      000000F2H   SFRSYM    DATA     BYTE      I2CSSR
      000000B0H.6 SFRSYM    DATA     BIT       P36
      000000A0H.7 SFRSYM    DATA     BIT       P27
      000000ECH   SFRSYM    DATA     BYTE      SPCR
      000000DDH   SFRSYM    DATA     BYTE      ADRESH
      000000B0H.7 SFRSYM    DATA     BIT       P37
LX51 LINKER/LOCATER V4.66.97.0                                                        11/11/2024  12:36:56  PAGE 37


      000000EEH   SFRSYM    DATA     BYTE      SPDR
      000000EFH   SFRSYM    DATA     BYTE      SSCR
      000000D3H   SFRSYM    DATA     BYTE      ADDLYL
      000000DCH   SFRSYM    DATA     BYTE      ADRESL
      00000088H.1 SFRSYM    DATA     BIT       IE0
      00000088H.3 SFRSYM    DATA     BIT       IE1
      0000008FH   SFRSYM    DATA     BYTE      CLKDIV
      000000F0H   SFRSYM    DATA     BYTE      B
      00000091H   SFRSYM    DATA     BYTE      FUNCCR
      0000009AH   SFRSYM    DATA     BYTE      P0TRIS
      000000A1H   SFRSYM    DATA     BYTE      P1TRIS
      000000A2H   SFRSYM    DATA     BYTE      P2TRIS
      000000E0H   SFRSYM    DATA     BYTE      ACC
      000000A3H   SFRSYM    DATA     BYTE      P3TRIS
      000000A8H.4 SFRSYM    DATA     BIT       ES0
      000000A8H.6 SFRSYM    DATA     BIT       ES1
      000000A8H.1 SFRSYM    DATA     BIT       ET0
      000000EDH   SFRSYM    DATA     BYTE      SPSR
      000000A8H.3 SFRSYM    DATA     BIT       ET1
      00000088H.5 SFRSYM    DATA     BIT       TF0
      000000A8H.5 SFRSYM    DATA     BIT       ET2
      00000098H.0 SFRSYM    DATA     BIT       RI0
      00000088H.7 SFRSYM    DATA     BIT       TF1
      0000008CH   SFRSYM    DATA     BYTE      TH0
      000000A8H.0 SFRSYM    DATA     BIT       EX0
      00000098H.1 SFRSYM    DATA     BIT       TI0
      00000088H.0 SFRSYM    DATA     BIT       IT0
      0000008DH   SFRSYM    DATA     BYTE      TH1
      000000A8H.2 SFRSYM    DATA     BIT       EX1
      00000088H.2 SFRSYM    DATA     BIT       IT1
      000000CDH   SFRSYM    DATA     BYTE      TH2
      000000D0H.0 SFRSYM    DATA     BIT       P
      000000DBH   SFRSYM    DATA     BYTE      TH3
      000000E3H   SFRSYM    DATA     BYTE      TH4
      0000008AH   SFRSYM    DATA     BYTE      TL0
      0000008BH   SFRSYM    DATA     BYTE      TL1
      00000098H.2 SFRSYM    DATA     BIT       U0RB8
      000000CCH   SFRSYM    DATA     BYTE      TL2
      000000B8H.4 SFRSYM    DATA     BIT       PS0
      000000DAH   SFRSYM    DATA     BYTE      TL3
      000000BFH   SFRSYM    DATA     BYTE      BUZCON
      000000B8H.6 SFRSYM    DATA     BIT       PS1
      000000B8H.1 SFRSYM    DATA     BIT       PT0
      00000098H.3 SFRSYM    DATA     BIT       U0TB8
      000000E2H   SFRSYM    DATA     BYTE      TL4
      000000D0H.3 SFRSYM    DATA     BIT       RS0
      000000B8H.3 SFRSYM    DATA     BIT       PT1
      000000D0H.4 SFRSYM    DATA     BIT       RS1
      000000B8H.5 SFRSYM    DATA     BIT       PT2
      00000098H.7 SFRSYM    DATA     BIT       U0SM0
      00000088H.4 SFRSYM    DATA     BIT       TR0
      000000BEH   SFRSYM    DATA     BYTE      BUZDIV
      00000098H.6 SFRSYM    DATA     BIT       U0SM1
      00000088H.6 SFRSYM    DATA     BIT       TR1
      000000B8H.0 SFRSYM    DATA     BIT       PX0
      00000098H.5 SFRSYM    DATA     BIT       U0SM2
      000000B8H.2 SFRSYM    DATA     BIT       PX1
      000000BDH   SFRSYM    DATA     BYTE      WUTCRH
      00000099H   SFRSYM    DATA     BYTE      SBUF0
      000000EBH   SFRSYM    DATA     BYTE      SBUF1
      000000BCH   SFRSYM    DATA     BYTE      WUTCRL
      00000098H   SFRSYM    DATA     BYTE      SCON0
      000000EAH   SFRSYM    DATA     BYTE      SCON1
      000000C8H   SFRSYM    DATA     BYTE      T2CON
      00000086H   SFRSYM    DATA     BYTE      DPS
LX51 LINKER/LOCATER V4.66.97.0                                                        11/11/2024  12:36:56  PAGE 38


      000000FEH   SFRSYM    DATA     BYTE      MDATA
      000000F6H   SFRSYM    DATA     BYTE      I2CMBUF
      000000F1H   SFRSYM    DATA     BYTE      I2CSADR
      00000098H.4 SFRSYM    DATA     BIT       U0REN
      000000C8H.5 SFRSYM    DATA     BIT       CAPES
      000000FDH   SFRSYM    DATA     BYTE      MADRH
      0000008EH   SFRSYM    DATA     BYTE      CKCON
      000000F3H   SFRSYM    DATA     BYTE      I2CSBUF
      000000FCH   SFRSYM    DATA     BYTE      MADRL
      000000D0H.5 SFRSYM    DATA     BIT       F0
      000000FBH   SFRSYM    DATA     BYTE      MLOCK
      000000D0H   SFRSYM    DATA     BYTE      PSW
      00000097H   SFRSYM    DATA     BYTE      WDCON

      0100398FH   BLOCK     CODE     ---       LVL=0
      00000020H.7 SYMBOL    BIT      BIT       IsEnable
      0100398FH   LINE      CODE     ---       #13
      0100398FH   LINE      CODE     ---       #14
      0100398FH   LINE      CODE     ---       #15
      01003993H   LINE      CODE     ---       #16
      01003993H   LINE      CODE     ---       #17
      01003995H   LINE      CODE     ---       #18
      01003999H   LINE      CODE     ---       #20
      01003999H   LINE      CODE     ---       #22
      0100399BH   LINE      CODE     ---       #23
      0100399EH   LINE      CODE     ---       #24
      010039A1H   LINE      CODE     ---       #25
      010039A4H   LINE      CODE     ---       #26
      010039A7H   LINE      CODE     ---       #28
      010039AAH   LINE      CODE     ---       #29
      010039ACH   LINE      CODE     ---       #30
      010039AFH   LINE      CODE     ---       #32
      010039B2H   LINE      CODE     ---       #33
      010039B5H   LINE      CODE     ---       #34
      ---         BLOCKEND  ---      ---       LVL=0

      010039DCH   BLOCK     CODE     ---       LVL=0
      010039DCH   BLOCK     CODE     NEAR LAB  LVL=1
      00000023H   SYMBOL    DATA     INT       retry
      ---         BLOCKEND  ---      ---       LVL=1
      010039DCH   LINE      CODE     ---       #37
      010039DCH   LINE      CODE     ---       #38
      010039DCH   LINE      CODE     ---       #39
      010039E2H   LINE      CODE     ---       #40
      010039E4H   LINE      CODE     ---       #42
      010039E4H   LINE      CODE     ---       #43
      010039EBH   LINE      CODE     ---       #44
      010039EEH   LINE      CODE     ---       #45
      010039F6H   LINE      CODE     ---       #46
      010039F6H   LINE      CODE     ---       #47
      010039FCH   LINE      CODE     ---       #49
      010039FEH   LINE      CODE     ---       #50
      ---         BLOCKEND  ---      ---       LVL=0

      0100348EH   BLOCK     CODE     ---       LVL=0
      0100348EH   LINE      CODE     ---       #53
      010034ABH   LINE      CODE     ---       #55
      010034AEH   LINE      CODE     ---       #57
      010034B0H   LINE      CODE     ---       #58
      010034B2H   LINE      CODE     ---       #59
      010034B6H   LINE      CODE     ---       #60
      010034B9H   LINE      CODE     ---       #62
      010034BBH   LINE      CODE     ---       #63
      010034BEH   LINE      CODE     ---       #64
      ---         BLOCKEND  ---      ---       LVL=0
LX51 LINKER/LOCATER V4.66.97.0                                                        11/11/2024  12:36:56  PAGE 39



      01003BCAH   BLOCK     CODE     ---       LVL=0
      01003BCAH   LINE      CODE     ---       #67
      01003BCAH   LINE      CODE     ---       #69
      01003BCDH   LINE      CODE     ---       #70
      01003BCFH   LINE      CODE     ---       #71
      ---         BLOCKEND  ---      ---       LVL=0

      01003B2AH   BLOCK     CODE     ---       LVL=0
      01003B2AH   LINE      CODE     ---       #74
      01003B2AH   LINE      CODE     ---       #75
      01003B2AH   LINE      CODE     ---       #76
      01003B2DH   LINE      CODE     ---       #77
      01003B30H   LINE      CODE     ---       #78
      01003B33H   LINE      CODE     ---       #79
      01003B36H   LINE      CODE     ---       #80
      01003B38H   LINE      CODE     ---       #81
      01003B3BH   LINE      CODE     ---       #82
      01003B3EH   LINE      CODE     ---       #83
      ---         BLOCKEND  ---      ---       LVL=0

      0100362DH   BLOCK     CODE     ---       LVL=0
      00000004H   SYMBOL    DATA     INT       us
      01003631H   BLOCK     CODE     NEAR LAB  LVL=1
      00000020H.7 SYMBOL    BIT      BIT       IsEA
      ---         BLOCKEND  ---      ---       LVL=1
      0100362DH   LINE      CODE     ---       #85
      01003631H   LINE      CODE     ---       #86
      01003631H   LINE      CODE     ---       #87
      01003635H   LINE      CODE     ---       #88
      01003642H   LINE      CODE     ---       #89
      0100364AH   LINE      CODE     ---       #91
      0100364EH   LINE      CODE     ---       #92
      01003653H   LINE      CODE     ---       #93
      01003656H   LINE      CODE     ---       #95
      01003659H   LINE      CODE     ---       #96
      0100365EH   LINE      CODE     ---       #98
      01003661H   LINE      CODE     ---       #99
      01003668H   LINE      CODE     ---       #100
      0100366BH   LINE      CODE     ---       #101
      ---         BLOCKEND  ---      ---       LVL=0

      01002526H   BLOCK     CODE     ---       LVL=0
      0000002FH   SYMBOL    DATA     INT       ms
      0100252AH   BLOCK     CODE     NEAR LAB  LVL=1
      00000031H   SYMBOL    DATA     DWORD     CNT
      00000035H   SYMBOL    DATA     INT       repcounter
      ---         BLOCKEND  ---      ---       LVL=1
      01002526H   LINE      CODE     ---       #104
      0100252AH   LINE      CODE     ---       #105
      0100252AH   LINE      CODE     ---       #107
      0100252FH   LINE      CODE     ---       #109
      01002538H   LINE      CODE     ---       #111
      01002538H   LINE      CODE     ---       #112
      01002540H   LINE      CODE     ---       #113
      0100255CH   LINE      CODE     ---       #114
      0100257DH   LINE      CODE     ---       #115
      0100257DH   LINE      CODE     ---       #116
      01002592H   LINE      CODE     ---       #117
      010025A9H   LINE      CODE     ---       #120
      010025A9H   LINE      CODE     ---       #122
      010025B8H   LINE      CODE     ---       #123
      010025BDH   LINE      CODE     ---       #124
      010025BFH   LINE      CODE     ---       #126
      010025C2H   LINE      CODE     ---       #127
LX51 LINKER/LOCATER V4.66.97.0                                                        11/11/2024  12:36:56  PAGE 40


      010025CAH   LINE      CODE     ---       #129
      010025CDH   LINE      CODE     ---       #130
      010025D5H   LINE      CODE     ---       #131
      010025D5H   LINE      CODE     ---       #132
      010025DBH   LINE      CODE     ---       #133
      ---         BLOCKEND  ---      ---       LVL=0

      ---         MODULE    ---      ---       NTC
      01003CFCH   PUBLIC    CONST    ---       NTCTableBottom
      01003BD0H   PUBLIC    CONST    ---       NTCTableTop
      0100208CH   PUBLIC    CODE     ---       _CalcNTCTemp

      01003A44H   BLOCK     CODE     ---       LVL=0
      ---         BLOCKEND  ---      ---       LVL=0

      0100208CH   BLOCK     CODE     ---       LVL=0
      0000003CH   SYMBOL    DATA     ---       IsNTCOK
      0000003FH   SYMBOL    DATA     DWORD     NTCRes
      0100209AH   BLOCK     CODE     NEAR LAB  LVL=1
      00000043H   SYMBOL    DATA     INT       i
      00000045H   SYMBOL    DATA     DWORD     NTCTableValue
      ---         BLOCKEND  ---      ---       LVL=1
      0100208CH   LINE      CODE     ---       #64
      0100209AH   LINE      CODE     ---       #68
      010020A8H   LINE      CODE     ---       #69
      010020A8H   LINE      CODE     ---       #70
      010020ABH   LINE      CODE     ---       #71
      010020AEH   LINE      CODE     ---       #72
      010020AEH   LINE      CODE     ---       #74
      010020B9H   LINE      CODE     ---       #75
      010020B9H   LINE      CODE     ---       #76
      010020BCH   LINE      CODE     ---       #77
      010020BFH   LINE      CODE     ---       #78
      010020BFH   LINE      CODE     ---       #80
      010020C4H   LINE      CODE     ---       #81
      01002107H   LINE      CODE     ---       #82
      0100210CH   LINE      CODE     ---       #83
      0100210CH   LINE      CODE     ---       #84
      0100212FH   LINE      CODE     ---       #85
      0100213CH   LINE      CODE     ---       #86
      01002158H   LINE      CODE     ---       #87
      01002166H   LINE      CODE     ---       #89
      01002169H   LINE      CODE     ---       #90
      0100216AH   LINE      CODE     ---       #91
      ---         BLOCKEND  ---      ---       LVL=0

      ---         MODULE    ---      ---       SIDEKEY
      02000061H   PUBLIC    XDATA    BYTE      KeyState
      0000004CH   PUBLIC    DATA     INT       SleepTimer
      01003BBCH   PUBLIC    CODE     ---       getSideKeyClickAndHoldEvent
      01003BB5H   PUBLIC    CODE     ---       getSideKeyHoldEvent
      01003BA1H   PUBLIC    CODE     ---       getSideKeyLongPressEvent
      00000020H.7 PUBLIC    BIT      BIT       ?getSideKeyShortPressCount?BIT
      01003AA7H   PUBLIC    CODE     ---       getSideKeyShortPressCount
      010029E5H   PUBLIC    CODE     ---       SideKey_LogicHandler
      01003A87H   PUBLIC    CODE     ---       MarkAsKeyPressed
      010031B9H   PUBLIC    CODE     ---       SideKey_Int_Callback
      010037CBH   PUBLIC    CODE     ---       SideKey_TIM_Callback
      01003B3FH   PUBLIC    CODE     ---       IsKeyEventOccurred
      010034D9H   PUBLIC    CODE     ---       SideKeyInit
      000000C8H.0 SFRSYM    DATA     BIT       T2I0
      000000C3H   SFRSYM    DATA     BYTE      CCH1
      00000080H   SFRSYM    DATA     BYTE      P0
      000000C8H.1 SFRSYM    DATA     BIT       T2I1
      000000C5H   SFRSYM    DATA     BYTE      CCH2
LX51 LINKER/LOCATER V4.66.97.0                                                        11/11/2024  12:36:56  PAGE 41


      00000090H   SFRSYM    DATA     BYTE      P1
      000000C7H   SFRSYM    DATA     BYTE      CCH3
      000000ACH   SFRSYM    DATA     BYTE      P0EXTIE
      000000A0H   SFRSYM    DATA     BYTE      P2
      000000B4H   SFRSYM    DATA     BYTE      P0EXTIF
      000000B0H   SFRSYM    DATA     BYTE      P3
      000000ADH   SFRSYM    DATA     BYTE      P1EXTIE
      000000D0H.6 SFRSYM    DATA     BIT       AC
      000000FFH   SFRSYM    DATA     BYTE      MCTRL
      000000C2H   SFRSYM    DATA     BYTE      CCL1
      000000B5H   SFRSYM    DATA     BYTE      P1EXTIF
      000000AEH   SFRSYM    DATA     BYTE      P2EXTIE
      000000C4H   SFRSYM    DATA     BYTE      CCL2
      000000B6H   SFRSYM    DATA     BYTE      P2EXTIF
      000000AFH   SFRSYM    DATA     BYTE      P3EXTIE
      000000A8H.7 SFRSYM    DATA     BIT       EA
      000000C6H   SFRSYM    DATA     BYTE      CCL3
      000000B7H   SFRSYM    DATA     BYTE      P3EXTIF
      000000AAH   SFRSYM    DATA     BYTE      EIE2
      000000B2H   SFRSYM    DATA     BYTE      EIF2
      000000C8H.3 SFRSYM    DATA     BIT       T2R0
      000000C8H.4 SFRSYM    DATA     BIT       T2R1
      00000083H   SFRSYM    DATA     BYTE      DPH0
      000000A8H   SFRSYM    DATA     BYTE      IE
      00000085H   SFRSYM    DATA     BYTE      DPH1
      000000B9H   SFRSYM    DATA     BYTE      EIP1
      000000BAH   SFRSYM    DATA     BYTE      EIP2
      00000082H   SFRSYM    DATA     BYTE      DPL0
      00000084H   SFRSYM    DATA     BYTE      DPL1
      000000C8H.6 SFRSYM    DATA     BIT       I3FR
      000000CFH   SFRSYM    DATA     BYTE      T2IE
      00000096H   SFRSYM    DATA     BYTE      TA
      000000C9H   SFRSYM    DATA     BYTE      T2IF
      000000C8H.2 SFRSYM    DATA     BIT       T2CM
      000000DFH   SFRSYM    DATA     BYTE      ADCON0
      000000DEH   SFRSYM    DATA     BYTE      ADCON1
      000000E9H   SFRSYM    DATA     BYTE      ADCON2
      000000B8H   SFRSYM    DATA     BYTE      IP
      000000CEH   SFRSYM    DATA     BYTE      CCEN
      000000D0H.7 SFRSYM    DATA     BIT       CY
      000000D2H   SFRSYM    DATA     BYTE      T34MOD
      00000093H   SFRSYM    DATA     BYTE      DPX0
      00000095H   SFRSYM    DATA     BYTE      DPX1
      000000F4H   SFRSYM    DATA     BYTE      I2CMSA
      000000F5H   SFRSYM    DATA     BYTE      I2CMCR
      00000081H   SFRSYM    DATA     BYTE      SP
      000000D0H.2 SFRSYM    DATA     BIT       OV
      000000F2H   SFRSYM    DATA     BYTE      I2CSCR
      000000C8H.7 SFRSYM    DATA     BIT       T2PS
      000000D1H   SFRSYM    DATA     BYTE      ADCMPC
      000000CBH   SFRSYM    DATA     BYTE      RLDH
      000000D5H   SFRSYM    DATA     BYTE      ADCMPH
      000000CAH   SFRSYM    DATA     BYTE      RLDL
      00000080H.0 SFRSYM    DATA     BIT       P00
      00000090H.0 SFRSYM    DATA     BIT       P10
      00000080H.1 SFRSYM    DATA     BIT       P01
      000000F7H   SFRSYM    DATA     BYTE      I2CMTP
      00000099H   SFRSYM    DATA     BYTE      SBUF
      00000087H   SFRSYM    DATA     BYTE      PCON
      000000A0H.0 SFRSYM    DATA     BIT       P20
      00000090H.1 SFRSYM    DATA     BIT       P11
      00000080H.2 SFRSYM    DATA     BIT       P02
      000000F5H   SFRSYM    DATA     BYTE      I2CMSR
      000000B0H.0 SFRSYM    DATA     BIT       P30
      000000A0H.1 SFRSYM    DATA     BIT       P21
LX51 LINKER/LOCATER V4.66.97.0                                                        11/11/2024  12:36:56  PAGE 42


      00000090H.2 SFRSYM    DATA     BIT       P12
      00000080H.3 SFRSYM    DATA     BIT       P03
      000000D4H   SFRSYM    DATA     BYTE      ADCMPL
      000000B0H.1 SFRSYM    DATA     BIT       P31
      000000A0H.2 SFRSYM    DATA     BIT       P22
      00000090H.3 SFRSYM    DATA     BIT       P13
      00000080H.4 SFRSYM    DATA     BIT       P04
      000000B0H.2 SFRSYM    DATA     BIT       P32
      000000A0H.3 SFRSYM    DATA     BIT       P23
      00000090H.4 SFRSYM    DATA     BIT       P14
      00000080H.5 SFRSYM    DATA     BIT       P05
      00000089H   SFRSYM    DATA     BYTE      TMOD
      00000088H   SFRSYM    DATA     BYTE      TCON
      000000B0H.3 SFRSYM    DATA     BIT       P33
      000000A0H.4 SFRSYM    DATA     BIT       P24
      00000090H.5 SFRSYM    DATA     BIT       P15
      00000080H.6 SFRSYM    DATA     BIT       P06
      000000B0H.4 SFRSYM    DATA     BIT       P34
      000000A0H.5 SFRSYM    DATA     BIT       P25
      00000090H.6 SFRSYM    DATA     BIT       P16
      00000080H.7 SFRSYM    DATA     BIT       P07
      000000B0H.5 SFRSYM    DATA     BIT       P35
      000000A0H.6 SFRSYM    DATA     BIT       P26
      00000090H.7 SFRSYM    DATA     BIT       P17
      000000F2H   SFRSYM    DATA     BYTE      I2CSSR
      000000B0H.6 SFRSYM    DATA     BIT       P36
      000000A0H.7 SFRSYM    DATA     BIT       P27
      000000ECH   SFRSYM    DATA     BYTE      SPCR
      000000DDH   SFRSYM    DATA     BYTE      ADRESH
      000000B0H.7 SFRSYM    DATA     BIT       P37
      000000EEH   SFRSYM    DATA     BYTE      SPDR
      000000A0H.3 SFRSYM    DATA     BIT       KeyPress
      000000EFH   SFRSYM    DATA     BYTE      SSCR
      000000D3H   SFRSYM    DATA     BYTE      ADDLYL
      000000DCH   SFRSYM    DATA     BYTE      ADRESL
      00000088H.1 SFRSYM    DATA     BIT       IE0
      00000088H.3 SFRSYM    DATA     BIT       IE1
      0000008FH   SFRSYM    DATA     BYTE      CLKDIV
      000000F0H   SFRSYM    DATA     BYTE      B
      00000091H   SFRSYM    DATA     BYTE      FUNCCR
      0000009AH   SFRSYM    DATA     BYTE      P0TRIS
      000000A1H   SFRSYM    DATA     BYTE      P1TRIS
      000000A2H   SFRSYM    DATA     BYTE      P2TRIS
      000000E0H   SFRSYM    DATA     BYTE      ACC
      000000A3H   SFRSYM    DATA     BYTE      P3TRIS
      000000A8H.4 SFRSYM    DATA     BIT       ES0
      000000A8H.6 SFRSYM    DATA     BIT       ES1
      000000A8H.1 SFRSYM    DATA     BIT       ET0
      000000EDH   SFRSYM    DATA     BYTE      SPSR
      000000A8H.3 SFRSYM    DATA     BIT       ET1
      00000088H.5 SFRSYM    DATA     BIT       TF0
      000000A8H.5 SFRSYM    DATA     BIT       ET2
      00000098H.0 SFRSYM    DATA     BIT       RI0
      00000088H.7 SFRSYM    DATA     BIT       TF1
      0000008CH   SFRSYM    DATA     BYTE      TH0
      000000A8H.0 SFRSYM    DATA     BIT       EX0
      00000098H.1 SFRSYM    DATA     BIT       TI0
      00000088H.0 SFRSYM    DATA     BIT       IT0
      0000008DH   SFRSYM    DATA     BYTE      TH1
      000000A8H.2 SFRSYM    DATA     BIT       EX1
      00000088H.2 SFRSYM    DATA     BIT       IT1
      000000CDH   SFRSYM    DATA     BYTE      TH2
      000000D0H.0 SFRSYM    DATA     BIT       P
      000000DBH   SFRSYM    DATA     BYTE      TH3
      000000E3H   SFRSYM    DATA     BYTE      TH4
LX51 LINKER/LOCATER V4.66.97.0                                                        11/11/2024  12:36:56  PAGE 43


      0000008AH   SFRSYM    DATA     BYTE      TL0
      0000008BH   SFRSYM    DATA     BYTE      TL1
      00000098H.2 SFRSYM    DATA     BIT       U0RB8
      000000CCH   SFRSYM    DATA     BYTE      TL2
      000000B8H.4 SFRSYM    DATA     BIT       PS0
      000000DAH   SFRSYM    DATA     BYTE      TL3
      000000BFH   SFRSYM    DATA     BYTE      BUZCON
      000000B8H.6 SFRSYM    DATA     BIT       PS1
      000000B8H.1 SFRSYM    DATA     BIT       PT0
      00000098H.3 SFRSYM    DATA     BIT       U0TB8
      000000E2H   SFRSYM    DATA     BYTE      TL4
      000000D0H.3 SFRSYM    DATA     BIT       RS0
      000000B8H.3 SFRSYM    DATA     BIT       PT1
      000000D0H.4 SFRSYM    DATA     BIT       RS1
      000000B8H.5 SFRSYM    DATA     BIT       PT2
      00000098H.7 SFRSYM    DATA     BIT       U0SM0
      00000088H.4 SFRSYM    DATA     BIT       TR0
      000000BEH   SFRSYM    DATA     BYTE      BUZDIV
      00000098H.6 SFRSYM    DATA     BIT       U0SM1
      00000088H.6 SFRSYM    DATA     BIT       TR1
      000000B8H.0 SFRSYM    DATA     BIT       PX0
      00000098H.5 SFRSYM    DATA     BIT       U0SM2
      000000B8H.2 SFRSYM    DATA     BIT       PX1
      000000BDH   SFRSYM    DATA     BYTE      WUTCRH
      00000099H   SFRSYM    DATA     BYTE      SBUF0
      000000EBH   SFRSYM    DATA     BYTE      SBUF1
      000000BCH   SFRSYM    DATA     BYTE      WUTCRL
      00000098H   SFRSYM    DATA     BYTE      SCON0
      000000EAH   SFRSYM    DATA     BYTE      SCON1
      000000C8H   SFRSYM    DATA     BYTE      T2CON
      00000086H   SFRSYM    DATA     BYTE      DPS
      000000FEH   SFRSYM    DATA     BYTE      MDATA
      000000F6H   SFRSYM    DATA     BYTE      I2CMBUF
      000000F1H   SFRSYM    DATA     BYTE      I2CSADR
      00000098H.4 SFRSYM    DATA     BIT       U0REN
      000000C8H.5 SFRSYM    DATA     BIT       CAPES
      000000FDH   SFRSYM    DATA     BYTE      MADRH
      0000008EH   SFRSYM    DATA     BYTE      CKCON
      000000F3H   SFRSYM    DATA     BYTE      I2CSBUF
      000000FCH   SFRSYM    DATA     BYTE      MADRL
      000000D0H.5 SFRSYM    DATA     BIT       F0
      000000FBH   SFRSYM    DATA     BYTE      MLOCK
      000000D0H   SFRSYM    DATA     BYTE      PSW
      00000097H   SFRSYM    DATA     BYTE      WDCON
      0000004EH   SYMBOL    DATA     ---       KeyTimer
      00000022H.6 SYMBOL    BIT      BIT       IsKeyPressed
      00000050H   SYMBOL    DATA     ---       Keyevent
      01003AFDH   SYMBOL    CODE     ---       _ClickAndHoldEventHandler

      01000003H   BLOCK     CODE     ---       LVL=0
      ---         BLOCKEND  ---      ---       LVL=0

      010034D9H   BLOCK     CODE     ---       LVL=0
      010034D9H   BLOCK     CODE     NEAR LAB  LVL=1
      00000023H   SYMBOL    DATA     ---       KeyInitCfg
      ---         BLOCKEND  ---      ---       LVL=1
      010034D9H   LINE      CODE     ---       #19
      010034D9H   LINE      CODE     ---       #20
      010034D9H   LINE      CODE     ---       #23
      010034DCH   LINE      CODE     ---       #24
      010034DFH   LINE      CODE     ---       #25
      010034E1H   LINE      CODE     ---       #27
      010034E9H   LINE      CODE     ---       #28
      010034F6H   LINE      CODE     ---       #29
      010034FDH   LINE      CODE     ---       #30
LX51 LINKER/LOCATER V4.66.97.0                                                        11/11/2024  12:36:56  PAGE 44


      01003506H   LINE      CODE     ---       #32
      0100350CH   LINE      CODE     ---       #33
      01003512H   LINE      CODE     ---       #34
      01003515H   LINE      CODE     ---       #35
      01003517H   LINE      CODE     ---       #36
      01003519H   LINE      CODE     ---       #37
      0100351BH   LINE      CODE     ---       #38
      0100351DH   LINE      CODE     ---       #39
      0100351FH   LINE      CODE     ---       #40
      ---         BLOCKEND  ---      ---       LVL=0

      01003B3FH   BLOCK     CODE     ---       LVL=0
      01003B3FH   LINE      CODE     ---       #43
      01003B3FH   LINE      CODE     ---       #44
      01003B3FH   LINE      CODE     ---       #45
      01003B45H   LINE      CODE     ---       #46
      01003B4BH   LINE      CODE     ---       #47
      01003B51H   LINE      CODE     ---       #49
      01003B51H   LINE      CODE     ---       #50
      ---         BLOCKEND  ---      ---       LVL=0

      010037CBH   BLOCK     CODE     ---       LVL=0
      010037CBH   BLOCK     CODE     NEAR LAB  LVL=1
      00000007H   SYMBOL    DATA     BYTE      buf
      ---         BLOCKEND  ---      ---       LVL=1
      010037CBH   LINE      CODE     ---       #53
      010037CBH   LINE      CODE     ---       #54
      010037CBH   LINE      CODE     ---       #57
      010037D0H   LINE      CODE     ---       #58
      010037D0H   LINE      CODE     ---       #59
      010037D3H   LINE      CODE     ---       #60
      010037D9H   LINE      CODE     ---       #61
      010037DCH   LINE      CODE     ---       #62
      010037DFH   LINE      CODE     ---       #63
      010037E1H   LINE      CODE     ---       #64
      010037E4H   LINE      CODE     ---       #66
      010037E9H   LINE      CODE     ---       #67
      010037E9H   LINE      CODE     ---       #68
      010037ECH   LINE      CODE     ---       #69
      010037F2H   LINE      CODE     ---       #70
      010037F5H   LINE      CODE     ---       #71
      010037F8H   LINE      CODE     ---       #72
      010037F9H   LINE      CODE     ---       #73
      010037FCH   LINE      CODE     ---       #74
      ---         BLOCKEND  ---      ---       LVL=0

      010031B9H   BLOCK     CODE     ---       LVL=0
      010031B9H   BLOCK     CODE     NEAR LAB  LVL=1
      00000007H   SYMBOL    DATA     BYTE      time
      ---         BLOCKEND  ---      ---       LVL=1
      010031B9H   LINE      CODE     ---       #77
      010031B9H   LINE      CODE     ---       #78
      010031B9H   LINE      CODE     ---       #81
      010031C6H   LINE      CODE     ---       #82
      010031C6H   LINE      CODE     ---       #83
      010031C8H   LINE      CODE     ---       #84
      010031CDH   LINE      CODE     ---       #85
      010031D0H   LINE      CODE     ---       #86
      010031D8H   LINE      CODE     ---       #87
      010031D8H   LINE      CODE     ---       #88
      010031DBH   LINE      CODE     ---       #89
      010031DDH   LINE      CODE     ---       #90
      010031DFH   LINE      CODE     ---       #91
      010031E5H   LINE      CODE     ---       #92
      010031E5H   LINE      CODE     ---       #93
LX51 LINKER/LOCATER V4.66.97.0                                                        11/11/2024  12:36:56  PAGE 45


      010031F5H   LINE      CODE     ---       #94
      010031F8H   LINE      CODE     ---       #95
      010031F8H   LINE      CODE     ---       #96
      010031FAH   LINE      CODE     ---       #99
      010031FAH   LINE      CODE     ---       #100
      010031FCH   LINE      CODE     ---       #101
      01003202H   LINE      CODE     ---       #102
      0100320AH   LINE      CODE     ---       #103
      01003212H   LINE      CODE     ---       #104
      01003212H   LINE      CODE     ---       #106
      01003219H   LINE      CODE     ---       #107
      0100321FH   LINE      CODE     ---       #108
      ---         BLOCKEND  ---      ---       LVL=0

      01003A87H   BLOCK     CODE     ---       LVL=0
      01003A87H   LINE      CODE     ---       #111
      01003A87H   LINE      CODE     ---       #112
      01003A87H   LINE      CODE     ---       #114
      01003A8EH   LINE      CODE     ---       #115
      01003A94H   LINE      CODE     ---       #117
      01003A96H   LINE      CODE     ---       #118
      01003A9EH   LINE      CODE     ---       #119
      01003AA6H   LINE      CODE     ---       #120
      ---         BLOCKEND  ---      ---       LVL=0

      01003AFDH   BLOCK     CODE     ---       LVL=0
      00000006H   SYMBOL    DATA     INT       PressCount
      01003AFDH   LINE      CODE     ---       #123
      01003AFDH   LINE      CODE     ---       #124
      01003AFDH   LINE      CODE     ---       #125
      01003B00H   LINE      CODE     ---       #126
      01003B02H   LINE      CODE     ---       #127
      01003B04H   LINE      CODE     ---       #128
      01003B06H   LINE      CODE     ---       #129
      01003B08H   LINE      CODE     ---       #131
      01003B14H   LINE      CODE     ---       #132
      ---         BLOCKEND  ---      ---       LVL=0

      010029E5H   BLOCK     CODE     ---       LVL=0
      010029E5H   BLOCK     CODE     NEAR LAB  LVL=1
      00000006H   SYMBOL    DATA     BYTE      buf
      ---         BLOCKEND  ---      ---       LVL=1
      010029E5H   LINE      CODE     ---       #134
      010029E5H   LINE      CODE     ---       #135
      010029E5H   LINE      CODE     ---       #138
      010029EEH   LINE      CODE     ---       #139
      010029EEH   LINE      CODE     ---       #140
      010029F5H   LINE      CODE     ---       #141
      010029FEH   LINE      CODE     ---       #142
      01002A05H   LINE      CODE     ---       #144
      01002A0DH   LINE      CODE     ---       #145
      01002A17H   LINE      CODE     ---       #146
      01002A17H   LINE      CODE     ---       #147
      01002A1AH   LINE      CODE     ---       #148
      01002A24H   LINE      CODE     ---       #149
      01002A36H   LINE      CODE     ---       #150
      01002A3DH   LINE      CODE     ---       #151
      01002A3DH   LINE      CODE     ---       #152
      01002A3DH   LINE      CODE     ---       #154
      01002A48H   LINE      CODE     ---       #156
      01002A51H   LINE      CODE     ---       #157
      01002A51H   LINE      CODE     ---       #159
      01002A64H   LINE      CODE     ---       #161
      01002A64H   LINE      CODE     ---       #162
      01002A67H   LINE      CODE     ---       #163
LX51 LINKER/LOCATER V4.66.97.0                                                        11/11/2024  12:36:56  PAGE 46


      01002A69H   LINE      CODE     ---       #164
      01002A6CH   LINE      CODE     ---       #165
      01002A6FH   LINE      CODE     ---       #166
      01002A6FH   LINE      CODE     ---       #167
      01002A72H   LINE      CODE     ---       #168
      01002A72H   LINE      CODE     ---       #170
      01002A7BH   LINE      CODE     ---       #171
      01002A7BH   LINE      CODE     ---       #172
      01002A7DH   LINE      CODE     ---       #173
      01002A81H   LINE      CODE     ---       #174
      01002A85H   LINE      CODE     ---       #176
      01002A88H   LINE      CODE     ---       #177
      01002A88H   LINE      CODE     ---       #178
      ---         BLOCKEND  ---      ---       LVL=0

      01003AA7H   BLOCK     CODE     ---       LVL=0
      00000020H.7 SYMBOL    BIT      BIT       IsRemoveResult
      01003AA7H   BLOCK     CODE     NEAR LAB  LVL=1
      00000006H   SYMBOL    DATA     INT       buf
      ---         BLOCKEND  ---      ---       LVL=1
      01003AA7H   LINE      CODE     ---       #180
      01003AA7H   LINE      CODE     ---       #181
      01003AA7H   LINE      CODE     ---       #183
      01003AB3H   LINE      CODE     ---       #184
      01003ABAH   LINE      CODE     ---       #185
      01003ABDH   LINE      CODE     ---       #186
      01003AC0H   LINE      CODE     ---       #187
      01003AC0H   LINE      CODE     ---       #188
      01003AC3H   LINE      CODE     ---       #189
      01003AC5H   LINE      CODE     ---       #190
      01003AC5H   LINE      CODE     ---       #191
      01003AC5H   LINE      CODE     ---       #192
      ---         BLOCKEND  ---      ---       LVL=0

      01003BA1H   BLOCK     CODE     ---       LVL=0
      01003BA1H   LINE      CODE     ---       #194
      01003BA1H   LINE      CODE     ---       #195
      01003BA1H   LINE      CODE     ---       #196
      01003BA7H   LINE      CODE     ---       #197
      01003BAAH   LINE      CODE     ---       #198
      01003BABH   LINE      CODE     ---       #199
      ---         BLOCKEND  ---      ---       LVL=0

      01003BB5H   BLOCK     CODE     ---       LVL=0
      01003BB5H   LINE      CODE     ---       #201
      01003BB5H   LINE      CODE     ---       #202
      01003BB5H   LINE      CODE     ---       #203
      01003BBBH   LINE      CODE     ---       #204
      ---         BLOCKEND  ---      ---       LVL=0

      01003BBCH   BLOCK     CODE     ---       LVL=0
      01003BBCH   LINE      CODE     ---       #206
      01003BBCH   LINE      CODE     ---       #207
      01003BBCH   LINE      CODE     ---       #208
      01003BC2H   LINE      CODE     ---       #209
      ---         BLOCKEND  ---      ---       LVL=0

      ---         MODULE    ---      ---       LEDMGMT
      0000005DH   PUBLIC    DATA     BYTE      LEDMode
      0200005FH   PUBLIC    XDATA    INT       LEDBrightNess
      01003722H   PUBLIC    CODE     ---       _MakeFastStrobe
      01001981H   PUBLIC    CODE     ---       LEDControlHandler
      0100388CH   PUBLIC    CODE     ---       LEDMgmt_SetBrightness
      01002CEEH   PUBLIC    CODE     ---       LEDMgmt_SwitchToPWM
      01003967H   PUBLIC    CODE     ---       LED_Init
LX51 LINKER/LOCATER V4.66.97.0                                                        11/11/2024  12:36:56  PAGE 47


      000000C8H.0 SFRSYM    DATA     BIT       T2I0
      000000C3H   SFRSYM    DATA     BYTE      CCH1
      00000080H   SFRSYM    DATA     BYTE      P0
      000000C8H.1 SFRSYM    DATA     BIT       T2I1
      000000C5H   SFRSYM    DATA     BYTE      CCH2
      00000090H   SFRSYM    DATA     BYTE      P1
      000000C7H   SFRSYM    DATA     BYTE      CCH3
      000000ACH   SFRSYM    DATA     BYTE      P0EXTIE
      000000A0H   SFRSYM    DATA     BYTE      P2
      000000B4H   SFRSYM    DATA     BYTE      P0EXTIF
      000000B0H   SFRSYM    DATA     BYTE      P3
      000000ADH   SFRSYM    DATA     BYTE      P1EXTIE
      000000D0H.6 SFRSYM    DATA     BIT       AC
      000000FFH   SFRSYM    DATA     BYTE      MCTRL
      000000C2H   SFRSYM    DATA     BYTE      CCL1
      000000B5H   SFRSYM    DATA     BYTE      P1EXTIF
      000000AEH   SFRSYM    DATA     BYTE      P2EXTIE
      000000C4H   SFRSYM    DATA     BYTE      CCL2
      000000B6H   SFRSYM    DATA     BYTE      P2EXTIF
      000000AFH   SFRSYM    DATA     BYTE      P3EXTIE
      000000A8H.7 SFRSYM    DATA     BIT       EA
      000000C6H   SFRSYM    DATA     BYTE      CCL3
      000000B7H   SFRSYM    DATA     BYTE      P3EXTIF
      000000AAH   SFRSYM    DATA     BYTE      EIE2
      000000B2H   SFRSYM    DATA     BYTE      EIF2
      000000C8H.3 SFRSYM    DATA     BIT       T2R0
      000000C8H.4 SFRSYM    DATA     BIT       T2R1
      00000083H   SFRSYM    DATA     BYTE      DPH0
      000000A8H   SFRSYM    DATA     BYTE      IE
      00000085H   SFRSYM    DATA     BYTE      DPH1
      000000B9H   SFRSYM    DATA     BYTE      EIP1
      000000BAH   SFRSYM    DATA     BYTE      EIP2
      00000082H   SFRSYM    DATA     BYTE      DPL0
      00000084H   SFRSYM    DATA     BYTE      DPL1
      000000C8H.6 SFRSYM    DATA     BIT       I3FR
      000000CFH   SFRSYM    DATA     BYTE      T2IE
      00000096H   SFRSYM    DATA     BYTE      TA
      000000C9H   SFRSYM    DATA     BYTE      T2IF
      000000C8H.2 SFRSYM    DATA     BIT       T2CM
      000000DFH   SFRSYM    DATA     BYTE      ADCON0
      000000DEH   SFRSYM    DATA     BYTE      ADCON1
      000000E9H   SFRSYM    DATA     BYTE      ADCON2
      000000B8H   SFRSYM    DATA     BYTE      IP
      000000CEH   SFRSYM    DATA     BYTE      CCEN
      000000D0H.7 SFRSYM    DATA     BIT       CY
      000000D2H   SFRSYM    DATA     BYTE      T34MOD
      00000093H   SFRSYM    DATA     BYTE      DPX0
      00000095H   SFRSYM    DATA     BYTE      DPX1
      000000F4H   SFRSYM    DATA     BYTE      I2CMSA
      000000F5H   SFRSYM    DATA     BYTE      I2CMCR
      00000081H   SFRSYM    DATA     BYTE      SP
      000000D0H.2 SFRSYM    DATA     BIT       OV
      000000F2H   SFRSYM    DATA     BYTE      I2CSCR
      000000C8H.7 SFRSYM    DATA     BIT       T2PS
      000000D1H   SFRSYM    DATA     BYTE      ADCMPC
      000000CBH   SFRSYM    DATA     BYTE      RLDH
      000000D5H   SFRSYM    DATA     BYTE      ADCMPH
      000000CAH   SFRSYM    DATA     BYTE      RLDL
      00000080H.0 SFRSYM    DATA     BIT       P00
      00000090H.0 SFRSYM    DATA     BIT       P10
      00000080H.1 SFRSYM    DATA     BIT       P01
      000000F7H   SFRSYM    DATA     BYTE      I2CMTP
      00000099H   SFRSYM    DATA     BYTE      SBUF
      00000087H   SFRSYM    DATA     BYTE      PCON
      000000A0H.0 SFRSYM    DATA     BIT       P20
LX51 LINKER/LOCATER V4.66.97.0                                                        11/11/2024  12:36:56  PAGE 48


      00000090H.1 SFRSYM    DATA     BIT       P11
      00000080H.2 SFRSYM    DATA     BIT       P02
      000000F5H   SFRSYM    DATA     BYTE      I2CMSR
      000000B0H.0 SFRSYM    DATA     BIT       P30
      000000A0H.1 SFRSYM    DATA     BIT       P21
      00000090H.2 SFRSYM    DATA     BIT       P12
      00000080H.3 SFRSYM    DATA     BIT       P03
      000000D4H   SFRSYM    DATA     BYTE      ADCMPL
      000000B0H.1 SFRSYM    DATA     BIT       P31
      000000A0H.2 SFRSYM    DATA     BIT       P22
      00000090H.3 SFRSYM    DATA     BIT       P13
      00000080H.4 SFRSYM    DATA     BIT       P04
      000000B0H.2 SFRSYM    DATA     BIT       P32
      000000A0H.3 SFRSYM    DATA     BIT       P23
      00000090H.4 SFRSYM    DATA     BIT       P14
      00000080H.5 SFRSYM    DATA     BIT       P05
      00000089H   SFRSYM    DATA     BYTE      TMOD
      00000088H   SFRSYM    DATA     BYTE      TCON
      000000B0H.3 SFRSYM    DATA     BIT       P33
      000000A0H.4 SFRSYM    DATA     BIT       P24
      00000090H.5 SFRSYM    DATA     BIT       P15
      00000080H.6 SFRSYM    DATA     BIT       P06
      000000B0H.4 SFRSYM    DATA     BIT       P34
      000000A0H.5 SFRSYM    DATA     BIT       P25
      00000090H.6 SFRSYM    DATA     BIT       P16
      00000080H.7 SFRSYM    DATA     BIT       P07
      000000B0H.5 SFRSYM    DATA     BIT       P35
      000000A0H.6 SFRSYM    DATA     BIT       P26
      00000090H.7 SFRSYM    DATA     BIT       P17
      000000F2H   SFRSYM    DATA     BYTE      I2CSSR
      000000B0H.6 SFRSYM    DATA     BIT       P36
      000000A0H.7 SFRSYM    DATA     BIT       P27
      000000ECH   SFRSYM    DATA     BYTE      SPCR
      000000DDH   SFRSYM    DATA     BYTE      ADRESH
      000000B0H.7 SFRSYM    DATA     BIT       P37
      000000EEH   SFRSYM    DATA     BYTE      SPDR
      000000EFH   SFRSYM    DATA     BYTE      SSCR
      000000D3H   SFRSYM    DATA     BYTE      ADDLYL
      000000DCH   SFRSYM    DATA     BYTE      ADRESL
      00000088H.1 SFRSYM    DATA     BIT       IE0
      00000088H.3 SFRSYM    DATA     BIT       IE1
      0000008FH   SFRSYM    DATA     BYTE      CLKDIV
      000000F0H   SFRSYM    DATA     BYTE      B
      00000091H   SFRSYM    DATA     BYTE      FUNCCR
      0000009AH   SFRSYM    DATA     BYTE      P0TRIS
      000000A1H   SFRSYM    DATA     BYTE      P1TRIS
      000000A2H   SFRSYM    DATA     BYTE      P2TRIS
      000000E0H   SFRSYM    DATA     BYTE      ACC
      000000A3H   SFRSYM    DATA     BYTE      P3TRIS
      000000A8H.4 SFRSYM    DATA     BIT       ES0
      000000A8H.6 SFRSYM    DATA     BIT       ES1
      000000A8H.1 SFRSYM    DATA     BIT       ET0
      000000EDH   SFRSYM    DATA     BYTE      SPSR
      000000A0H.5 SFRSYM    DATA     BIT       GreenLED
      000000A8H.3 SFRSYM    DATA     BIT       ET1
      00000088H.5 SFRSYM    DATA     BIT       TF0
      000000A8H.5 SFRSYM    DATA     BIT       ET2
      00000098H.0 SFRSYM    DATA     BIT       RI0
      00000088H.7 SFRSYM    DATA     BIT       TF1
      0000008CH   SFRSYM    DATA     BYTE      TH0
      000000A8H.0 SFRSYM    DATA     BIT       EX0
      00000098H.1 SFRSYM    DATA     BIT       TI0
      00000088H.0 SFRSYM    DATA     BIT       IT0
      0000008DH   SFRSYM    DATA     BYTE      TH1
      000000A8H.2 SFRSYM    DATA     BIT       EX1
LX51 LINKER/LOCATER V4.66.97.0                                                        11/11/2024  12:36:56  PAGE 49


      00000088H.2 SFRSYM    DATA     BIT       IT1
      000000CDH   SFRSYM    DATA     BYTE      TH2
      000000D0H.0 SFRSYM    DATA     BIT       P
      000000DBH   SFRSYM    DATA     BYTE      TH3
      000000E3H   SFRSYM    DATA     BYTE      TH4
      0000008AH   SFRSYM    DATA     BYTE      TL0
      0000008BH   SFRSYM    DATA     BYTE      TL1
      00000098H.2 SFRSYM    DATA     BIT       U0RB8
      000000CCH   SFRSYM    DATA     BYTE      TL2
      000000B8H.4 SFRSYM    DATA     BIT       PS0
      000000DAH   SFRSYM    DATA     BYTE      TL3
      000000BFH   SFRSYM    DATA     BYTE      BUZCON
      000000B8H.6 SFRSYM    DATA     BIT       PS1
      000000B8H.1 SFRSYM    DATA     BIT       PT0
      00000098H.3 SFRSYM    DATA     BIT       U0TB8
      000000E2H   SFRSYM    DATA     BYTE      TL4
      000000D0H.3 SFRSYM    DATA     BIT       RS0
      000000B8H.3 SFRSYM    DATA     BIT       PT1
      000000D0H.4 SFRSYM    DATA     BIT       RS1
      000000B8H.5 SFRSYM    DATA     BIT       PT2
      00000098H.7 SFRSYM    DATA     BIT       U0SM0
      00000088H.4 SFRSYM    DATA     BIT       TR0
      000000BEH   SFRSYM    DATA     BYTE      BUZDIV
      00000098H.6 SFRSYM    DATA     BIT       U0SM1
      00000088H.6 SFRSYM    DATA     BIT       TR1
      000000B8H.0 SFRSYM    DATA     BIT       PX0
      00000098H.5 SFRSYM    DATA     BIT       U0SM2
      000000B8H.2 SFRSYM    DATA     BIT       PX1
      000000BDH   SFRSYM    DATA     BYTE      WUTCRH
      00000099H   SFRSYM    DATA     BYTE      SBUF0
      000000EBH   SFRSYM    DATA     BYTE      SBUF1
      000000BCH   SFRSYM    DATA     BYTE      WUTCRL
      00000098H   SFRSYM    DATA     BYTE      SCON0
      000000EAH   SFRSYM    DATA     BYTE      SCON1
      000000C8H   SFRSYM    DATA     BYTE      T2CON
      00000086H   SFRSYM    DATA     BYTE      DPS
      000000FEH   SFRSYM    DATA     BYTE      MDATA
      000000F6H   SFRSYM    DATA     BYTE      I2CMBUF
      000000F1H   SFRSYM    DATA     BYTE      I2CSADR
      00000098H.4 SFRSYM    DATA     BIT       U0REN
      000000C8H.5 SFRSYM    DATA     BIT       CAPES
      000000FDH   SFRSYM    DATA     BYTE      MADRH
      0000008EH   SFRSYM    DATA     BYTE      CKCON
      000000F3H   SFRSYM    DATA     BYTE      I2CSBUF
      000000FCH   SFRSYM    DATA     BYTE      MADRL
      000000A0H.4 SFRSYM    DATA     BIT       RedLED
      000000D0H.5 SFRSYM    DATA     BIT       F0
      000000FBH   SFRSYM    DATA     BYTE      MLOCK
      000000D0H   SFRSYM    DATA     BYTE      PSW
      00000097H   SFRSYM    DATA     BYTE      WDCON
      010037FDH   SYMBOL    CODE     ---       SetLEDONOFF
      0000005CH   SYMBOL    DATA     CHAR      timer
      0200005EH   SYMBOL    XDATA    CHAR      StepDownTIM

      01003520H   BLOCK     CODE     ---       LVL=0
      ---         BLOCKEND  ---      ---       LVL=0

      01003967H   BLOCK     CODE     ---       LVL=0
      01003967H   BLOCK     CODE     NEAR LAB  LVL=1
      00000025H   SYMBOL    DATA     ---       LEDInitCfg
      ---         BLOCKEND  ---      ---       LVL=1
      01003967H   LINE      CODE     ---       #16
      01003967H   LINE      CODE     ---       #17
      01003967H   LINE      CODE     ---       #20
      0100396AH   LINE      CODE     ---       #21
LX51 LINKER/LOCATER V4.66.97.0                                                        11/11/2024  12:36:56  PAGE 50


      0100396DH   LINE      CODE     ---       #22
      01003970H   LINE      CODE     ---       #24
      01003972H   LINE      CODE     ---       #25
      01003974H   LINE      CODE     ---       #27
      0100397AH   LINE      CODE     ---       #28
      01003981H   LINE      CODE     ---       #30
      01003984H   LINE      CODE     ---       #31
      ---         BLOCKEND  ---      ---       LVL=0

      01002CEEH   BLOCK     CODE     ---       LVL=0
      01002CEEH   LINE      CODE     ---       #34
      01002CEEH   LINE      CODE     ---       #35
      01002CEEH   LINE      CODE     ---       #37
      01002CF7H   LINE      CODE     ---       #38
      01002D00H   LINE      CODE     ---       #40
      01002D07H   LINE      CODE     ---       #41
      01002D0DH   LINE      CODE     ---       #42
      01002D13H   LINE      CODE     ---       #43
      01002D15H   LINE      CODE     ---       #44
      01002D1CH   LINE      CODE     ---       #45
      01002D20H   LINE      CODE     ---       #46
      01002D27H   LINE      CODE     ---       #48
      01002D2DH   LINE      CODE     ---       #49
      01002D33H   LINE      CODE     ---       #50
      01002D39H   LINE      CODE     ---       #51
      01002D3FH   LINE      CODE     ---       #53
      01002D4DH   LINE      CODE     ---       #54
      01002D61H   LINE      CODE     ---       #55
      01002D61H   LINE      CODE     ---       #56
      01002D61H   LINE      CODE     ---       #57
      01002D61H   LINE      CODE     ---       #58
      01002D64H   LINE      CODE     ---       #60
      01002D6BH   LINE      CODE     ---       #61
      01002D72H   LINE      CODE     ---       #62
      01002D7AH   LINE      CODE     ---       #63
      ---         BLOCKEND  ---      ---       LVL=0

      010037FDH   BLOCK     CODE     ---       LVL=0
      00000021H.1 SYMBOL    BIT      BIT       RLED
      00000021H.2 SYMBOL    BIT      BIT       GLED
      010037FDH   BLOCK     CODE     NEAR LAB  LVL=1
      00000007H   SYMBOL    DATA     BYTE      buf
      ---         BLOCKEND  ---      ---       LVL=1
      010037FDH   LINE      CODE     ---       #69
      010037FDH   LINE      CODE     ---       #70
      010037FDH   LINE      CODE     ---       #73
      01003805H   LINE      CODE     ---       #74
      01003805H   LINE      CODE     ---       #75
      01003809H   LINE      CODE     ---       #76
      0100380DH   LINE      CODE     ---       #77
      0100380EH   LINE      CODE     ---       #80
      0100380EH   LINE      CODE     ---       #81
      01003813H   LINE      CODE     ---       #82
      0100381BH   LINE      CODE     ---       #83
      0100381EH   LINE      CODE     ---       #84
      01003826H   LINE      CODE     ---       #85
      01003829H   LINE      CODE     ---       #86
      0100382EH   LINE      CODE     ---       #87
      0100382EH   LINE      CODE     ---       #88
      ---         BLOCKEND  ---      ---       LVL=0

      0100388CH   BLOCK     CODE     ---       LVL=0
      0100388CH   LINE      CODE     ---       #91
      0100388CH   LINE      CODE     ---       #92
      0100388CH   LINE      CODE     ---       #94
LX51 LINKER/LOCATER V4.66.97.0                                                        11/11/2024  12:36:56  PAGE 51


      0100389AH   LINE      CODE     ---       #95
      010038AEH   LINE      CODE     ---       #97
      010038AEH   LINE      CODE     ---       #98
      010038AEH   LINE      CODE     ---       #99
      010038AEH   LINE      CODE     ---       #100
      010038B1H   LINE      CODE     ---       #102
      010038B8H   LINE      CODE     ---       #103
      ---         BLOCKEND  ---      ---       LVL=0

      01001981H   BLOCK     CODE     ---       LVL=0
      01001981H   BLOCK     CODE     NEAR LAB  LVL=1
      00000007H   SYMBOL    DATA     CHAR      buf
      00000020H.6 SYMBOL    BIT      BIT       IsLEDON
      00000020H.7 SYMBOL    BIT      BIT       RLED
      00000021H.0 SYMBOL    BIT      BIT       GLED
      ---         BLOCKEND  ---      ---       LVL=1
      01001981H   LINE      CODE     ---       #106
      01001981H   LINE      CODE     ---       #107
      01001981H   LINE      CODE     ---       #113
      0100198BH   LINE      CODE     ---       #114
      0100199FH   LINE      CODE     ---       #115
      0100199FH   LINE      CODE     ---       #116
      010019A1H   LINE      CODE     ---       #117
      010019A3H   LINE      CODE     ---       #118
      010019A6H   LINE      CODE     ---       #119
      010019A8H   LINE      CODE     ---       #121
      010019A8H   LINE      CODE     ---       #122
      010019AEH   LINE      CODE     ---       #125
      010019DDH   LINE      CODE     ---       #126
      010019DDH   LINE      CODE     ---       #127
      010019E7H   LINE      CODE     ---       #128
      010019EEH   LINE      CODE     ---       #129
      010019F5H   LINE      CODE     ---       #130
      010019FCH   LINE      CODE     ---       #131
      010019FCH   LINE      CODE     ---       #132
      010019FCH   LINE      CODE     ---       #133
      010019FEH   LINE      CODE     ---       #134
      01001A03H   LINE      CODE     ---       #135
      01001A19H   LINE      CODE     ---       #136
      01001A19H   LINE      CODE     ---       #137
      01001A1AH   LINE      CODE     ---       #138
      01001A1DH   LINE      CODE     ---       #139
      01001A20H   LINE      CODE     ---       #140
      01001A22H   LINE      CODE     ---       #141
      01001A2DH   LINE      CODE     ---       #142
      01001A36H   LINE      CODE     ---       #143
      01001A38H   LINE      CODE     ---       #144
      01001A38H   LINE      CODE     ---       #145
      01001A38H   LINE      CODE     ---       #146
      01001A3AH   LINE      CODE     ---       #147
      01001A3DH   LINE      CODE     ---       #148
      01001A54H   LINE      CODE     ---       #149
      01001A54H   LINE      CODE     ---       #150
      01001A56H   LINE      CODE     ---       #151
      01001A56H   LINE      CODE     ---       #152
      01001A58H   LINE      CODE     ---       #154
      01001A58H   LINE      CODE     ---       #155
      01001A60H   LINE      CODE     ---       #156
      01001A64H   LINE      CODE     ---       #157
      01001A66H   LINE      CODE     ---       #158
      01001A66H   LINE      CODE     ---       #159
      01001A68H   LINE      CODE     ---       #160
      01001A68H   LINE      CODE     ---       #161
      01001A6AH   LINE      CODE     ---       #162
      01001A6DH   LINE      CODE     ---       #163
LX51 LINKER/LOCATER V4.66.97.0                                                        11/11/2024  12:36:56  PAGE 52


      01001A7FH   LINE      CODE     ---       #164
      01001A7FH   LINE      CODE     ---       #165
      01001A81H   LINE      CODE     ---       #166
      01001A84H   LINE      CODE     ---       #167
      01001A86H   LINE      CODE     ---       #169
      01001A86H   LINE      CODE     ---       #170
      01001A8EH   LINE      CODE     ---       #171
      01001A92H   LINE      CODE     ---       #172
      01001A94H   LINE      CODE     ---       #173
      01001A94H   LINE      CODE     ---       #174
      01001A94H   LINE      CODE     ---       #175
      01001A94H   LINE      CODE     ---       #177
      01001A9FH   LINE      CODE     ---       #178
      ---         BLOCKEND  ---      ---       LVL=0

      01003722H   BLOCK     CODE     ---       LVL=0
      00000007H   SYMBOL    DATA     BYTE      LEDMode
      01003722H   BLOCK     CODE     NEAR LAB  LVL=1
      00000020H.6 SYMBOL    BIT      BIT       RLED
      00000020H.7 SYMBOL    BIT      BIT       GLED
      ---         BLOCKEND  ---      ---       LVL=1
      01003722H   LINE      CODE     ---       #181
      01003722H   LINE      CODE     ---       #182
      01003722H   LINE      CODE     ---       #183
      01003726H   LINE      CODE     ---       #185
      01003733H   LINE      CODE     ---       #186
      01003733H   LINE      CODE     ---       #187
      01003739H   LINE      CODE     ---       #188
      0100373FH   LINE      CODE     ---       #189
      01003743H   LINE      CODE     ---       #190
      01003743H   LINE      CODE     ---       #191
      0100374EH   LINE      CODE     ---       #192
      01003755H   LINE      CODE     ---       #194
      ---         BLOCKEND  ---      ---       LVL=0

      ---         MODULE    ---      ---       PWM
      00000021H.6 PUBLIC    BIT      BIT       IsNeedToUploadPWM
      0200005AH   PUBLIC    XDATA    FLOAT     PWMDuty
      01002237H   PUBLIC    CODE     ---       PWM_OutputCtrlHandler
      00000020H.6 PUBLIC    BIT      BIT       ?PWM_ForceSetDuty?BIT
      01003796H   PUBLIC    CODE     ---       PWM_ForceSetDuty
      01002E07H   PUBLIC    CODE     ---       PWM_Init
      010039FFH   PUBLIC    CODE     ---       PWM_DeInit
      000000C8H.0 SFRSYM    DATA     BIT       T2I0
      000000C3H   SFRSYM    DATA     BYTE      CCH1
      00000080H   SFRSYM    DATA     BYTE      P0
      000000C8H.1 SFRSYM    DATA     BIT       T2I1
      000000C5H   SFRSYM    DATA     BYTE      CCH2
      00000090H   SFRSYM    DATA     BYTE      P1
      000000C7H   SFRSYM    DATA     BYTE      CCH3
      000000ACH   SFRSYM    DATA     BYTE      P0EXTIE
      000000A0H   SFRSYM    DATA     BYTE      P2
      000000B4H   SFRSYM    DATA     BYTE      P0EXTIF
      000000B0H   SFRSYM    DATA     BYTE      P3
      000000ADH   SFRSYM    DATA     BYTE      P1EXTIE
      000000D0H.6 SFRSYM    DATA     BIT       AC
      000000FFH   SFRSYM    DATA     BYTE      MCTRL
      000000C2H   SFRSYM    DATA     BYTE      CCL1
      000000B5H   SFRSYM    DATA     BYTE      P1EXTIF
      000000AEH   SFRSYM    DATA     BYTE      P2EXTIE
      000000C4H   SFRSYM    DATA     BYTE      CCL2
      000000B6H   SFRSYM    DATA     BYTE      P2EXTIF
      000000AFH   SFRSYM    DATA     BYTE      P3EXTIE
      000000A8H.7 SFRSYM    DATA     BIT       EA
      000000C6H   SFRSYM    DATA     BYTE      CCL3
LX51 LINKER/LOCATER V4.66.97.0                                                        11/11/2024  12:36:56  PAGE 53


      000000B7H   SFRSYM    DATA     BYTE      P3EXTIF
      000000AAH   SFRSYM    DATA     BYTE      EIE2
      000000B2H   SFRSYM    DATA     BYTE      EIF2
      000000C8H.3 SFRSYM    DATA     BIT       T2R0
      000000C8H.4 SFRSYM    DATA     BIT       T2R1
      00000083H   SFRSYM    DATA     BYTE      DPH0
      000000A8H   SFRSYM    DATA     BYTE      IE
      00000085H   SFRSYM    DATA     BYTE      DPH1
      000000B9H   SFRSYM    DATA     BYTE      EIP1
      000000BAH   SFRSYM    DATA     BYTE      EIP2
      00000082H   SFRSYM    DATA     BYTE      DPL0
      00000084H   SFRSYM    DATA     BYTE      DPL1
      000000C8H.6 SFRSYM    DATA     BIT       I3FR
      000000CFH   SFRSYM    DATA     BYTE      T2IE
      00000096H   SFRSYM    DATA     BYTE      TA
      000000C9H   SFRSYM    DATA     BYTE      T2IF
      000000C8H.2 SFRSYM    DATA     BIT       T2CM
      000000DFH   SFRSYM    DATA     BYTE      ADCON0
      000000DEH   SFRSYM    DATA     BYTE      ADCON1
      000000E9H   SFRSYM    DATA     BYTE      ADCON2
      000000B8H   SFRSYM    DATA     BYTE      IP
      000000CEH   SFRSYM    DATA     BYTE      CCEN
      000000D0H.7 SFRSYM    DATA     BIT       CY
      000000D2H   SFRSYM    DATA     BYTE      T34MOD
      00000093H   SFRSYM    DATA     BYTE      DPX0
      00000095H   SFRSYM    DATA     BYTE      DPX1
      000000F4H   SFRSYM    DATA     BYTE      I2CMSA
      000000F5H   SFRSYM    DATA     BYTE      I2CMCR
      00000081H   SFRSYM    DATA     BYTE      SP
      000000D0H.2 SFRSYM    DATA     BIT       OV
      000000F2H   SFRSYM    DATA     BYTE      I2CSCR
      000000C8H.7 SFRSYM    DATA     BIT       T2PS
      000000D1H   SFRSYM    DATA     BYTE      ADCMPC
      000000CBH   SFRSYM    DATA     BYTE      RLDH
      000000D5H   SFRSYM    DATA     BYTE      ADCMPH
      000000CAH   SFRSYM    DATA     BYTE      RLDL
      00000080H.0 SFRSYM    DATA     BIT       P00
      00000090H.0 SFRSYM    DATA     BIT       P10
      00000080H.1 SFRSYM    DATA     BIT       P01
      000000F7H   SFRSYM    DATA     BYTE      I2CMTP
      00000099H   SFRSYM    DATA     BYTE      SBUF
      00000087H   SFRSYM    DATA     BYTE      PCON
      000000A0H.0 SFRSYM    DATA     BIT       P20
      00000090H.1 SFRSYM    DATA     BIT       P11
      00000080H.2 SFRSYM    DATA     BIT       P02
      000000F5H   SFRSYM    DATA     BYTE      I2CMSR
      000000B0H.0 SFRSYM    DATA     BIT       P30
      000000A0H.1 SFRSYM    DATA     BIT       P21
      00000090H.2 SFRSYM    DATA     BIT       P12
      00000080H.3 SFRSYM    DATA     BIT       P03
      000000D4H   SFRSYM    DATA     BYTE      ADCMPL
      000000B0H.1 SFRSYM    DATA     BIT       P31
      000000A0H.2 SFRSYM    DATA     BIT       P22
      00000090H.3 SFRSYM    DATA     BIT       P13
      00000080H.4 SFRSYM    DATA     BIT       P04
      000000B0H.2 SFRSYM    DATA     BIT       P32
      000000A0H.3 SFRSYM    DATA     BIT       P23
      00000090H.4 SFRSYM    DATA     BIT       P14
      00000080H.5 SFRSYM    DATA     BIT       P05
      00000089H   SFRSYM    DATA     BYTE      TMOD
      00000088H   SFRSYM    DATA     BYTE      TCON
      000000B0H.3 SFRSYM    DATA     BIT       P33
      000000A0H.4 SFRSYM    DATA     BIT       P24
      00000090H.5 SFRSYM    DATA     BIT       P15
      00000080H.6 SFRSYM    DATA     BIT       P06
LX51 LINKER/LOCATER V4.66.97.0                                                        11/11/2024  12:36:56  PAGE 54


      000000B0H.4 SFRSYM    DATA     BIT       P34
      000000A0H.5 SFRSYM    DATA     BIT       P25
      00000090H.6 SFRSYM    DATA     BIT       P16
      00000080H.7 SFRSYM    DATA     BIT       P07
      000000B0H.5 SFRSYM    DATA     BIT       P35
      000000A0H.6 SFRSYM    DATA     BIT       P26
      00000090H.7 SFRSYM    DATA     BIT       P17
      000000F2H   SFRSYM    DATA     BYTE      I2CSSR
      000000B0H.6 SFRSYM    DATA     BIT       P36
      000000A0H.7 SFRSYM    DATA     BIT       P27
      000000ECH   SFRSYM    DATA     BYTE      SPCR
      000000DDH   SFRSYM    DATA     BYTE      ADRESH
      000000B0H.7 SFRSYM    DATA     BIT       P37
      000000EEH   SFRSYM    DATA     BYTE      SPDR
      000000EFH   SFRSYM    DATA     BYTE      SSCR
      000000D3H   SFRSYM    DATA     BYTE      ADDLYL
      000000DCH   SFRSYM    DATA     BYTE      ADRESL
      00000088H.1 SFRSYM    DATA     BIT       IE0
      00000088H.3 SFRSYM    DATA     BIT       IE1
      0000008FH   SFRSYM    DATA     BYTE      CLKDIV
      000000F0H   SFRSYM    DATA     BYTE      B
      00000091H   SFRSYM    DATA     BYTE      FUNCCR
      0000009AH   SFRSYM    DATA     BYTE      P0TRIS
      000000A1H   SFRSYM    DATA     BYTE      P1TRIS
      000000A2H   SFRSYM    DATA     BYTE      P2TRIS
      000000E0H   SFRSYM    DATA     BYTE      ACC
      000000A3H   SFRSYM    DATA     BYTE      P3TRIS
      000000A8H.4 SFRSYM    DATA     BIT       ES0
      000000A8H.6 SFRSYM    DATA     BIT       ES1
      000000A8H.1 SFRSYM    DATA     BIT       ET0
      000000EDH   SFRSYM    DATA     BYTE      SPSR
      000000A8H.3 SFRSYM    DATA     BIT       ET1
      00000088H.5 SFRSYM    DATA     BIT       TF0
      000000A8H.5 SFRSYM    DATA     BIT       ET2
      00000098H.0 SFRSYM    DATA     BIT       RI0
      00000088H.7 SFRSYM    DATA     BIT       TF1
      0000008CH   SFRSYM    DATA     BYTE      TH0
      000000A8H.0 SFRSYM    DATA     BIT       EX0
      00000098H.1 SFRSYM    DATA     BIT       TI0
      00000088H.0 SFRSYM    DATA     BIT       IT0
      0000008DH   SFRSYM    DATA     BYTE      TH1
      000000A8H.2 SFRSYM    DATA     BIT       EX1
      00000088H.2 SFRSYM    DATA     BIT       IT1
      000000CDH   SFRSYM    DATA     BYTE      TH2
      000000D0H.0 SFRSYM    DATA     BIT       P
      000000DBH   SFRSYM    DATA     BYTE      TH3
      000000E3H   SFRSYM    DATA     BYTE      TH4
      0000008AH   SFRSYM    DATA     BYTE      TL0
      0000008BH   SFRSYM    DATA     BYTE      TL1
      00000098H.2 SFRSYM    DATA     BIT       U0RB8
      000000CCH   SFRSYM    DATA     BYTE      TL2
      000000B8H.4 SFRSYM    DATA     BIT       PS0
      000000DAH   SFRSYM    DATA     BYTE      TL3
      000000BFH   SFRSYM    DATA     BYTE      BUZCON
      000000B8H.6 SFRSYM    DATA     BIT       PS1
      000000B8H.1 SFRSYM    DATA     BIT       PT0
      00000098H.3 SFRSYM    DATA     BIT       U0TB8
      000000E2H   SFRSYM    DATA     BYTE      TL4
      000000D0H.3 SFRSYM    DATA     BIT       RS0
      000000B8H.3 SFRSYM    DATA     BIT       PT1
      000000D0H.4 SFRSYM    DATA     BIT       RS1
      000000B8H.5 SFRSYM    DATA     BIT       PT2
      00000098H.7 SFRSYM    DATA     BIT       U0SM0
      00000088H.4 SFRSYM    DATA     BIT       TR0
      000000BEH   SFRSYM    DATA     BYTE      BUZDIV
LX51 LINKER/LOCATER V4.66.97.0                                                        11/11/2024  12:36:56  PAGE 55


      00000098H.6 SFRSYM    DATA     BIT       U0SM1
      00000088H.6 SFRSYM    DATA     BIT       TR1
      000000B8H.0 SFRSYM    DATA     BIT       PX0
      00000098H.5 SFRSYM    DATA     BIT       U0SM2
      000000B8H.2 SFRSYM    DATA     BIT       PX1
      000000BDH   SFRSYM    DATA     BYTE      WUTCRH
      00000099H   SFRSYM    DATA     BYTE      SBUF0
      000000EBH   SFRSYM    DATA     BYTE      SBUF1
      000000BCH   SFRSYM    DATA     BYTE      WUTCRL
      00000098H   SFRSYM    DATA     BYTE      SCON0
      000000EAH   SFRSYM    DATA     BYTE      SCON1
      000000C8H   SFRSYM    DATA     BYTE      T2CON
      00000086H   SFRSYM    DATA     BYTE      DPS
      000000FEH   SFRSYM    DATA     BYTE      MDATA
      000000F6H   SFRSYM    DATA     BYTE      I2CMBUF
      000000F1H   SFRSYM    DATA     BYTE      I2CSADR
      00000098H.4 SFRSYM    DATA     BIT       U0REN
      000000C8H.5 SFRSYM    DATA     BIT       CAPES
      000000FDH   SFRSYM    DATA     BYTE      MADRH
      0000008EH   SFRSYM    DATA     BYTE      CKCON
      000000F3H   SFRSYM    DATA     BYTE      I2CSBUF
      000000FCH   SFRSYM    DATA     BYTE      MADRL
      000000D0H.5 SFRSYM    DATA     BIT       F0
      000000FBH   SFRSYM    DATA     BYTE      MLOCK
      000000D0H   SFRSYM    DATA     BYTE      PSW
      00000097H   SFRSYM    DATA     BYTE      WDCON
      00000021H.7 SYMBOL    BIT      BIT       IsNeedToEnableOutput
      00000022H.0 SYMBOL    BIT      BIT       IsPWMLoading

      01003B92H   BLOCK     CODE     ---       LVL=0
      ---         BLOCKEND  ---      ---       LVL=0

      010039FFH   BLOCK     CODE     ---       LVL=0
      010039FFH   LINE      CODE     ---       #13
      010039FFH   LINE      CODE     ---       #14
      010039FFH   LINE      CODE     ---       #16
      01003A07H   LINE      CODE     ---       #18
      01003A10H   LINE      CODE     ---       #20
      01003A15H   LINE      CODE     ---       #21
      01003A19H   LINE      CODE     ---       #22
      01003A1DH   LINE      CODE     ---       #23
      01003A21H   LINE      CODE     ---       #24
      ---         BLOCKEND  ---      ---       LVL=0

      01002E07H   BLOCK     CODE     ---       LVL=0
      01002E07H   BLOCK     CODE     NEAR LAB  LVL=1
      00000025H   SYMBOL    DATA     ---       PWMInitCfg
      ---         BLOCKEND  ---      ---       LVL=1
      01002E07H   LINE      CODE     ---       #27
      01002E07H   LINE      CODE     ---       #28
      01002E07H   LINE      CODE     ---       #31
      01002E0AH   LINE      CODE     ---       #32
      01002E0DH   LINE      CODE     ---       #33
      01002E10H   LINE      CODE     ---       #35
      01002E18H   LINE      CODE     ---       #36
      01002E25H   LINE      CODE     ---       #38
      01002E2EH   LINE      CODE     ---       #40
      01002E33H   LINE      CODE     ---       #41
      01002E36H   LINE      CODE     ---       #42
      01002E3AH   LINE      CODE     ---       #43
      01002E40H   LINE      CODE     ---       #44
      01002E45H   LINE      CODE     ---       #45
      01002E4AH   LINE      CODE     ---       #46
      01002E4CH   LINE      CODE     ---       #47
      01002E51H   LINE      CODE     ---       #48
LX51 LINKER/LOCATER V4.66.97.0                                                        11/11/2024  12:36:56  PAGE 56


      01002E55H   LINE      CODE     ---       #49
      01002E5AH   LINE      CODE     ---       #51
      01002E60H   LINE      CODE     ---       #52
      01002E66H   LINE      CODE     ---       #54
      01002E6BH   LINE      CODE     ---       #55
      01002E6FH   LINE      CODE     ---       #57
      01002E79H   LINE      CODE     ---       #58
      01002E7BH   LINE      CODE     ---       #59
      01002E7DH   LINE      CODE     ---       #61
      01002E83H   LINE      CODE     ---       #62
      01002E87H   LINE      CODE     ---       #63
      01002E8DH   LINE      CODE     ---       #64
      ---         BLOCKEND  ---      ---       LVL=0

      01003796H   BLOCK     CODE     ---       LVL=0
      00000020H.6 SYMBOL    BIT      BIT       IsEnable
      01003796H   LINE      CODE     ---       #67
      01003796H   LINE      CODE     ---       #68
      01003796H   LINE      CODE     ---       #69
      0100379CH   LINE      CODE     ---       #70
      010037A8H   LINE      CODE     ---       #71
      010037AFH   LINE      CODE     ---       #72
      010037B6H   LINE      CODE     ---       #73
      010037CAH   LINE      CODE     ---       #74
      ---         BLOCKEND  ---      ---       LVL=0

      01002237H   BLOCK     CODE     ---       LVL=0
      01002237H   BLOCK     CODE     NEAR LAB  LVL=1
      00000004H   SYMBOL    DATA     INT       value
      00000023H   SYMBOL    DATA     FLOAT     buf
      ---         BLOCKEND  ---      ---       LVL=1
      01002237H   LINE      CODE     ---       #77
      01002237H   LINE      CODE     ---       #78
      01002237H   LINE      CODE     ---       #82
      0100223DH   LINE      CODE     ---       #83
      01002240H   LINE      CODE     ---       #84
      01002240H   LINE      CODE     ---       #85
      0100224AH   LINE      CODE     ---       #86
      0100224AH   LINE      CODE     ---       #87
      0100225EH   LINE      CODE     ---       #88
      01002260H   LINE      CODE     ---       #89
      01002262H   LINE      CODE     ---       #90
      01002263H   LINE      CODE     ---       #92
      01002263H   LINE      CODE     ---       #94
      0100227EH   LINE      CODE     ---       #95
      01002295H   LINE      CODE     ---       #97
      010022A7H   LINE      CODE     ---       #98
      010022C7H   LINE      CODE     ---       #99
      010022D9H   LINE      CODE     ---       #100
      010022E0H   LINE      CODE     ---       #101
      010022E7H   LINE      CODE     ---       #102
      010022ECH   LINE      CODE     ---       #104
      010022EEH   LINE      CODE     ---       #105
      010022F5H   LINE      CODE     ---       #106
      ---         BLOCKEND  ---      ---       LVL=0

      ---         MODULE    ---      ---       OUTPUTCHANNEL
      02000057H   PUBLIC    XDATA    INT       Current
      01001DCBH   PUBLIC    CODE     ---       OutputChannel_Calc
      01003BC3H   PUBLIC    CODE     ---       OutputChannel_DeInit
      0100125FH   PUBLIC    CODE     ---       OutputChannel_TestRun
      0100375CH   PUBLIC    CODE     ---       OutputChannel_Init
      000000C8H.0 SFRSYM    DATA     BIT       T2I0
      000000C3H   SFRSYM    DATA     BYTE      CCH1
      00000080H   SFRSYM    DATA     BYTE      P0
LX51 LINKER/LOCATER V4.66.97.0                                                        11/11/2024  12:36:56  PAGE 57


      000000C8H.1 SFRSYM    DATA     BIT       T2I1
      000000C5H   SFRSYM    DATA     BYTE      CCH2
      00000090H   SFRSYM    DATA     BYTE      P1
      000000C7H   SFRSYM    DATA     BYTE      CCH3
      000000ACH   SFRSYM    DATA     BYTE      P0EXTIE
      000000A0H   SFRSYM    DATA     BYTE      P2
      00000080H.1 SFRSYM    DATA     BIT       RevPGate
      000000B4H   SFRSYM    DATA     BYTE      P0EXTIF
      000000B0H   SFRSYM    DATA     BYTE      P3
      000000ADH   SFRSYM    DATA     BYTE      P1EXTIE
      000000D0H.6 SFRSYM    DATA     BIT       AC
      000000FFH   SFRSYM    DATA     BYTE      MCTRL
      000000C2H   SFRSYM    DATA     BYTE      CCL1
      000000B5H   SFRSYM    DATA     BYTE      P1EXTIF
      000000AEH   SFRSYM    DATA     BYTE      P2EXTIE
      000000C4H   SFRSYM    DATA     BYTE      CCL2
      000000B6H   SFRSYM    DATA     BYTE      P2EXTIF
      000000AFH   SFRSYM    DATA     BYTE      P3EXTIE
      000000A8H.7 SFRSYM    DATA     BIT       EA
      000000C6H   SFRSYM    DATA     BYTE      CCL3
      000000B7H   SFRSYM    DATA     BYTE      P3EXTIF
      000000AAH   SFRSYM    DATA     BYTE      EIE2
      000000B2H   SFRSYM    DATA     BYTE      EIF2
      000000C8H.3 SFRSYM    DATA     BIT       T2R0
      000000C8H.4 SFRSYM    DATA     BIT       T2R1
      00000083H   SFRSYM    DATA     BYTE      DPH0
      000000A8H   SFRSYM    DATA     BYTE      IE
      00000085H   SFRSYM    DATA     BYTE      DPH1
      000000B9H   SFRSYM    DATA     BYTE      EIP1
      000000BAH   SFRSYM    DATA     BYTE      EIP2
      00000082H   SFRSYM    DATA     BYTE      DPL0
      00000084H   SFRSYM    DATA     BYTE      DPL1
      000000C8H.6 SFRSYM    DATA     BIT       I3FR
      000000CFH   SFRSYM    DATA     BYTE      T2IE
      00000096H   SFRSYM    DATA     BYTE      TA
      000000C9H   SFRSYM    DATA     BYTE      T2IF
      000000C8H.2 SFRSYM    DATA     BIT       T2CM
      000000DFH   SFRSYM    DATA     BYTE      ADCON0
      000000DEH   SFRSYM    DATA     BYTE      ADCON1
      000000E9H   SFRSYM    DATA     BYTE      ADCON2
      000000B8H   SFRSYM    DATA     BYTE      IP
      000000CEH   SFRSYM    DATA     BYTE      CCEN
      000000D0H.7 SFRSYM    DATA     BIT       CY
      000000D2H   SFRSYM    DATA     BYTE      T34MOD
      00000093H   SFRSYM    DATA     BYTE      DPX0
      00000095H   SFRSYM    DATA     BYTE      DPX1
      000000F4H   SFRSYM    DATA     BYTE      I2CMSA
      000000F5H   SFRSYM    DATA     BYTE      I2CMCR
      00000080H.4 SFRSYM    DATA     BIT       DCDCEN
      00000081H   SFRSYM    DATA     BYTE      SP
      000000D0H.2 SFRSYM    DATA     BIT       OV
      000000F2H   SFRSYM    DATA     BYTE      I2CSCR
      000000C8H.7 SFRSYM    DATA     BIT       T2PS
      000000D1H   SFRSYM    DATA     BYTE      ADCMPC
      000000CBH   SFRSYM    DATA     BYTE      RLDH
      000000D5H   SFRSYM    DATA     BYTE      ADCMPH
      000000CAH   SFRSYM    DATA     BYTE      RLDL
      00000080H.0 SFRSYM    DATA     BIT       P00
      00000090H.0 SFRSYM    DATA     BIT       P10
      00000080H.1 SFRSYM    DATA     BIT       P01
      000000F7H   SFRSYM    DATA     BYTE      I2CMTP
      00000099H   SFRSYM    DATA     BYTE      SBUF
      00000087H   SFRSYM    DATA     BYTE      PCON
      000000A0H.0 SFRSYM    DATA     BIT       P20
      00000090H.1 SFRSYM    DATA     BIT       P11
LX51 LINKER/LOCATER V4.66.97.0                                                        11/11/2024  12:36:56  PAGE 58


      00000080H.2 SFRSYM    DATA     BIT       P02
      000000F5H   SFRSYM    DATA     BYTE      I2CMSR
      000000B0H.0 SFRSYM    DATA     BIT       P30
      000000A0H.1 SFRSYM    DATA     BIT       P21
      00000090H.2 SFRSYM    DATA     BIT       P12
      00000080H.3 SFRSYM    DATA     BIT       P03
      000000D4H   SFRSYM    DATA     BYTE      ADCMPL
      000000B0H.1 SFRSYM    DATA     BIT       P31
      000000A0H.2 SFRSYM    DATA     BIT       P22
      00000090H.3 SFRSYM    DATA     BIT       P13
      00000080H.4 SFRSYM    DATA     BIT       P04
      000000B0H.2 SFRSYM    DATA     BIT       P32
      000000A0H.3 SFRSYM    DATA     BIT       P23
      00000090H.4 SFRSYM    DATA     BIT       P14
      00000080H.5 SFRSYM    DATA     BIT       P05
      00000089H   SFRSYM    DATA     BYTE      TMOD
      00000088H   SFRSYM    DATA     BYTE      TCON
      000000B0H.3 SFRSYM    DATA     BIT       P33
      000000A0H.4 SFRSYM    DATA     BIT       P24
      00000090H.5 SFRSYM    DATA     BIT       P15
      00000080H.6 SFRSYM    DATA     BIT       P06
      000000B0H.4 SFRSYM    DATA     BIT       P34
      000000A0H.5 SFRSYM    DATA     BIT       P25
      00000090H.6 SFRSYM    DATA     BIT       P16
      00000080H.7 SFRSYM    DATA     BIT       P07
      000000B0H.5 SFRSYM    DATA     BIT       P35
      000000A0H.6 SFRSYM    DATA     BIT       P26
      00000090H.7 SFRSYM    DATA     BIT       P17
      000000F2H   SFRSYM    DATA     BYTE      I2CSSR
      000000B0H.6 SFRSYM    DATA     BIT       P36
      000000A0H.7 SFRSYM    DATA     BIT       P27
      000000ECH   SFRSYM    DATA     BYTE      SPCR
      000000DDH   SFRSYM    DATA     BYTE      ADRESH
      000000B0H.7 SFRSYM    DATA     BIT       P37
      000000EEH   SFRSYM    DATA     BYTE      SPDR
      000000EFH   SFRSYM    DATA     BYTE      SSCR
      000000D3H   SFRSYM    DATA     BYTE      ADDLYL
      000000DCH   SFRSYM    DATA     BYTE      ADRESL
      00000088H.1 SFRSYM    DATA     BIT       IE0
      00000088H.3 SFRSYM    DATA     BIT       IE1
      0000008FH   SFRSYM    DATA     BYTE      CLKDIV
      000000F0H   SFRSYM    DATA     BYTE      B
      00000080H.5 SFRSYM    DATA     BIT       HShuntSEL
      00000091H   SFRSYM    DATA     BYTE      FUNCCR
      0000009AH   SFRSYM    DATA     BYTE      P0TRIS
      000000A1H   SFRSYM    DATA     BYTE      P1TRIS
      000000A2H   SFRSYM    DATA     BYTE      P2TRIS
      00000080H.3 SFRSYM    DATA     BIT       LShuntSEL
      000000E0H   SFRSYM    DATA     BYTE      ACC
      000000A3H   SFRSYM    DATA     BYTE      P3TRIS
      000000A8H.4 SFRSYM    DATA     BIT       ES0
      000000A8H.6 SFRSYM    DATA     BIT       ES1
      000000A8H.1 SFRSYM    DATA     BIT       ET0
      000000EDH   SFRSYM    DATA     BYTE      SPSR
      000000A8H.3 SFRSYM    DATA     BIT       ET1
      00000088H.5 SFRSYM    DATA     BIT       TF0
      000000A8H.5 SFRSYM    DATA     BIT       ET2
      00000098H.0 SFRSYM    DATA     BIT       RI0
      00000088H.7 SFRSYM    DATA     BIT       TF1
      0000008CH   SFRSYM    DATA     BYTE      TH0
      000000A8H.0 SFRSYM    DATA     BIT       EX0
      00000098H.1 SFRSYM    DATA     BIT       TI0
      00000088H.0 SFRSYM    DATA     BIT       IT0
      0000008DH   SFRSYM    DATA     BYTE      TH1
      000000A8H.2 SFRSYM    DATA     BIT       EX1
LX51 LINKER/LOCATER V4.66.97.0                                                        11/11/2024  12:36:56  PAGE 59


      00000088H.2 SFRSYM    DATA     BIT       IT1
      000000CDH   SFRSYM    DATA     BYTE      TH2
      000000D0H.0 SFRSYM    DATA     BIT       P
      000000DBH   SFRSYM    DATA     BYTE      TH3
      000000E3H   SFRSYM    DATA     BYTE      TH4
      0000008AH   SFRSYM    DATA     BYTE      TL0
      0000008BH   SFRSYM    DATA     BYTE      TL1
      00000098H.2 SFRSYM    DATA     BIT       U0RB8
      000000CCH   SFRSYM    DATA     BYTE      TL2
      000000B8H.4 SFRSYM    DATA     BIT       PS0
      000000DAH   SFRSYM    DATA     BYTE      TL3
      000000BFH   SFRSYM    DATA     BYTE      BUZCON
      000000B8H.6 SFRSYM    DATA     BIT       PS1
      000000B8H.1 SFRSYM    DATA     BIT       PT0
      00000098H.3 SFRSYM    DATA     BIT       U0TB8
      000000E2H   SFRSYM    DATA     BYTE      TL4
      000000D0H.3 SFRSYM    DATA     BIT       RS0
      000000B8H.3 SFRSYM    DATA     BIT       PT1
      000000D0H.4 SFRSYM    DATA     BIT       RS1
      000000B8H.5 SFRSYM    DATA     BIT       PT2
      00000098H.7 SFRSYM    DATA     BIT       U0SM0
      00000088H.4 SFRSYM    DATA     BIT       TR0
      000000BEH   SFRSYM    DATA     BYTE      BUZDIV
      00000098H.6 SFRSYM    DATA     BIT       U0SM1
      00000088H.6 SFRSYM    DATA     BIT       TR1
      000000B8H.0 SFRSYM    DATA     BIT       PX0
      00000098H.5 SFRSYM    DATA     BIT       U0SM2
      000000B8H.2 SFRSYM    DATA     BIT       PX1
      000000BDH   SFRSYM    DATA     BYTE      WUTCRH
      00000099H   SFRSYM    DATA     BYTE      SBUF0
      000000EBH   SFRSYM    DATA     BYTE      SBUF1
      000000BCH   SFRSYM    DATA     BYTE      WUTCRL
      00000098H   SFRSYM    DATA     BYTE      SCON0
      000000EAH   SFRSYM    DATA     BYTE      SCON1
      000000C8H   SFRSYM    DATA     BYTE      T2CON
      00000086H   SFRSYM    DATA     BYTE      DPS
      000000FEH   SFRSYM    DATA     BYTE      MDATA
      000000F6H   SFRSYM    DATA     BYTE      I2CMBUF
      000000F1H   SFRSYM    DATA     BYTE      I2CSADR
      00000098H.4 SFRSYM    DATA     BIT       U0REN
      000000C8H.5 SFRSYM    DATA     BIT       CAPES
      000000FDH   SFRSYM    DATA     BYTE      MADRH
      0000008EH   SFRSYM    DATA     BYTE      CKCON
      000000F3H   SFRSYM    DATA     BYTE      I2CSBUF
      000000FCH   SFRSYM    DATA     BYTE      MADRL
      000000D0H.5 SFRSYM    DATA     BIT       F0
      000000FBH   SFRSYM    DATA     BYTE      MLOCK
      000000D0H   SFRSYM    DATA     BYTE      PSW
      00000097H   SFRSYM    DATA     BYTE      WDCON
      02000055H   SYMBOL    XDATA    INT       CurrentBuf
      01003E3EH   SYMBOL    CONST    ---       _?ix1000
      01002898H   SYMBOL    CODE     ---       _Duty_Calc
      02000059H   SYMBOL    XDATA    CHAR      IsEnableDCDCCounter

      01002C58H   BLOCK     CODE     ---       LVL=0
      ---         BLOCKEND  ---      ---       LVL=0

      0100375CH   BLOCK     CODE     ---       LVL=0
      0100375CH   BLOCK     CODE     NEAR LAB  LVL=1
      00000025H   SYMBOL    DATA     ---       OCInitCfg
      ---         BLOCKEND  ---      ---       LVL=1
      0100375CH   LINE      CODE     ---       #23
      0100375CH   LINE      CODE     ---       #24
      0100375CH   LINE      CODE     ---       #27
      0100375FH   LINE      CODE     ---       #28
LX51 LINKER/LOCATER V4.66.97.0                                                        11/11/2024  12:36:56  PAGE 60


      01003762H   LINE      CODE     ---       #29
      01003765H   LINE      CODE     ---       #31
      01003765H   LINE      CODE     ---       #32
      01003765H   LINE      CODE     ---       #33
      01003765H   LINE      CODE     ---       #34
      01003768H   LINE      CODE     ---       #36
      0100376AH   LINE      CODE     ---       #37
      01003774H   LINE      CODE     ---       #38
      01003776H   LINE      CODE     ---       #39
      01003780H   LINE      CODE     ---       #41
      01003780H   LINE      CODE     ---       #42
      01003783H   LINE      CODE     ---       #43
      ---         BLOCKEND  ---      ---       LVL=0

      0100125FH   BLOCK     CODE     ---       LVL=0
      0100125FH   BLOCK     CODE     NEAR LAB  LVL=1
      00000023H   SYMBOL    DATA     INT       retry
      00000025H   SYMBOL    DATA     INT       i
      02000000H   SYMBOL    XDATA    ---       LastOutput
      02000014H   SYMBOL    XDATA    FLOAT     buf
      02000018H   SYMBOL    XDATA    FLOAT     Err
      ---         BLOCKEND  ---      ---       LVL=1
      0100125FH   LINE      CODE     ---       #46
      0100125FH   LINE      CODE     ---       #47
      0100125FH   LINE      CODE     ---       #48
      01001265H   LINE      CODE     ---       #49
      01001278H   LINE      CODE     ---       #52
      0100127DH   LINE      CODE     ---       #53
      0100127DH   LINE      CODE     ---       #54
      0100127FH   LINE      CODE     ---       #55
      0100128CH   LINE      CODE     ---       #57
      0100128CH   LINE      CODE     ---       #59
      01001298H   LINE      CODE     ---       #60
      0100129AH   LINE      CODE     ---       #61
      0100129CH   LINE      CODE     ---       #62
      0100129EH   LINE      CODE     ---       #63
      010012A3H   LINE      CODE     ---       #64
      010012A5H   LINE      CODE     ---       #67
      010012A5H   LINE      CODE     ---       #68
      010012ACH   LINE      CODE     ---       #69
      010012AFH   LINE      CODE     ---       #70
      010012C6H   LINE      CODE     ---       #71
      010012CEH   LINE      CODE     ---       #72
      010012CEH   LINE      CODE     ---       #73
      010012D3H   LINE      CODE     ---       #75
      010012D9H   LINE      CODE     ---       #76
      010012D9H   LINE      CODE     ---       #77
      010012DBH   LINE      CODE     ---       #78
      010012DCH   LINE      CODE     ---       #79
      010012E9H   LINE      CODE     ---       #81
      010012E9H   LINE      CODE     ---       #83
      010012EFH   LINE      CODE     ---       #84
      010012F1H   LINE      CODE     ---       #85
      010012F8H   LINE      CODE     ---       #86
      010012FDH   LINE      CODE     ---       #88
      010012FDH   LINE      CODE     ---       #89
      01001300H   LINE      CODE     ---       #90
      01001307H   LINE      CODE     ---       #92
      01001351H   LINE      CODE     ---       #93
      0100135FH   LINE      CODE     ---       #95
      01001369H   LINE      CODE     ---       #96
      010013A5H   LINE      CODE     ---       #97
      010013B8H   LINE      CODE     ---       #99
      010013C2H   LINE      CODE     ---       #100
      0100144BH   LINE      CODE     ---       #101
LX51 LINKER/LOCATER V4.66.97.0                                                        11/11/2024  12:36:56  PAGE 61


      01001468H   LINE      CODE     ---       #102
      01001470H   LINE      CODE     ---       #103
      01001470H   LINE      CODE     ---       #104
      01001478H   LINE      CODE     ---       #106
      0100147EH   LINE      CODE     ---       #107
      0100147EH   LINE      CODE     ---       #108
      01001483H   LINE      CODE     ---       #109
      0100148FH   LINE      CODE     ---       #110
      0100148FH   LINE      CODE     ---       #111
      ---         BLOCKEND  ---      ---       LVL=0

      01003BC3H   BLOCK     CODE     ---       LVL=0
      01003BC3H   LINE      CODE     ---       #114
      01003BC3H   LINE      CODE     ---       #115
      01003BC3H   LINE      CODE     ---       #117
      01003BC3H   LINE      CODE     ---       #118
      01003BC6H   LINE      CODE     ---       #120
      01003BC6H   LINE      CODE     ---       #121
      01003BC6H   LINE      CODE     ---       #122
      01003BC6H   LINE      CODE     ---       #123
      01003BC9H   LINE      CODE     ---       #124
      ---         BLOCKEND  ---      ---       LVL=0

      01002898H   BLOCK     CODE     ---       LVL=0
      00000023H   SYMBOL    DATA     FLOAT     ShuntmOhm
      00000027H   SYMBOL    DATA     INT       Current
      00000029H   SYMBOL    DATA     FLOAT     Offset
      010028A0H   BLOCK     CODE     NEAR LAB  LVL=1
      0000002DH   SYMBOL    DATA     FLOAT     buf
      ---         BLOCKEND  ---      ---       LVL=1
      01002898H   LINE      CODE     ---       #127
      010028A0H   LINE      CODE     ---       #128
      010028A0H   LINE      CODE     ---       #130
      010028B3H   LINE      CODE     ---       #131
      010028C0H   LINE      CODE     ---       #132
      010028CEH   LINE      CODE     ---       #133
      010028D9H   LINE      CODE     ---       #134
      01002901H   LINE      CODE     ---       #135
      0100290BH   LINE      CODE     ---       #137
      01002924H   LINE      CODE     ---       #138
      01002937H   LINE      CODE     ---       #139
      0100293FH   LINE      CODE     ---       #140
      ---         BLOCKEND  ---      ---       LVL=0

      01001DCBH   BLOCK     CODE     ---       LVL=0
      01001DCBH   LINE      CODE     ---       #143
      01001DCBH   LINE      CODE     ---       #144
      01001DCBH   LINE      CODE     ---       #146
      01001DD4H   LINE      CODE     ---       #147
      01001DD4H   LINE      CODE     ---       #148
      01001DD6H   LINE      CODE     ---       #149
      01001DDBH   LINE      CODE     ---       #150
      01001DDBH   LINE      CODE     ---       #152
      01001DF2H   LINE      CODE     ---       #153
      01001DFAH   LINE      CODE     ---       #155
      01001E04H   LINE      CODE     ---       #156
      01001E04H   LINE      CODE     ---       #157
      01001E0BH   LINE      CODE     ---       #158
      01001E0BH   LINE      CODE     ---       #159
      01001E15H   LINE      CODE     ---       #160
      01001E17H   LINE      CODE     ---       #161
      01001E17H   LINE      CODE     ---       #162
      01001E29H   LINE      CODE     ---       #163
      01001E29H   LINE      CODE     ---       #164
      01001E29H   LINE      CODE     ---       #165
LX51 LINKER/LOCATER V4.66.97.0                                                        11/11/2024  12:36:56  PAGE 62


      01001E2CH   LINE      CODE     ---       #166
      01001E2DH   LINE      CODE     ---       #168
      01001E3FH   LINE      CODE     ---       #169
      01001E3FH   LINE      CODE     ---       #170
      01001E57H   LINE      CODE     ---       #171
      01001E65H   LINE      CODE     ---       #172
      01001E6EH   LINE      CODE     ---       #173
      01001E70H   LINE      CODE     ---       #174
      01001E72H   LINE      CODE     ---       #175
      01001E74H   LINE      CODE     ---       #176
      01001E75H   LINE      CODE     ---       #179
      01001E75H   LINE      CODE     ---       #180
      01001E96H   LINE      CODE     ---       #181
      01001E98H   LINE      CODE     ---       #182
      01001EA3H   LINE      CODE     ---       #183
      01001EACH   LINE      CODE     ---       #184
      01001EAEH   LINE      CODE     ---       #185
      01001EB0H   LINE      CODE     ---       #186
      01001EB2H   LINE      CODE     ---       #187
      01001EB2H   LINE      CODE     ---       #188
      ---         BLOCKEND  ---      ---       LVL=0

      ---         MODULE    ---      ---       WATCHDOG
      0100002EH   PUBLIC    CODE     ---       GetIfWDogCauseRST
      01003B62H   PUBLIC    CODE     ---       WDog_Feed
      01003B52H   PUBLIC    CODE     ---       WDog_DeInit
      0100000EH   PUBLIC    CODE     ---       WDog_Init
      000000C8H.0 SFRSYM    DATA     BIT       T2I0
      000000C3H   SFRSYM    DATA     BYTE      CCH1
      00000080H   SFRSYM    DATA     BYTE      P0
      000000C8H.1 SFRSYM    DATA     BIT       T2I1
      000000C5H   SFRSYM    DATA     BYTE      CCH2
      00000090H   SFRSYM    DATA     BYTE      P1
      000000C7H   SFRSYM    DATA     BYTE      CCH3
      000000ACH   SFRSYM    DATA     BYTE      P0EXTIE
      000000A0H   SFRSYM    DATA     BYTE      P2
      000000B4H   SFRSYM    DATA     BYTE      P0EXTIF
      000000B0H   SFRSYM    DATA     BYTE      P3
      000000ADH   SFRSYM    DATA     BYTE      P1EXTIE
      000000D0H.6 SFRSYM    DATA     BIT       AC
      000000FFH   SFRSYM    DATA     BYTE      MCTRL
      000000C2H   SFRSYM    DATA     BYTE      CCL1
      000000B5H   SFRSYM    DATA     BYTE      P1EXTIF
      000000AEH   SFRSYM    DATA     BYTE      P2EXTIE
      000000C4H   SFRSYM    DATA     BYTE      CCL2
      000000B6H   SFRSYM    DATA     BYTE      P2EXTIF
      000000AFH   SFRSYM    DATA     BYTE      P3EXTIE
      000000A8H.7 SFRSYM    DATA     BIT       EA
      000000C6H   SFRSYM    DATA     BYTE      CCL3
      000000B7H   SFRSYM    DATA     BYTE      P3EXTIF
      000000AAH   SFRSYM    DATA     BYTE      EIE2
      000000B2H   SFRSYM    DATA     BYTE      EIF2
      000000C8H.3 SFRSYM    DATA     BIT       T2R0
      000000C8H.4 SFRSYM    DATA     BIT       T2R1
      00000083H   SFRSYM    DATA     BYTE      DPH0
      000000A8H   SFRSYM    DATA     BYTE      IE
      00000085H   SFRSYM    DATA     BYTE      DPH1
      000000B9H   SFRSYM    DATA     BYTE      EIP1
      000000BAH   SFRSYM    DATA     BYTE      EIP2
      00000082H   SFRSYM    DATA     BYTE      DPL0
      00000084H   SFRSYM    DATA     BYTE      DPL1
      000000C8H.6 SFRSYM    DATA     BIT       I3FR
      000000CFH   SFRSYM    DATA     BYTE      T2IE
      00000096H   SFRSYM    DATA     BYTE      TA
      000000C9H   SFRSYM    DATA     BYTE      T2IF
LX51 LINKER/LOCATER V4.66.97.0                                                        11/11/2024  12:36:56  PAGE 63


      000000C8H.2 SFRSYM    DATA     BIT       T2CM
      000000DFH   SFRSYM    DATA     BYTE      ADCON0
      000000DEH   SFRSYM    DATA     BYTE      ADCON1
      000000E9H   SFRSYM    DATA     BYTE      ADCON2
      000000B8H   SFRSYM    DATA     BYTE      IP
      000000CEH   SFRSYM    DATA     BYTE      CCEN
      000000D0H.7 SFRSYM    DATA     BIT       CY
      000000D2H   SFRSYM    DATA     BYTE      T34MOD
      00000093H   SFRSYM    DATA     BYTE      DPX0
      00000095H   SFRSYM    DATA     BYTE      DPX1
      000000F4H   SFRSYM    DATA     BYTE      I2CMSA
      000000F5H   SFRSYM    DATA     BYTE      I2CMCR
      00000081H   SFRSYM    DATA     BYTE      SP
      000000D0H.2 SFRSYM    DATA     BIT       OV
      000000F2H   SFRSYM    DATA     BYTE      I2CSCR
      000000C8H.7 SFRSYM    DATA     BIT       T2PS
      000000D1H   SFRSYM    DATA     BYTE      ADCMPC
      000000CBH   SFRSYM    DATA     BYTE      RLDH
      000000D5H   SFRSYM    DATA     BYTE      ADCMPH
      000000CAH   SFRSYM    DATA     BYTE      RLDL
      00000080H.0 SFRSYM    DATA     BIT       P00
      00000090H.0 SFRSYM    DATA     BIT       P10
      00000080H.1 SFRSYM    DATA     BIT       P01
      000000F7H   SFRSYM    DATA     BYTE      I2CMTP
      00000099H   SFRSYM    DATA     BYTE      SBUF
      00000087H   SFRSYM    DATA     BYTE      PCON
      000000A0H.0 SFRSYM    DATA     BIT       P20
      00000090H.1 SFRSYM    DATA     BIT       P11
      00000080H.2 SFRSYM    DATA     BIT       P02
      000000F5H   SFRSYM    DATA     BYTE      I2CMSR
      000000B0H.0 SFRSYM    DATA     BIT       P30
      000000A0H.1 SFRSYM    DATA     BIT       P21
      00000090H.2 SFRSYM    DATA     BIT       P12
      00000080H.3 SFRSYM    DATA     BIT       P03
      000000D4H   SFRSYM    DATA     BYTE      ADCMPL
      000000B0H.1 SFRSYM    DATA     BIT       P31
      000000A0H.2 SFRSYM    DATA     BIT       P22
      00000090H.3 SFRSYM    DATA     BIT       P13
      00000080H.4 SFRSYM    DATA     BIT       P04
      000000B0H.2 SFRSYM    DATA     BIT       P32
      000000A0H.3 SFRSYM    DATA     BIT       P23
      00000090H.4 SFRSYM    DATA     BIT       P14
      00000080H.5 SFRSYM    DATA     BIT       P05
      00000089H   SFRSYM    DATA     BYTE      TMOD
      00000088H   SFRSYM    DATA     BYTE      TCON
      000000B0H.3 SFRSYM    DATA     BIT       P33
      000000A0H.4 SFRSYM    DATA     BIT       P24
      00000090H.5 SFRSYM    DATA     BIT       P15
      00000080H.6 SFRSYM    DATA     BIT       P06
      000000B0H.4 SFRSYM    DATA     BIT       P34
      000000A0H.5 SFRSYM    DATA     BIT       P25
      00000090H.6 SFRSYM    DATA     BIT       P16
      00000080H.7 SFRSYM    DATA     BIT       P07
      000000B0H.5 SFRSYM    DATA     BIT       P35
      000000A0H.6 SFRSYM    DATA     BIT       P26
      00000090H.7 SFRSYM    DATA     BIT       P17
      000000F2H   SFRSYM    DATA     BYTE      I2CSSR
      000000B0H.6 SFRSYM    DATA     BIT       P36
      000000A0H.7 SFRSYM    DATA     BIT       P27
      000000ECH   SFRSYM    DATA     BYTE      SPCR
      000000DDH   SFRSYM    DATA     BYTE      ADRESH
      000000B0H.7 SFRSYM    DATA     BIT       P37
      000000EEH   SFRSYM    DATA     BYTE      SPDR
      000000EFH   SFRSYM    DATA     BYTE      SSCR
      000000D3H   SFRSYM    DATA     BYTE      ADDLYL
LX51 LINKER/LOCATER V4.66.97.0                                                        11/11/2024  12:36:56  PAGE 64


      000000DCH   SFRSYM    DATA     BYTE      ADRESL
      00000088H.1 SFRSYM    DATA     BIT       IE0
      00000088H.3 SFRSYM    DATA     BIT       IE1
      0000008FH   SFRSYM    DATA     BYTE      CLKDIV
      000000F0H   SFRSYM    DATA     BYTE      B
      00000091H   SFRSYM    DATA     BYTE      FUNCCR
      0000009AH   SFRSYM    DATA     BYTE      P0TRIS
      000000A1H   SFRSYM    DATA     BYTE      P1TRIS
      000000A2H   SFRSYM    DATA     BYTE      P2TRIS
      000000E0H   SFRSYM    DATA     BYTE      ACC
      000000A3H   SFRSYM    DATA     BYTE      P3TRIS
      000000A8H.4 SFRSYM    DATA     BIT       ES0
      000000A8H.6 SFRSYM    DATA     BIT       ES1
      000000A8H.1 SFRSYM    DATA     BIT       ET0
      000000EDH   SFRSYM    DATA     BYTE      SPSR
      000000A8H.3 SFRSYM    DATA     BIT       ET1
      00000088H.5 SFRSYM    DATA     BIT       TF0
      000000A8H.5 SFRSYM    DATA     BIT       ET2
      00000098H.0 SFRSYM    DATA     BIT       RI0
      00000088H.7 SFRSYM    DATA     BIT       TF1
      0000008CH   SFRSYM    DATA     BYTE      TH0
      000000A8H.0 SFRSYM    DATA     BIT       EX0
      00000098H.1 SFRSYM    DATA     BIT       TI0
      00000088H.0 SFRSYM    DATA     BIT       IT0
      0000008DH   SFRSYM    DATA     BYTE      TH1
      000000A8H.2 SFRSYM    DATA     BIT       EX1
      00000088H.2 SFRSYM    DATA     BIT       IT1
      000000CDH   SFRSYM    DATA     BYTE      TH2
      000000D0H.0 SFRSYM    DATA     BIT       P
      000000DBH   SFRSYM    DATA     BYTE      TH3
      000000E3H   SFRSYM    DATA     BYTE      TH4
      0000008AH   SFRSYM    DATA     BYTE      TL0
      0000008BH   SFRSYM    DATA     BYTE      TL1
      00000098H.2 SFRSYM    DATA     BIT       U0RB8
      000000CCH   SFRSYM    DATA     BYTE      TL2
      000000B8H.4 SFRSYM    DATA     BIT       PS0
      000000DAH   SFRSYM    DATA     BYTE      TL3
      000000BFH   SFRSYM    DATA     BYTE      BUZCON
      000000B8H.6 SFRSYM    DATA     BIT       PS1
      000000B8H.1 SFRSYM    DATA     BIT       PT0
      00000098H.3 SFRSYM    DATA     BIT       U0TB8
      000000E2H   SFRSYM    DATA     BYTE      TL4
      000000D0H.3 SFRSYM    DATA     BIT       RS0
      000000B8H.3 SFRSYM    DATA     BIT       PT1
      000000D0H.4 SFRSYM    DATA     BIT       RS1
      000000B8H.5 SFRSYM    DATA     BIT       PT2
      00000098H.7 SFRSYM    DATA     BIT       U0SM0
      00000088H.4 SFRSYM    DATA     BIT       TR0
      000000BEH   SFRSYM    DATA     BYTE      BUZDIV
      00000098H.6 SFRSYM    DATA     BIT       U0SM1
      00000088H.6 SFRSYM    DATA     BIT       TR1
      000000B8H.0 SFRSYM    DATA     BIT       PX0
      00000098H.5 SFRSYM    DATA     BIT       U0SM2
      000000B8H.2 SFRSYM    DATA     BIT       PX1
      000000BDH   SFRSYM    DATA     BYTE      WUTCRH
      00000099H   SFRSYM    DATA     BYTE      SBUF0
      000000EBH   SFRSYM    DATA     BYTE      SBUF1
      000000BCH   SFRSYM    DATA     BYTE      WUTCRL
      00000098H   SFRSYM    DATA     BYTE      SCON0
      000000EAH   SFRSYM    DATA     BYTE      SCON1
      000000C8H   SFRSYM    DATA     BYTE      T2CON
      00000086H   SFRSYM    DATA     BYTE      DPS
      000000FEH   SFRSYM    DATA     BYTE      MDATA
      000000F6H   SFRSYM    DATA     BYTE      I2CMBUF
      000000F1H   SFRSYM    DATA     BYTE      I2CSADR
LX51 LINKER/LOCATER V4.66.97.0                                                        11/11/2024  12:36:56  PAGE 65


      00000098H.4 SFRSYM    DATA     BIT       U0REN
      000000C8H.5 SFRSYM    DATA     BIT       CAPES
      000000FDH   SFRSYM    DATA     BYTE      MADRH
      0000008EH   SFRSYM    DATA     BYTE      CKCON
      000000F3H   SFRSYM    DATA     BYTE      I2CSBUF
      000000FCH   SFRSYM    DATA     BYTE      MADRL
      000000D0H.5 SFRSYM    DATA     BIT       F0
      000000FBH   SFRSYM    DATA     BYTE      MLOCK
      000000D0H   SFRSYM    DATA     BYTE      PSW
      00000097H   SFRSYM    DATA     BYTE      WDCON

      0100000EH   BLOCK     CODE     ---       LVL=0
      0100000EH   BLOCK     CODE     NEAR LAB  LVL=1
      0000005EH   SYMBOL    DATA     BYTE      buf
      ---         BLOCKEND  ---      ---       LVL=1
      0100000EH   LINE      CODE     ---       #6
      0100000EH   LINE      CODE     ---       #7
      0100000EH   LINE      CODE     ---       #10
      01000014H   LINE      CODE     ---       #11
      01000017H   LINE      CODE     ---       #12
      0100001AH   LINE      CODE     ---       #14
      0100001CH   LINE      CODE     ---       #15
      0100001DH   LINE      CODE     ---       #16
      01000020H   LINE      CODE     ---       #17
      01000023H   LINE      CODE     ---       #18
      01000026H   LINE      CODE     ---       #19
      01000027H   LINE      CODE     ---       #20
      01000029H   LINE      CODE     ---       #21
      ---         BLOCKEND  ---      ---       LVL=0

      01003B52H   BLOCK     CODE     ---       LVL=0
      01003B52H   LINE      CODE     ---       #25
      01003B52H   LINE      CODE     ---       #26
      01003B52H   LINE      CODE     ---       #27
      01003B54H   LINE      CODE     ---       #28
      01003B55H   LINE      CODE     ---       #29
      01003B58H   LINE      CODE     ---       #30
      01003B5BH   LINE      CODE     ---       #31
      01003B5EH   LINE      CODE     ---       #32
      01003B5FH   LINE      CODE     ---       #33
      01003B61H   LINE      CODE     ---       #34
      ---         BLOCKEND  ---      ---       LVL=0

      01003B62H   BLOCK     CODE     ---       LVL=0
      01003B62H   LINE      CODE     ---       #38
      01003B62H   LINE      CODE     ---       #39
      01003B62H   LINE      CODE     ---       #40
      01003B64H   LINE      CODE     ---       #41
      01003B65H   LINE      CODE     ---       #42
      01003B68H   LINE      CODE     ---       #43
      01003B6BH   LINE      CODE     ---       #44
      01003B6EH   LINE      CODE     ---       #45
      01003B6FH   LINE      CODE     ---       #46
      01003B71H   LINE      CODE     ---       #47
      ---         BLOCKEND  ---      ---       LVL=0

      0100002EH   BLOCK     CODE     ---       LVL=0
      0100002EH   BLOCK     CODE     NEAR LAB  LVL=1
      0000005FH   SYMBOL    DATA     BYTE      buf
      ---         BLOCKEND  ---      ---       LVL=1
      0100002EH   LINE      CODE     ---       #51
      0100002EH   LINE      CODE     ---       #52
      0100002EH   LINE      CODE     ---       #55
      01000030H   LINE      CODE     ---       #56
      01000031H   LINE      CODE     ---       #57
LX51 LINKER/LOCATER V4.66.97.0                                                        11/11/2024  12:36:56  PAGE 66


      01000034H   LINE      CODE     ---       #58
      01000037H   LINE      CODE     ---       #59
      0100003AH   LINE      CODE     ---       #60
      0100003BH   LINE      CODE     ---       #61
      0100003DH   LINE      CODE     ---       #63
      01000046H   LINE      CODE     ---       #64
      ---         BLOCKEND  ---      ---       LVL=0

      ---         MODULE    ---      ---       BATTVOLTDISPLAY
      0200002CH   PUBLIC    XDATA    FLOAT     Battery
      00000022H.5 PUBLIC    BIT      BIT       IsBatteryFault
      00000022H.4 PUBLIC    BIT      BIT       IsBatteryAlert
      02000020H   PUBLIC    XDATA    CHAR      VbattCellCount
      0200001EH   PUBLIC    XDATA    BYTE      VshowFSMState
      01000FD9H   PUBLIC    CODE     ---       BatteryTelemHandler
      010036AAH   PUBLIC    CODE     ---       BattDisplayTIM
      01001FA8H   PUBLIC    CODE     ---       DisplayVBattAtStart
      01003BACH   PUBLIC    CODE     ---       TriggerVshowDisplay
      000000C8H.0 SFRSYM    DATA     BIT       T2I0
      000000C3H   SFRSYM    DATA     BYTE      CCH1
      00000080H   SFRSYM    DATA     BYTE      P0
      000000C8H.1 SFRSYM    DATA     BIT       T2I1
      000000C5H   SFRSYM    DATA     BYTE      CCH2
      00000090H   SFRSYM    DATA     BYTE      P1
      000000C7H   SFRSYM    DATA     BYTE      CCH3
      000000ACH   SFRSYM    DATA     BYTE      P0EXTIE
      000000A0H   SFRSYM    DATA     BYTE      P2
      000000B4H   SFRSYM    DATA     BYTE      P0EXTIF
      000000B0H   SFRSYM    DATA     BYTE      P3
      000000ADH   SFRSYM    DATA     BYTE      P1EXTIE
      000000D0H.6 SFRSYM    DATA     BIT       AC
      000000FFH   SFRSYM    DATA     BYTE      MCTRL
      000000C2H   SFRSYM    DATA     BYTE      CCL1
      000000B5H   SFRSYM    DATA     BYTE      P1EXTIF
      000000AEH   SFRSYM    DATA     BYTE      P2EXTIE
      000000C4H   SFRSYM    DATA     BYTE      CCL2
      000000B6H   SFRSYM    DATA     BYTE      P2EXTIF
      000000AFH   SFRSYM    DATA     BYTE      P3EXTIE
      000000A8H.7 SFRSYM    DATA     BIT       EA
      000000C6H   SFRSYM    DATA     BYTE      CCL3
      000000B7H   SFRSYM    DATA     BYTE      P3EXTIF
      000000AAH   SFRSYM    DATA     BYTE      EIE2
      000000B2H   SFRSYM    DATA     BYTE      EIF2
      000000C8H.3 SFRSYM    DATA     BIT       T2R0
      000000C8H.4 SFRSYM    DATA     BIT       T2R1
      00000083H   SFRSYM    DATA     BYTE      DPH0
      000000A8H   SFRSYM    DATA     BYTE      IE
      00000085H   SFRSYM    DATA     BYTE      DPH1
      000000B9H   SFRSYM    DATA     BYTE      EIP1
      000000BAH   SFRSYM    DATA     BYTE      EIP2
      00000082H   SFRSYM    DATA     BYTE      DPL0
      00000084H   SFRSYM    DATA     BYTE      DPL1
      000000C8H.6 SFRSYM    DATA     BIT       I3FR
      000000CFH   SFRSYM    DATA     BYTE      T2IE
      00000096H   SFRSYM    DATA     BYTE      TA
      000000C9H   SFRSYM    DATA     BYTE      T2IF
      000000C8H.2 SFRSYM    DATA     BIT       T2CM
      000000DFH   SFRSYM    DATA     BYTE      ADCON0
      000000DEH   SFRSYM    DATA     BYTE      ADCON1
      000000E9H   SFRSYM    DATA     BYTE      ADCON2
      000000B8H   SFRSYM    DATA     BYTE      IP
      000000CEH   SFRSYM    DATA     BYTE      CCEN
      000000D0H.7 SFRSYM    DATA     BIT       CY
      000000D2H   SFRSYM    DATA     BYTE      T34MOD
      00000093H   SFRSYM    DATA     BYTE      DPX0
LX51 LINKER/LOCATER V4.66.97.0                                                        11/11/2024  12:36:56  PAGE 67


      00000095H   SFRSYM    DATA     BYTE      DPX1
      000000F4H   SFRSYM    DATA     BYTE      I2CMSA
      000000F5H   SFRSYM    DATA     BYTE      I2CMCR
      00000081H   SFRSYM    DATA     BYTE      SP
      000000D0H.2 SFRSYM    DATA     BIT       OV
      000000F2H   SFRSYM    DATA     BYTE      I2CSCR
      000000C8H.7 SFRSYM    DATA     BIT       T2PS
      000000D1H   SFRSYM    DATA     BYTE      ADCMPC
      000000CBH   SFRSYM    DATA     BYTE      RLDH
      000000D5H   SFRSYM    DATA     BYTE      ADCMPH
      000000CAH   SFRSYM    DATA     BYTE      RLDL
      00000080H.0 SFRSYM    DATA     BIT       P00
      00000090H.0 SFRSYM    DATA     BIT       P10
      00000080H.1 SFRSYM    DATA     BIT       P01
      000000F7H   SFRSYM    DATA     BYTE      I2CMTP
      00000099H   SFRSYM    DATA     BYTE      SBUF
      00000087H   SFRSYM    DATA     BYTE      PCON
      000000A0H.0 SFRSYM    DATA     BIT       P20
      00000090H.1 SFRSYM    DATA     BIT       P11
      00000080H.2 SFRSYM    DATA     BIT       P02
      000000F5H   SFRSYM    DATA     BYTE      I2CMSR
      000000B0H.0 SFRSYM    DATA     BIT       P30
      000000A0H.1 SFRSYM    DATA     BIT       P21
      00000090H.2 SFRSYM    DATA     BIT       P12
      00000080H.3 SFRSYM    DATA     BIT       P03
      000000D4H   SFRSYM    DATA     BYTE      ADCMPL
      000000B0H.1 SFRSYM    DATA     BIT       P31
      000000A0H.2 SFRSYM    DATA     BIT       P22
      00000090H.3 SFRSYM    DATA     BIT       P13
      00000080H.4 SFRSYM    DATA     BIT       P04
      000000B0H.2 SFRSYM    DATA     BIT       P32
      000000A0H.3 SFRSYM    DATA     BIT       P23
      00000090H.4 SFRSYM    DATA     BIT       P14
      00000080H.5 SFRSYM    DATA     BIT       P05
      00000089H   SFRSYM    DATA     BYTE      TMOD
      00000088H   SFRSYM    DATA     BYTE      TCON
      000000B0H.3 SFRSYM    DATA     BIT       P33
      000000A0H.4 SFRSYM    DATA     BIT       P24
      00000090H.5 SFRSYM    DATA     BIT       P15
      00000080H.6 SFRSYM    DATA     BIT       P06
      000000B0H.4 SFRSYM    DATA     BIT       P34
      000000A0H.5 SFRSYM    DATA     BIT       P25
      00000090H.6 SFRSYM    DATA     BIT       P16
      00000080H.7 SFRSYM    DATA     BIT       P07
      000000B0H.5 SFRSYM    DATA     BIT       P35
      000000A0H.6 SFRSYM    DATA     BIT       P26
      00000090H.7 SFRSYM    DATA     BIT       P17
      000000F2H   SFRSYM    DATA     BYTE      I2CSSR
      000000B0H.6 SFRSYM    DATA     BIT       P36
      000000A0H.7 SFRSYM    DATA     BIT       P27
      000000ECH   SFRSYM    DATA     BYTE      SPCR
      000000DDH   SFRSYM    DATA     BYTE      ADRESH
      000000B0H.7 SFRSYM    DATA     BIT       P37
      000000EEH   SFRSYM    DATA     BYTE      SPDR
      000000EFH   SFRSYM    DATA     BYTE      SSCR
      000000D3H   SFRSYM    DATA     BYTE      ADDLYL
      000000DCH   SFRSYM    DATA     BYTE      ADRESL
      00000088H.1 SFRSYM    DATA     BIT       IE0
      000000A0H.2 SFRSYM    DATA     BIT       CSPin
      00000088H.3 SFRSYM    DATA     BIT       IE1
      0000008FH   SFRSYM    DATA     BYTE      CLKDIV
      000000F0H   SFRSYM    DATA     BYTE      B
      00000091H   SFRSYM    DATA     BYTE      FUNCCR
      0000009AH   SFRSYM    DATA     BYTE      P0TRIS
      000000A1H   SFRSYM    DATA     BYTE      P1TRIS
LX51 LINKER/LOCATER V4.66.97.0                                                        11/11/2024  12:36:56  PAGE 68


      000000A2H   SFRSYM    DATA     BYTE      P2TRIS
      000000E0H   SFRSYM    DATA     BYTE      ACC
      000000A3H   SFRSYM    DATA     BYTE      P3TRIS
      000000A8H.4 SFRSYM    DATA     BIT       ES0
      000000A8H.6 SFRSYM    DATA     BIT       ES1
      000000A8H.1 SFRSYM    DATA     BIT       ET0
      000000EDH   SFRSYM    DATA     BYTE      SPSR
      000000A8H.3 SFRSYM    DATA     BIT       ET1
      00000088H.5 SFRSYM    DATA     BIT       TF0
      000000A8H.5 SFRSYM    DATA     BIT       ET2
      00000098H.0 SFRSYM    DATA     BIT       RI0
      00000088H.7 SFRSYM    DATA     BIT       TF1
      0000008CH   SFRSYM    DATA     BYTE      TH0
      000000A8H.0 SFRSYM    DATA     BIT       EX0
      00000098H.1 SFRSYM    DATA     BIT       TI0
      00000088H.0 SFRSYM    DATA     BIT       IT0
      0000008DH   SFRSYM    DATA     BYTE      TH1
      000000A8H.2 SFRSYM    DATA     BIT       EX1
      00000088H.2 SFRSYM    DATA     BIT       IT1
      000000CDH   SFRSYM    DATA     BYTE      TH2
      000000D0H.0 SFRSYM    DATA     BIT       P
      000000DBH   SFRSYM    DATA     BYTE      TH3
      000000E3H   SFRSYM    DATA     BYTE      TH4
      0000008AH   SFRSYM    DATA     BYTE      TL0
      0000008BH   SFRSYM    DATA     BYTE      TL1
      00000098H.2 SFRSYM    DATA     BIT       U0RB8
      000000CCH   SFRSYM    DATA     BYTE      TL2
      000000B8H.4 SFRSYM    DATA     BIT       PS0
      000000DAH   SFRSYM    DATA     BYTE      TL3
      000000BFH   SFRSYM    DATA     BYTE      BUZCON
      000000B8H.6 SFRSYM    DATA     BIT       PS1
      000000B8H.1 SFRSYM    DATA     BIT       PT0
      00000098H.3 SFRSYM    DATA     BIT       U0TB8
      000000E2H   SFRSYM    DATA     BYTE      TL4
      000000D0H.3 SFRSYM    DATA     BIT       RS0
      000000B8H.3 SFRSYM    DATA     BIT       PT1
      000000D0H.4 SFRSYM    DATA     BIT       RS1
      000000B8H.5 SFRSYM    DATA     BIT       PT2
      00000098H.7 SFRSYM    DATA     BIT       U0SM0
      00000088H.4 SFRSYM    DATA     BIT       TR0
      000000BEH   SFRSYM    DATA     BYTE      BUZDIV
      00000098H.6 SFRSYM    DATA     BIT       U0SM1
      00000088H.6 SFRSYM    DATA     BIT       TR1
      000000B8H.0 SFRSYM    DATA     BIT       PX0
      00000098H.5 SFRSYM    DATA     BIT       U0SM2
      000000B8H.2 SFRSYM    DATA     BIT       PX1
      000000BDH   SFRSYM    DATA     BYTE      WUTCRH
      00000099H   SFRSYM    DATA     BYTE      SBUF0
      000000EBH   SFRSYM    DATA     BYTE      SBUF1
      000000BCH   SFRSYM    DATA     BYTE      WUTCRL
      00000098H   SFRSYM    DATA     BYTE      SCON0
      000000EAH   SFRSYM    DATA     BYTE      SCON1
      000000C8H   SFRSYM    DATA     BYTE      T2CON
      00000086H   SFRSYM    DATA     BYTE      DPS
      000000FEH   SFRSYM    DATA     BYTE      MDATA
      000000F6H   SFRSYM    DATA     BYTE      I2CMBUF
      000000F1H   SFRSYM    DATA     BYTE      I2CSADR
      00000098H.4 SFRSYM    DATA     BIT       U0REN
      000000C8H.5 SFRSYM    DATA     BIT       CAPES
      000000FDH   SFRSYM    DATA     BYTE      MADRH
      0000008EH   SFRSYM    DATA     BYTE      CKCON
      000000F3H   SFRSYM    DATA     BYTE      I2CSBUF
      000000FCH   SFRSYM    DATA     BYTE      MADRL
      000000D0H.5 SFRSYM    DATA     BIT       F0
      000000FBH   SFRSYM    DATA     BYTE      MLOCK
LX51 LINKER/LOCATER V4.66.97.0                                                        11/11/2024  12:36:56  PAGE 69


      000000D0H   SFRSYM    DATA     BYTE      PSW
      00000097H   SFRSYM    DATA     BYTE      WDCON
      0200001CH   SYMBOL    XDATA    INT       VshowTIM
      0200001FH   SYMBOL    XDATA    BYTE      BattState
      01001490H   SYMBOL    CODE     ---       BatVshowFSM
      02000021H   SYMBOL    XDATA    ---       BattVolt
      0200002BH   SYMBOL    XDATA    CHAR      BattShowTimer
      02000030H   SYMBOL    XDATA    FLOAT     VbattSample

      01001AA0H   BLOCK     CODE     ---       LVL=0
      ---         BLOCKEND  ---      ---       LVL=0

      01003BACH   BLOCK     CODE     ---       LVL=0
      01003BACH   LINE      CODE     ---       #39
      01003BACH   LINE      CODE     ---       #40
      01003BACH   LINE      CODE     ---       #41
      01003BB2H   LINE      CODE     ---       #42
      01003BB4H   LINE      CODE     ---       #43
      ---         BLOCKEND  ---      ---       LVL=0

      01001490H   BLOCK     CODE     ---       LVL=0
      01001490H   BLOCK     CODE     NEAR LAB  LVL=1
      0000002DH   SYMBOL    DATA     INT       buf
      ---         BLOCKEND  ---      ---       LVL=1
      01001490H   LINE      CODE     ---       #46
      01001490H   LINE      CODE     ---       #47
      01001490H   LINE      CODE     ---       #50
      010014C6H   LINE      CODE     ---       #51
      010014C6H   LINE      CODE     ---       #52
      010014C6H   LINE      CODE     ---       #53
      010014C6H   LINE      CODE     ---       #54
      010014C9H   LINE      CODE     ---       #55
      010014CCH   LINE      CODE     ---       #56
      010014D5H   LINE      CODE     ---       #57
      010014D9H   LINE      CODE     ---       #59
      010014D9H   LINE      CODE     ---       #60
      010014F0H   LINE      CODE     ---       #61
      01001500H   LINE      CODE     ---       #62
      01001510H   LINE      CODE     ---       #63
      01001513H   LINE      CODE     ---       #65
      01001521H   LINE      CODE     ---       #66
      01001530H   LINE      CODE     ---       #67
      0100153FH   LINE      CODE     ---       #68
      0100154AH   LINE      CODE     ---       #69
      01001557H   LINE      CODE     ---       #70
      0100155DH   LINE      CODE     ---       #71
      0100155EH   LINE      CODE     ---       #73
      0100155EH   LINE      CODE     ---       #74
      0100156AH   LINE      CODE     ---       #75
      0100156AH   LINE      CODE     ---       #76
      0100156CH   LINE      CODE     ---       #77
      0100156FH   LINE      CODE     ---       #78
      0100156FH   LINE      CODE     ---       #79
      0100156FH   LINE      CODE     ---       #80
      01001576H   LINE      CODE     ---       #81
      0100157EH   LINE      CODE     ---       #82
      0100157EH   LINE      CODE     ---       #83
      0100157EH   LINE      CODE     ---       #84
      01001584H   LINE      CODE     ---       #85
      01001588H   LINE      CODE     ---       #86
      01001588H   LINE      CODE     ---       #87
      01001589H   LINE      CODE     ---       #89
      01001589H   LINE      CODE     ---       #90
      01001591H   LINE      CODE     ---       #91
      01001597H   LINE      CODE     ---       #92
LX51 LINKER/LOCATER V4.66.97.0                                                        11/11/2024  12:36:56  PAGE 70


      0100159AH   LINE      CODE     ---       #93
      010015A5H   LINE      CODE     ---       #94
      010015B2H   LINE      CODE     ---       #95
      010015B8H   LINE      CODE     ---       #96
      010015B9H   LINE      CODE     ---       #98
      010015B9H   LINE      CODE     ---       #99
      010015C5H   LINE      CODE     ---       #100
      010015C5H   LINE      CODE     ---       #101
      010015C7H   LINE      CODE     ---       #102
      010015CAH   LINE      CODE     ---       #103
      010015CAH   LINE      CODE     ---       #104
      010015CAH   LINE      CODE     ---       #105
      010015D1H   LINE      CODE     ---       #106
      010015D9H   LINE      CODE     ---       #107
      010015D9H   LINE      CODE     ---       #108
      010015D9H   LINE      CODE     ---       #109
      010015DFH   LINE      CODE     ---       #110
      010015E3H   LINE      CODE     ---       #111
      010015E3H   LINE      CODE     ---       #112
      010015E4H   LINE      CODE     ---       #114
      010015E4H   LINE      CODE     ---       #115
      010015ECH   LINE      CODE     ---       #116
      01001600H   LINE      CODE     ---       #117
      01001606H   LINE      CODE     ---       #118
      01001609H   LINE      CODE     ---       #119
      01001614H   LINE      CODE     ---       #120
      01001621H   LINE      CODE     ---       #121
      01001627H   LINE      CODE     ---       #122
      01001628H   LINE      CODE     ---       #124
      01001628H   LINE      CODE     ---       #125
      01001634H   LINE      CODE     ---       #126
      01001634H   LINE      CODE     ---       #127
      01001639H   LINE      CODE     ---       #128
      0100163DH   LINE      CODE     ---       #129
      0100163DH   LINE      CODE     ---       #130
      0100163DH   LINE      CODE     ---       #131
      01001644H   LINE      CODE     ---       #132
      01001649H   LINE      CODE     ---       #133
      01001649H   LINE      CODE     ---       #134
      01001649H   LINE      CODE     ---       #135
      0100164FH   LINE      CODE     ---       #136
      01001653H   LINE      CODE     ---       #137
      01001653H   LINE      CODE     ---       #138
      01001654H   LINE      CODE     ---       #140
      01001654H   LINE      CODE     ---       #141
      01001659H   LINE      CODE     ---       #142
      0100165FH   LINE      CODE     ---       #143
      01001665H   LINE      CODE     ---       #144
      01001666H   LINE      CODE     ---       #146
      01001666H   LINE      CODE     ---       #147
      01001670H   LINE      CODE     ---       #148
      01001675H   LINE      CODE     ---       #149
      01001675H   LINE      CODE     ---       #150
      01001675H   LINE      CODE     ---       #151
      ---         BLOCKEND  ---      ---       LVL=0

      01001FA8H   BLOCK     CODE     ---       LVL=0
      01001FA8H   BLOCK     CODE     NEAR LAB  LVL=1
      00000023H   SYMBOL    DATA     ---       CSInitCfg
      00000026H   SYMBOL    DATA     INT       i
      ---         BLOCKEND  ---      ---       LVL=1
      01001FA8H   LINE      CODE     ---       #154
      01001FA8H   LINE      CODE     ---       #155
      01001FA8H   LINE      CODE     ---       #159
      01001FABH   LINE      CODE     ---       #160
LX51 LINKER/LOCATER V4.66.97.0                                                        11/11/2024  12:36:56  PAGE 71


      01001FAEH   LINE      CODE     ---       #161
      01001FB1H   LINE      CODE     ---       #162
      01001FB9H   LINE      CODE     ---       #163
      01001FBCH   LINE      CODE     ---       #164
      01001FC3H   LINE      CODE     ---       #165
      01001FCFH   LINE      CODE     ---       #166
      01001FD1H   LINE      CODE     ---       #167
      01001FD4H   LINE      CODE     ---       #168
      01001FD7H   LINE      CODE     ---       #169
      01001FDAH   LINE      CODE     ---       #171
      01001FEDH   LINE      CODE     ---       #172
      01001FFDH   LINE      CODE     ---       #173
      0100200FH   LINE      CODE     ---       #174
      01002014H   LINE      CODE     ---       #176
      01002016H   LINE      CODE     ---       #177
      01002018H   LINE      CODE     ---       #179
      01002018H   LINE      CODE     ---       #180
      01002018H   LINE      CODE     ---       #181
      01002018H   LINE      CODE     ---       #182
      01002022H   LINE      CODE     ---       #183
      01002030H   LINE      CODE     ---       #185
      01002033H   LINE      CODE     ---       #186
      01002038H   LINE      CODE     ---       #188
      0100203EH   LINE      CODE     ---       #189
      0100203EH   LINE      CODE     ---       #190
      0100205AH   LINE      CODE     ---       #191
      0100205AH   LINE      CODE     ---       #192
      0100205FH   LINE      CODE     ---       #193
      01002066H   LINE      CODE     ---       #194
      01002070H   LINE      CODE     ---       #195
      01002077H   LINE      CODE     ---       #196
      0100207DH   LINE      CODE     ---       #197
      0100207DH   LINE      CODE     ---       #198
      ---         BLOCKEND  ---      ---       LVL=0

      010036AAH   BLOCK     CODE     ---       LVL=0
      010036AAH   BLOCK     CODE     NEAR LAB  LVL=1
      00000006H   SYMBOL    DATA     CHAR      buf
      ---         BLOCKEND  ---      ---       LVL=1
      010036AAH   LINE      CODE     ---       #200
      010036AAH   LINE      CODE     ---       #201
      010036AAH   LINE      CODE     ---       #204
      010036BBH   LINE      CODE     ---       #206
      010036C3H   LINE      CODE     ---       #207
      010036C3H   LINE      CODE     ---       #208
      010036C6H   LINE      CODE     ---       #209
      010036CAH   LINE      CODE     ---       #210
      010036DBH   LINE      CODE     ---       #211
      010036DBH   LINE      CODE     ---       #212
      010036DCH   LINE      CODE     ---       #213
      010036DFH   LINE      CODE     ---       #214
      010036E0H   LINE      CODE     ---       #217
      010036E5H   LINE      CODE     ---       #218
      ---         BLOCKEND  ---      ---       LVL=0

      01000FD9H   BLOCK     CODE     ---       LVL=0
      01000FD9H   BLOCK     CODE     NEAR LAB  LVL=1
      00000025H   SYMBOL    DATA     FLOAT     AlertThr
      00000029H   SYMBOL    DATA     LONG      buf
      ---         BLOCKEND  ---      ---       LVL=1
      01000FD9H   LINE      CODE     ---       #221
      01000FD9H   LINE      CODE     ---       #222
      01000FD9H   LINE      CODE     ---       #226
      01000FEAH   LINE      CODE     ---       #227
      01000FEAH   LINE      CODE     ---       #228
LX51 LINKER/LOCATER V4.66.97.0                                                        11/11/2024  12:36:56  PAGE 72


      01001007H   LINE      CODE     ---       #229
      01001015H   LINE      CODE     ---       #230
      0100102DH   LINE      CODE     ---       #231
      01001040H   LINE      CODE     ---       #232
      01001059H   LINE      CODE     ---       #233
      0100105BH   LINE      CODE     ---       #235
      0100105BH   LINE      CODE     ---       #236
      0100109BH   LINE      CODE     ---       #237
      010010BFH   LINE      CODE     ---       #238
      010010D0H   LINE      CODE     ---       #239
      010010D0H   LINE      CODE     ---       #240
      010010D0H   LINE      CODE     ---       #241
      010010D0H   LINE      CODE     ---       #242
      010010DAH   LINE      CODE     ---       #243
      010010DAH   LINE      CODE     ---       #245
      010010ECH   LINE      CODE     ---       #246
      010010ECH   LINE      CODE     ---       #247
      010010EEH   LINE      CODE     ---       #248
      010010F0H   LINE      CODE     ---       #249
      010010F2H   LINE      CODE     ---       #251
      010010F2H   LINE      CODE     ---       #252
      01001101H   LINE      CODE     ---       #253
      01001125H   LINE      CODE     ---       #254
      0100113AH   LINE      CODE     ---       #255
      0100114DH   LINE      CODE     ---       #256
      01001152H   LINE      CODE     ---       #257
      01001152H   LINE      CODE     ---       #259
      01001166H   LINE      CODE     ---       #260
      01001166H   LINE      CODE     ---       #262
      01001166H   LINE      CODE     ---       #263
      01001179H   LINE      CODE     ---       #264
      0100117CH   LINE      CODE     ---       #266
      0100117CH   LINE      CODE     ---       #267
      0100118EH   LINE      CODE     ---       #268
      0100119CH   LINE      CODE     ---       #269
      010011A6H   LINE      CODE     ---       #270
      010011A8H   LINE      CODE     ---       #272
      010011A8H   LINE      CODE     ---       #273
      010011BAH   LINE      CODE     ---       #274
      010011C6H   LINE      CODE     ---       #275
      010011D7H   LINE      CODE     ---       #276
      010011D9H   LINE      CODE     ---       #278
      010011D9H   LINE      CODE     ---       #279
      010011EBH   LINE      CODE     ---       #280
      010011F7H   LINE      CODE     ---       #281
      01001203H   LINE      CODE     ---       #282
      01001203H   LINE      CODE     ---       #283
      01001203H   LINE      CODE     ---       #285
      01001218H   LINE      CODE     ---       #286
      01001221H   LINE      CODE     ---       #287
      01001242H   LINE      CODE     ---       #288
      01001242H   LINE      CODE     ---       #289
      01001246H   LINE      CODE     ---       #290
      0100124AH   LINE      CODE     ---       #291
      0100124EH   LINE      CODE     ---       #292
      01001252H   LINE      CODE     ---       #293
      01001252H   LINE      CODE     ---       #294
      0100125BH   LINE      CODE     ---       #295
      0100125EH   LINE      CODE     ---       #296
      ---         BLOCKEND  ---      ---       LVL=0

      ---         MODULE    ---      ---       TEMPCONTROL
      00000022H.3 PUBLIC    BIT      BIT       IsForceLeaveTurbo
      00000022H.2 PUBLIC    BIT      BIT       IsTempLIMActive
      00000022H.1 PUBLIC    BIT      BIT       IsDisableTurbo
LX51 LINKER/LOCATER V4.66.97.0                                                        11/11/2024  12:36:56  PAGE 73


      01001681H   PUBLIC    CODE     ---       ThermalCalcProcess
      01001BB6H   PUBLIC    CODE     ---       _ThermalILIMCalc
      01003A66H   PUBLIC    CODE     ---       CheckNTCStatus
      000000C8H.0 SFRSYM    DATA     BIT       T2I0
      000000C3H   SFRSYM    DATA     BYTE      CCH1
      00000080H   SFRSYM    DATA     BYTE      P0
      000000C8H.1 SFRSYM    DATA     BIT       T2I1
      000000C5H   SFRSYM    DATA     BYTE      CCH2
      00000090H   SFRSYM    DATA     BYTE      P1
      000000C7H   SFRSYM    DATA     BYTE      CCH3
      000000ACH   SFRSYM    DATA     BYTE      P0EXTIE
      000000A0H   SFRSYM    DATA     BYTE      P2
      000000B4H   SFRSYM    DATA     BYTE      P0EXTIF
      000000B0H   SFRSYM    DATA     BYTE      P3
      000000ADH   SFRSYM    DATA     BYTE      P1EXTIE
      000000D0H.6 SFRSYM    DATA     BIT       AC
      000000FFH   SFRSYM    DATA     BYTE      MCTRL
      000000C2H   SFRSYM    DATA     BYTE      CCL1
      000000B5H   SFRSYM    DATA     BYTE      P1EXTIF
      000000AEH   SFRSYM    DATA     BYTE      P2EXTIE
      000000C4H   SFRSYM    DATA     BYTE      CCL2
      000000B6H   SFRSYM    DATA     BYTE      P2EXTIF
      000000AFH   SFRSYM    DATA     BYTE      P3EXTIE
      000000A8H.7 SFRSYM    DATA     BIT       EA
      000000C6H   SFRSYM    DATA     BYTE      CCL3
      000000B7H   SFRSYM    DATA     BYTE      P3EXTIF
      000000AAH   SFRSYM    DATA     BYTE      EIE2
      000000B2H   SFRSYM    DATA     BYTE      EIF2
      000000C8H.3 SFRSYM    DATA     BIT       T2R0
      000000C8H.4 SFRSYM    DATA     BIT       T2R1
      00000083H   SFRSYM    DATA     BYTE      DPH0
      000000A8H   SFRSYM    DATA     BYTE      IE
      00000085H   SFRSYM    DATA     BYTE      DPH1
      000000B9H   SFRSYM    DATA     BYTE      EIP1
      000000BAH   SFRSYM    DATA     BYTE      EIP2
      00000082H   SFRSYM    DATA     BYTE      DPL0
      00000084H   SFRSYM    DATA     BYTE      DPL1
      000000C8H.6 SFRSYM    DATA     BIT       I3FR
      000000CFH   SFRSYM    DATA     BYTE      T2IE
      00000096H   SFRSYM    DATA     BYTE      TA
      000000C9H   SFRSYM    DATA     BYTE      T2IF
      000000C8H.2 SFRSYM    DATA     BIT       T2CM
      000000DFH   SFRSYM    DATA     BYTE      ADCON0
      000000DEH   SFRSYM    DATA     BYTE      ADCON1
      000000E9H   SFRSYM    DATA     BYTE      ADCON2
      000000B8H   SFRSYM    DATA     BYTE      IP
      000000CEH   SFRSYM    DATA     BYTE      CCEN
      000000D0H.7 SFRSYM    DATA     BIT       CY
      000000D2H   SFRSYM    DATA     BYTE      T34MOD
      00000093H   SFRSYM    DATA     BYTE      DPX0
      00000095H   SFRSYM    DATA     BYTE      DPX1
      000000F4H   SFRSYM    DATA     BYTE      I2CMSA
      000000F5H   SFRSYM    DATA     BYTE      I2CMCR
      00000081H   SFRSYM    DATA     BYTE      SP
      000000D0H.2 SFRSYM    DATA     BIT       OV
      000000F2H   SFRSYM    DATA     BYTE      I2CSCR
      000000C8H.7 SFRSYM    DATA     BIT       T2PS
      000000D1H   SFRSYM    DATA     BYTE      ADCMPC
      000000CBH   SFRSYM    DATA     BYTE      RLDH
      000000D5H   SFRSYM    DATA     BYTE      ADCMPH
      000000CAH   SFRSYM    DATA     BYTE      RLDL
      00000080H.0 SFRSYM    DATA     BIT       P00
      00000090H.0 SFRSYM    DATA     BIT       P10
      00000080H.1 SFRSYM    DATA     BIT       P01
      000000F7H   SFRSYM    DATA     BYTE      I2CMTP
LX51 LINKER/LOCATER V4.66.97.0                                                        11/11/2024  12:36:56  PAGE 74


      00000099H   SFRSYM    DATA     BYTE      SBUF
      00000087H   SFRSYM    DATA     BYTE      PCON
      000000A0H.0 SFRSYM    DATA     BIT       P20
      00000090H.1 SFRSYM    DATA     BIT       P11
      00000080H.2 SFRSYM    DATA     BIT       P02
      000000F5H   SFRSYM    DATA     BYTE      I2CMSR
      000000B0H.0 SFRSYM    DATA     BIT       P30
      000000A0H.1 SFRSYM    DATA     BIT       P21
      00000090H.2 SFRSYM    DATA     BIT       P12
      00000080H.3 SFRSYM    DATA     BIT       P03
      000000D4H   SFRSYM    DATA     BYTE      ADCMPL
      000000B0H.1 SFRSYM    DATA     BIT       P31
      000000A0H.2 SFRSYM    DATA     BIT       P22
      00000090H.3 SFRSYM    DATA     BIT       P13
      00000080H.4 SFRSYM    DATA     BIT       P04
      000000B0H.2 SFRSYM    DATA     BIT       P32
      000000A0H.3 SFRSYM    DATA     BIT       P23
      00000090H.4 SFRSYM    DATA     BIT       P14
      00000080H.5 SFRSYM    DATA     BIT       P05
      00000089H   SFRSYM    DATA     BYTE      TMOD
      00000088H   SFRSYM    DATA     BYTE      TCON
      000000B0H.3 SFRSYM    DATA     BIT       P33
      000000A0H.4 SFRSYM    DATA     BIT       P24
      00000090H.5 SFRSYM    DATA     BIT       P15
      00000080H.6 SFRSYM    DATA     BIT       P06
      000000B0H.4 SFRSYM    DATA     BIT       P34
      000000A0H.5 SFRSYM    DATA     BIT       P25
      00000090H.6 SFRSYM    DATA     BIT       P16
      00000080H.7 SFRSYM    DATA     BIT       P07
      000000B0H.5 SFRSYM    DATA     BIT       P35
      000000A0H.6 SFRSYM    DATA     BIT       P26
      00000090H.7 SFRSYM    DATA     BIT       P17
      000000F2H   SFRSYM    DATA     BYTE      I2CSSR
      000000B0H.6 SFRSYM    DATA     BIT       P36
      000000A0H.7 SFRSYM    DATA     BIT       P27
      000000ECH   SFRSYM    DATA     BYTE      SPCR
      000000DDH   SFRSYM    DATA     BYTE      ADRESH
      000000B0H.7 SFRSYM    DATA     BIT       P37
      000000EEH   SFRSYM    DATA     BYTE      SPDR
      000000EFH   SFRSYM    DATA     BYTE      SSCR
      000000D3H   SFRSYM    DATA     BYTE      ADDLYL
      000000DCH   SFRSYM    DATA     BYTE      ADRESL
      00000088H.1 SFRSYM    DATA     BIT       IE0
      00000088H.3 SFRSYM    DATA     BIT       IE1
      0000008FH   SFRSYM    DATA     BYTE      CLKDIV
      000000F0H   SFRSYM    DATA     BYTE      B
      00000091H   SFRSYM    DATA     BYTE      FUNCCR
      0000009AH   SFRSYM    DATA     BYTE      P0TRIS
      000000A1H   SFRSYM    DATA     BYTE      P1TRIS
      000000A2H   SFRSYM    DATA     BYTE      P2TRIS
      000000E0H   SFRSYM    DATA     BYTE      ACC
      000000A3H   SFRSYM    DATA     BYTE      P3TRIS
      000000A8H.4 SFRSYM    DATA     BIT       ES0
      000000A8H.6 SFRSYM    DATA     BIT       ES1
      000000A8H.1 SFRSYM    DATA     BIT       ET0
      000000EDH   SFRSYM    DATA     BYTE      SPSR
      000000A8H.3 SFRSYM    DATA     BIT       ET1
      00000088H.5 SFRSYM    DATA     BIT       TF0
      000000A8H.5 SFRSYM    DATA     BIT       ET2
      00000098H.0 SFRSYM    DATA     BIT       RI0
      00000088H.7 SFRSYM    DATA     BIT       TF1
      0000008CH   SFRSYM    DATA     BYTE      TH0
      000000A8H.0 SFRSYM    DATA     BIT       EX0
      00000098H.1 SFRSYM    DATA     BIT       TI0
      00000088H.0 SFRSYM    DATA     BIT       IT0
LX51 LINKER/LOCATER V4.66.97.0                                                        11/11/2024  12:36:56  PAGE 75


      0000008DH   SFRSYM    DATA     BYTE      TH1
      000000A8H.2 SFRSYM    DATA     BIT       EX1
      00000088H.2 SFRSYM    DATA     BIT       IT1
      000000CDH   SFRSYM    DATA     BYTE      TH2
      000000D0H.0 SFRSYM    DATA     BIT       P
      000000DBH   SFRSYM    DATA     BYTE      TH3
      000000E3H   SFRSYM    DATA     BYTE      TH4
      0000008AH   SFRSYM    DATA     BYTE      TL0
      0000008BH   SFRSYM    DATA     BYTE      TL1
      00000098H.2 SFRSYM    DATA     BIT       U0RB8
      000000CCH   SFRSYM    DATA     BYTE      TL2
      000000B8H.4 SFRSYM    DATA     BIT       PS0
      000000DAH   SFRSYM    DATA     BYTE      TL3
      000000BFH   SFRSYM    DATA     BYTE      BUZCON
      000000B8H.6 SFRSYM    DATA     BIT       PS1
      000000B8H.1 SFRSYM    DATA     BIT       PT0
      00000098H.3 SFRSYM    DATA     BIT       U0TB8
      000000E2H   SFRSYM    DATA     BYTE      TL4
      000000D0H.3 SFRSYM    DATA     BIT       RS0
      000000B8H.3 SFRSYM    DATA     BIT       PT1
      000000D0H.4 SFRSYM    DATA     BIT       RS1
      000000B8H.5 SFRSYM    DATA     BIT       PT2
      00000098H.7 SFRSYM    DATA     BIT       U0SM0
      00000088H.4 SFRSYM    DATA     BIT       TR0
      000000BEH   SFRSYM    DATA     BYTE      BUZDIV
      00000098H.6 SFRSYM    DATA     BIT       U0SM1
      00000088H.6 SFRSYM    DATA     BIT       TR1
      000000B8H.0 SFRSYM    DATA     BIT       PX0
      00000098H.5 SFRSYM    DATA     BIT       U0SM2
      000000B8H.2 SFRSYM    DATA     BIT       PX1
      000000BDH   SFRSYM    DATA     BYTE      WUTCRH
      00000099H   SFRSYM    DATA     BYTE      SBUF0
      000000EBH   SFRSYM    DATA     BYTE      SBUF1
      000000BCH   SFRSYM    DATA     BYTE      WUTCRL
      00000098H   SFRSYM    DATA     BYTE      SCON0
      000000EAH   SFRSYM    DATA     BYTE      SCON1
      000000C8H   SFRSYM    DATA     BYTE      T2CON
      00000086H   SFRSYM    DATA     BYTE      DPS
      000000FEH   SFRSYM    DATA     BYTE      MDATA
      000000F6H   SFRSYM    DATA     BYTE      I2CMBUF
      000000F1H   SFRSYM    DATA     BYTE      I2CSADR
      00000098H.4 SFRSYM    DATA     BIT       U0REN
      000000C8H.5 SFRSYM    DATA     BIT       CAPES
      000000FDH   SFRSYM    DATA     BYTE      MADRH
      0000008EH   SFRSYM    DATA     BYTE      CKCON
      000000F3H   SFRSYM    DATA     BYTE      I2CSBUF
      000000FCH   SFRSYM    DATA     BYTE      MADRL
      000000D0H.5 SFRSYM    DATA     BIT       F0
      000000FBH   SFRSYM    DATA     BYTE      MLOCK
      000000D0H   SFRSYM    DATA     BYTE      PSW
      00000097H   SFRSYM    DATA     BYTE      WDCON
      0100382FH   SYMBOL    CODE     ---       _PresentLIM
      0000001BH   SYMBOL    DATA     INT       TempIntegral
      0000001DH   SYMBOL    DATA     INT       TempProtBuf

      01003911H   BLOCK     CODE     ---       LVL=0
      ---         BLOCKEND  ---      ---       LVL=0

      01003A66H   BLOCK     CODE     ---       LVL=0
      01003A66H   BLOCK     CODE     NEAR LAB  LVL=1
      00000023H   SYMBOL    DATA     CHAR      i
      ---         BLOCKEND  ---      ---       LVL=1
      01003A66H   LINE      CODE     ---       #28
      01003A66H   LINE      CODE     ---       #29
      01003A66H   LINE      CODE     ---       #30
LX51 LINKER/LOCATER V4.66.97.0                                                        11/11/2024  12:36:56  PAGE 76


      01003A69H   LINE      CODE     ---       #33
      01003A69H   LINE      CODE     ---       #34
      01003A70H   LINE      CODE     ---       #35
      01003A73H   LINE      CODE     ---       #36
      01003A77H   LINE      CODE     ---       #37
      01003A7AH   LINE      CODE     ---       #38
      01003A7AH   LINE      CODE     ---       #39
      01003A7AH   LINE      CODE     ---       #40
      01003A7EH   LINE      CODE     ---       #41
      01003A7EH   LINE      CODE     ---       #42
      01003A81H   LINE      CODE     ---       #43
      01003A84H   LINE      CODE     ---       #44
      01003A86H   LINE      CODE     ---       #45
      01003A86H   LINE      CODE     ---       #46
      ---         BLOCKEND  ---      ---       LVL=0

      0100382FH   BLOCK     CODE     ---       LVL=0
      00000033H   SYMBOL    DATA     FLOAT     IN
      0100382FH   LINE      CODE     ---       #49
      01003837H   LINE      CODE     ---       #50
      01003837H   LINE      CODE     ---       #51
      01003845H   LINE      CODE     ---       #52
      01003855H   LINE      CODE     ---       #54
      0100385DH   LINE      CODE     ---       #55
      ---         BLOCKEND  ---      ---       LVL=0

      01001BB6H   BLOCK     CODE     ---       LVL=0
      00000025H   SYMBOL    DATA     INT       Input
      01001BBAH   BLOCK     CODE     NEAR LAB  LVL=1
      00000027H   SYMBOL    DATA     FLOAT     buf
      0000002BH   SYMBOL    DATA     FLOAT     ILED
      0000002FH   SYMBOL    DATA     FLOAT     itgbuf
      ---         BLOCKEND  ---      ---       LVL=1
      01001BB6H   LINE      CODE     ---       #58
      01001BBAH   LINE      CODE     ---       #59
      01001BBAH   LINE      CODE     ---       #62
      01001BCFH   LINE      CODE     ---       #64
      01001BEAH   LINE      CODE     ---       #65
      01001BF4H   LINE      CODE     ---       #66
      01001BF7H   LINE      CODE     ---       #68
      01001C12H   LINE      CODE     ---       #69
      01001C3FH   LINE      CODE     ---       #70
      01001C42H   LINE      CODE     ---       #72
      01001C54H   LINE      CODE     ---       #73
      01001C73H   LINE      CODE     ---       #74
      01001CA4H   LINE      CODE     ---       #75
      01001CAFH   LINE      CODE     ---       #76
      ---         BLOCKEND  ---      ---       LVL=0

      01001681H   BLOCK     CODE     ---       LVL=0
      01001681H   BLOCK     CODE     NEAR LAB  LVL=1
      00000002H   SYMBOL    DATA     INT       Err
      ---         BLOCKEND  ---      ---       LVL=1
      01001681H   LINE      CODE     ---       #79
      01001681H   LINE      CODE     ---       #80
      01001681H   LINE      CODE     ---       #83
      01001685H   LINE      CODE     ---       #84
      01001685H   LINE      CODE     ---       #85
      01001687H   LINE      CODE     ---       #86
      01001691H   LINE      CODE     ---       #88
      01001691H   LINE      CODE     ---       #90
      010016A1H   LINE      CODE     ---       #91
      010016B0H   LINE      CODE     ---       #92
      010016BDH   LINE      CODE     ---       #93
      010016C5H   LINE      CODE     ---       #95
LX51 LINKER/LOCATER V4.66.97.0                                                        11/11/2024  12:36:56  PAGE 77


      010016D0H   LINE      CODE     ---       #96
      010016D0H   LINE      CODE     ---       #97
      010016D2H   LINE      CODE     ---       #98
      010016DFH   LINE      CODE     ---       #100
      010016DFH   LINE      CODE     ---       #101
      010016F5H   LINE      CODE     ---       #102
      010016F5H   LINE      CODE     ---       #103
      010016F6H   LINE      CODE     ---       #104
      010016FAH   LINE      CODE     ---       #105
      010016FAH   LINE      CODE     ---       #107
      0100170CH   LINE      CODE     ---       #108
      0100171EH   LINE      CODE     ---       #109
      0100172BH   LINE      CODE     ---       #111
      0100172EH   LINE      CODE     ---       #112
      0100172EH   LINE      CODE     ---       #113
      01001733H   LINE      CODE     ---       #114
      01001737H   LINE      CODE     ---       #115
      01001738H   LINE      CODE     ---       #117
      0100174CH   LINE      CODE     ---       #118
      0100174CH   LINE      CODE     ---       #120
      01001759H   LINE      CODE     ---       #122
      010017B1H   LINE      CODE     ---       #123
      010017C4H   LINE      CODE     ---       #124
      010017D2H   LINE      CODE     ---       #126
      010017DCH   LINE      CODE     ---       #127
      010017EFH   LINE      CODE     ---       #128
      01001802H   LINE      CODE     ---       #129
      01001802H   LINE      CODE     ---       #130
      ---         BLOCKEND  ---      ---       LVL=0

      ---         MODULE    ---      ---       SLEEP
      00000022H.7 PUBLIC    BIT      BIT       IsWakupFromSleep
      01002D7BH   PUBLIC    CODE     ---       SleepMgmt
      000000C8H.0 SFRSYM    DATA     BIT       T2I0
      000000C3H   SFRSYM    DATA     BYTE      CCH1
      00000080H   SFRSYM    DATA     BYTE      P0
      000000C8H.1 SFRSYM    DATA     BIT       T2I1
      000000C5H   SFRSYM    DATA     BYTE      CCH2
      00000090H   SFRSYM    DATA     BYTE      P1
      000000C7H   SFRSYM    DATA     BYTE      CCH3
      000000ACH   SFRSYM    DATA     BYTE      P0EXTIE
      000000A0H   SFRSYM    DATA     BYTE      P2
      000000B4H   SFRSYM    DATA     BYTE      P0EXTIF
      000000B0H   SFRSYM    DATA     BYTE      P3
      000000ADH   SFRSYM    DATA     BYTE      P1EXTIE
      000000D0H.6 SFRSYM    DATA     BIT       AC
      000000FFH   SFRSYM    DATA     BYTE      MCTRL
      000000C2H   SFRSYM    DATA     BYTE      CCL1
      000000B5H   SFRSYM    DATA     BYTE      P1EXTIF
      000000AEH   SFRSYM    DATA     BYTE      P2EXTIE
      000000C4H   SFRSYM    DATA     BYTE      CCL2
      000000B6H   SFRSYM    DATA     BYTE      P2EXTIF
      000000AFH   SFRSYM    DATA     BYTE      P3EXTIE
      000000A8H.7 SFRSYM    DATA     BIT       EA
      000000C6H   SFRSYM    DATA     BYTE      CCL3
      000000B7H   SFRSYM    DATA     BYTE      P3EXTIF
      000000AAH   SFRSYM    DATA     BYTE      EIE2
      000000B2H   SFRSYM    DATA     BYTE      EIF2
      000000C8H.3 SFRSYM    DATA     BIT       T2R0
      000000C8H.4 SFRSYM    DATA     BIT       T2R1
      00000083H   SFRSYM    DATA     BYTE      DPH0
      000000A8H   SFRSYM    DATA     BYTE      IE
      00000085H   SFRSYM    DATA     BYTE      DPH1
      000000B9H   SFRSYM    DATA     BYTE      EIP1
      000000BAH   SFRSYM    DATA     BYTE      EIP2
LX51 LINKER/LOCATER V4.66.97.0                                                        11/11/2024  12:36:56  PAGE 78


      00000082H   SFRSYM    DATA     BYTE      DPL0
      00000084H   SFRSYM    DATA     BYTE      DPL1
      000000C8H.6 SFRSYM    DATA     BIT       I3FR
      000000CFH   SFRSYM    DATA     BYTE      T2IE
      00000096H   SFRSYM    DATA     BYTE      TA
      000000C9H   SFRSYM    DATA     BYTE      T2IF
      000000C8H.2 SFRSYM    DATA     BIT       T2CM
      000000DFH   SFRSYM    DATA     BYTE      ADCON0
      000000DEH   SFRSYM    DATA     BYTE      ADCON1
      000000E9H   SFRSYM    DATA     BYTE      ADCON2
      000000B8H   SFRSYM    DATA     BYTE      IP
      000000CEH   SFRSYM    DATA     BYTE      CCEN
      000000D0H.7 SFRSYM    DATA     BIT       CY
      000000D2H   SFRSYM    DATA     BYTE      T34MOD
      00000093H   SFRSYM    DATA     BYTE      DPX0
      00000095H   SFRSYM    DATA     BYTE      DPX1
      000000F4H   SFRSYM    DATA     BYTE      I2CMSA
      000000F5H   SFRSYM    DATA     BYTE      I2CMCR
      00000081H   SFRSYM    DATA     BYTE      SP
      000000D0H.2 SFRSYM    DATA     BIT       OV
      000000F2H   SFRSYM    DATA     BYTE      I2CSCR
      000000C8H.7 SFRSYM    DATA     BIT       T2PS
      000000D1H   SFRSYM    DATA     BYTE      ADCMPC
      000000CBH   SFRSYM    DATA     BYTE      RLDH
      000000D5H   SFRSYM    DATA     BYTE      ADCMPH
      000000CAH   SFRSYM    DATA     BYTE      RLDL
      00000080H.0 SFRSYM    DATA     BIT       P00
      00000090H.0 SFRSYM    DATA     BIT       P10
      00000080H.1 SFRSYM    DATA     BIT       P01
      000000F7H   SFRSYM    DATA     BYTE      I2CMTP
      00000099H   SFRSYM    DATA     BYTE      SBUF
      00000087H   SFRSYM    DATA     BYTE      PCON
      000000A0H.0 SFRSYM    DATA     BIT       P20
      00000090H.1 SFRSYM    DATA     BIT       P11
      00000080H.2 SFRSYM    DATA     BIT       P02
      000000F5H   SFRSYM    DATA     BYTE      I2CMSR
      000000B0H.0 SFRSYM    DATA     BIT       P30
      000000A0H.1 SFRSYM    DATA     BIT       P21
      00000090H.2 SFRSYM    DATA     BIT       P12
      00000080H.3 SFRSYM    DATA     BIT       P03
      000000D4H   SFRSYM    DATA     BYTE      ADCMPL
      000000B0H.1 SFRSYM    DATA     BIT       P31
      000000A0H.2 SFRSYM    DATA     BIT       P22
      00000090H.3 SFRSYM    DATA     BIT       P13
      00000080H.4 SFRSYM    DATA     BIT       P04
      000000B0H.2 SFRSYM    DATA     BIT       P32
      000000A0H.3 SFRSYM    DATA     BIT       P23
      00000090H.4 SFRSYM    DATA     BIT       P14
      00000080H.5 SFRSYM    DATA     BIT       P05
      00000089H   SFRSYM    DATA     BYTE      TMOD
      00000088H   SFRSYM    DATA     BYTE      TCON
      000000B0H.3 SFRSYM    DATA     BIT       P33
      000000A0H.4 SFRSYM    DATA     BIT       P24
      00000090H.5 SFRSYM    DATA     BIT       P15
      00000080H.6 SFRSYM    DATA     BIT       P06
      000000B0H.4 SFRSYM    DATA     BIT       P34
      000000A0H.5 SFRSYM    DATA     BIT       P25
      00000090H.6 SFRSYM    DATA     BIT       P16
      00000080H.7 SFRSYM    DATA     BIT       P07
      000000B0H.5 SFRSYM    DATA     BIT       P35
      000000A0H.6 SFRSYM    DATA     BIT       P26
      00000090H.7 SFRSYM    DATA     BIT       P17
      000000F2H   SFRSYM    DATA     BYTE      I2CSSR
      000000B0H.6 SFRSYM    DATA     BIT       P36
      000000A0H.7 SFRSYM    DATA     BIT       P27
LX51 LINKER/LOCATER V4.66.97.0                                                        11/11/2024  12:36:56  PAGE 79


      000000ECH   SFRSYM    DATA     BYTE      SPCR
      000000DDH   SFRSYM    DATA     BYTE      ADRESH
      000000B0H.7 SFRSYM    DATA     BIT       P37
      000000EEH   SFRSYM    DATA     BYTE      SPDR
      000000EFH   SFRSYM    DATA     BYTE      SSCR
      000000D3H   SFRSYM    DATA     BYTE      ADDLYL
      000000DCH   SFRSYM    DATA     BYTE      ADRESL
      00000088H.1 SFRSYM    DATA     BIT       IE0
      00000088H.3 SFRSYM    DATA     BIT       IE1
      0000008FH   SFRSYM    DATA     BYTE      CLKDIV
      000000F0H   SFRSYM    DATA     BYTE      B
      00000091H   SFRSYM    DATA     BYTE      FUNCCR
      0000009AH   SFRSYM    DATA     BYTE      P0TRIS
      000000A1H   SFRSYM    DATA     BYTE      P1TRIS
      000000A2H   SFRSYM    DATA     BYTE      P2TRIS
      000000E0H   SFRSYM    DATA     BYTE      ACC
      000000A3H   SFRSYM    DATA     BYTE      P3TRIS
      000000A8H.4 SFRSYM    DATA     BIT       ES0
      000000A8H.6 SFRSYM    DATA     BIT       ES1
      000000A8H.1 SFRSYM    DATA     BIT       ET0
      000000EDH   SFRSYM    DATA     BYTE      SPSR
      000000A8H.3 SFRSYM    DATA     BIT       ET1
      00000088H.5 SFRSYM    DATA     BIT       TF0
      000000A8H.5 SFRSYM    DATA     BIT       ET2
      00000098H.0 SFRSYM    DATA     BIT       RI0
      00000088H.7 SFRSYM    DATA     BIT       TF1
      0000008CH   SFRSYM    DATA     BYTE      TH0
      000000A8H.0 SFRSYM    DATA     BIT       EX0
      00000098H.1 SFRSYM    DATA     BIT       TI0
      00000088H.0 SFRSYM    DATA     BIT       IT0
      0000008DH   SFRSYM    DATA     BYTE      TH1
      000000A8H.2 SFRSYM    DATA     BIT       EX1
      00000088H.2 SFRSYM    DATA     BIT       IT1
      000000CDH   SFRSYM    DATA     BYTE      TH2
      000000D0H.0 SFRSYM    DATA     BIT       P
      000000DBH   SFRSYM    DATA     BYTE      TH3
      000000E3H   SFRSYM    DATA     BYTE      TH4
      0000008AH   SFRSYM    DATA     BYTE      TL0
      0000008BH   SFRSYM    DATA     BYTE      TL1
      00000098H.2 SFRSYM    DATA     BIT       U0RB8
      000000CCH   SFRSYM    DATA     BYTE      TL2
      000000B8H.4 SFRSYM    DATA     BIT       PS0
      000000DAH   SFRSYM    DATA     BYTE      TL3
      000000BFH   SFRSYM    DATA     BYTE      BUZCON
      000000B8H.6 SFRSYM    DATA     BIT       PS1
      000000B8H.1 SFRSYM    DATA     BIT       PT0
      00000098H.3 SFRSYM    DATA     BIT       U0TB8
      000000E2H   SFRSYM    DATA     BYTE      TL4
      000000D0H.3 SFRSYM    DATA     BIT       RS0
      000000B8H.3 SFRSYM    DATA     BIT       PT1
      000000D0H.4 SFRSYM    DATA     BIT       RS1
      000000B8H.5 SFRSYM    DATA     BIT       PT2
      00000098H.7 SFRSYM    DATA     BIT       U0SM0
      00000088H.4 SFRSYM    DATA     BIT       TR0
      000000BEH   SFRSYM    DATA     BYTE      BUZDIV
      00000098H.6 SFRSYM    DATA     BIT       U0SM1
      00000088H.6 SFRSYM    DATA     BIT       TR1
      000000B8H.0 SFRSYM    DATA     BIT       PX0
      00000098H.5 SFRSYM    DATA     BIT       U0SM2
      000000B8H.2 SFRSYM    DATA     BIT       PX1
      000000BDH   SFRSYM    DATA     BYTE      WUTCRH
      00000099H   SFRSYM    DATA     BYTE      SBUF0
      000000EBH   SFRSYM    DATA     BYTE      SBUF1
      000000BCH   SFRSYM    DATA     BYTE      WUTCRL
      00000098H   SFRSYM    DATA     BYTE      SCON0
LX51 LINKER/LOCATER V4.66.97.0                                                        11/11/2024  12:36:56  PAGE 80


      000000EAH   SFRSYM    DATA     BYTE      SCON1
      000000C8H   SFRSYM    DATA     BYTE      T2CON
      00000086H   SFRSYM    DATA     BYTE      DPS
      000000FEH   SFRSYM    DATA     BYTE      MDATA
      000000F6H   SFRSYM    DATA     BYTE      I2CMBUF
      000000F1H   SFRSYM    DATA     BYTE      I2CSADR
      00000098H.4 SFRSYM    DATA     BIT       U0REN
      000000C8H.5 SFRSYM    DATA     BIT       CAPES
      000000FDH   SFRSYM    DATA     BYTE      MADRH
      0000008EH   SFRSYM    DATA     BYTE      CKCON
      000000F3H   SFRSYM    DATA     BYTE      I2CSBUF
      000000FCH   SFRSYM    DATA     BYTE      MADRL
      000000D0H.5 SFRSYM    DATA     BIT       F0
      000000FBH   SFRSYM    DATA     BYTE      MLOCK
      000000D0H   SFRSYM    DATA     BYTE      PSW
      00000097H   SFRSYM    DATA     BYTE      WDCON
      010038E5H   SYMBOL    CODE     ---       SystemPeripheralCTRL

      010038E5H   BLOCK     CODE     ---       LVL=0
      00000020H.6 SYMBOL    BIT      BIT       IsEnable
      010038E5H   LINE      CODE     ---       #20
      010038E5H   LINE      CODE     ---       #21
      010038E5H   LINE      CODE     ---       #22
      010038E8H   LINE      CODE     ---       #23
      010038E8H   LINE      CODE     ---       #24
      010038EBH   LINE      CODE     ---       #25
      010038EEH   LINE      CODE     ---       #26
      010038F1H   LINE      CODE     ---       #27
      010038F4H   LINE      CODE     ---       #28
      010038F9H   LINE      CODE     ---       #29
      010038FCH   LINE      CODE     ---       #30
      010038FFH   LINE      CODE     ---       #32
      010038FFH   LINE      CODE     ---       #34
      01003902H   LINE      CODE     ---       #35
      01003907H   LINE      CODE     ---       #36
      0100390AH   LINE      CODE     ---       #37
      0100390DH   LINE      CODE     ---       #38
      01003910H   LINE      CODE     ---       #39
      ---         BLOCKEND  ---      ---       LVL=0

      01002D7BH   BLOCK     CODE     ---       LVL=0
      01002D7BH   BLOCK     CODE     NEAR LAB  LVL=1
      00000023H   SYMBOL    DATA     INT       i
      ---         BLOCKEND  ---      ---       LVL=1
      01002D7BH   LINE      CODE     ---       #42
      01002D7BH   LINE      CODE     ---       #43
      01002D7BH   LINE      CODE     ---       #46
      01002D8CH   LINE      CODE     ---       #47
      01002D8CH   LINE      CODE     ---       #48
      01002D93H   LINE      CODE     ---       #50
      01002D93H   LINE      CODE     ---       #52
      01002DA0H   LINE      CODE     ---       #53
      01002DA0H   LINE      CODE     ---       #54
      01002DA9H   LINE      CODE     ---       #56
      01002DA9H   LINE      CODE     ---       #58
      01002DAEH   LINE      CODE     ---       #59
      01002DB4H   LINE      CODE     ---       #61
      01002DB7H   LINE      CODE     ---       #62
      01002DBCH   LINE      CODE     ---       #63
      01002DBFH   LINE      CODE     ---       #65
      01002DBFH   LINE      CODE     ---       #66
      01002DC6H   LINE      CODE     ---       #67
      01002DC9H   LINE      CODE     ---       #68
      01002DC9H   LINE      CODE     ---       #69
      01002DCEH   LINE      CODE     ---       #71
LX51 LINKER/LOCATER V4.66.97.0                                                        11/11/2024  12:36:56  PAGE 81


      01002DD3H   LINE      CODE     ---       #73
      01002DD8H   LINE      CODE     ---       #74
      01002DD8H   LINE      CODE     ---       #75
      01002DDBH   LINE      CODE     ---       #76
      01002DDEH   LINE      CODE     ---       #77
      01002DE1H   LINE      CODE     ---       #78
      01002DF4H   LINE      CODE     ---       #79
      01002E01H   LINE      CODE     ---       #81
      01002E06H   LINE      CODE     ---       #82
      ---         BLOCKEND  ---      ---       LVL=0

      ---         MODULE    ---      ---       MODECONTROL
      00000059H   PUBLIC    DATA     ---       CurrentMode
      0200004BH   PUBLIC    XDATA    CHAR      SOSTIM
      00000020H.5 PUBLIC    BIT      BIT       IsTacMode
      0200004AH   PUBLIC    XDATA    CHAR      ClickHoldReverseGearTIM
      02000049H   PUBLIC    XDATA    CHAR      HoldChangeGearTIM
      00000020H.4 PUBLIC    BIT      BIT       IsSideLEDCfgMode
      02000048H   PUBLIC    XDATA    BYTE      MoonCfg
      02000047H   PUBLIC    XDATA    BYTE      ErrCode
      00000055H   PUBLIC    DATA     ---       RampCfg
      02000046H   PUBLIC    XDATA    BYTE      LastMode
      02000045H   PUBLIC    XDATA    CHAR      DisplayLockedTIM
      02000044H   PUBLIC    XDATA    CHAR      MoonCfgTIM
      00000020H.3 PUBLIC    BIT      BIT       IsLocked
      02000043H   PUBLIC    XDATA    CHAR      BattAlertTimer
      00000020H.2 PUBLIC    BIT      BIT       IsEnableMoonConfigMode
      00000020H.1 PUBLIC    BIT      BIT       IsRampEnabled
      01003DB2H   PUBLIC    CONST    ---       ModeSettings
      01000846H   PUBLIC    CODE     ---       ModeSwitchFSM
      01003150H   PUBLIC    CODE     ---       SideKeyLEDBriAdjHandler
      01002FFFH   PUBLIC    CODE     ---       HoldSwitchGearCmdHandler
      01003AE4H   PUBLIC    CODE     ---       ReturnToOFFState
      01002F8BH   PUBLIC    CODE     ---       _SwitchToGear
      0100333AH   PUBLIC    CODE     ---       ModeFSMTIMHandler
      010035ECH   PUBLIC    CODE     ---       MoonConfigHandler
      010039B6H   PUBLIC    CODE     ---       ModeFSMInit
      000000C8H.0 SFRSYM    DATA     BIT       T2I0
      000000C3H   SFRSYM    DATA     BYTE      CCH1
      00000080H   SFRSYM    DATA     BYTE      P0
      000000C8H.1 SFRSYM    DATA     BIT       T2I1
      000000C5H   SFRSYM    DATA     BYTE      CCH2
      00000090H   SFRSYM    DATA     BYTE      P1
      000000C7H   SFRSYM    DATA     BYTE      CCH3
      000000ACH   SFRSYM    DATA     BYTE      P0EXTIE
      000000A0H   SFRSYM    DATA     BYTE      P2
      000000B4H   SFRSYM    DATA     BYTE      P0EXTIF
      000000B0H   SFRSYM    DATA     BYTE      P3
      000000ADH   SFRSYM    DATA     BYTE      P1EXTIE
      000000D0H.6 SFRSYM    DATA     BIT       AC
      000000FFH   SFRSYM    DATA     BYTE      MCTRL
      000000C2H   SFRSYM    DATA     BYTE      CCL1
      000000B5H   SFRSYM    DATA     BYTE      P1EXTIF
      000000AEH   SFRSYM    DATA     BYTE      P2EXTIE
      000000C4H   SFRSYM    DATA     BYTE      CCL2
      000000B6H   SFRSYM    DATA     BYTE      P2EXTIF
      000000AFH   SFRSYM    DATA     BYTE      P3EXTIE
      000000A8H.7 SFRSYM    DATA     BIT       EA
      000000C6H   SFRSYM    DATA     BYTE      CCL3
      000000B7H   SFRSYM    DATA     BYTE      P3EXTIF
      000000AAH   SFRSYM    DATA     BYTE      EIE2
      000000B2H   SFRSYM    DATA     BYTE      EIF2
      000000C8H.3 SFRSYM    DATA     BIT       T2R0
      000000C8H.4 SFRSYM    DATA     BIT       T2R1
      00000083H   SFRSYM    DATA     BYTE      DPH0
LX51 LINKER/LOCATER V4.66.97.0                                                        11/11/2024  12:36:56  PAGE 82


      000000A8H   SFRSYM    DATA     BYTE      IE
      00000085H   SFRSYM    DATA     BYTE      DPH1
      000000B9H   SFRSYM    DATA     BYTE      EIP1
      000000BAH   SFRSYM    DATA     BYTE      EIP2
      00000082H   SFRSYM    DATA     BYTE      DPL0
      00000084H   SFRSYM    DATA     BYTE      DPL1
      000000C8H.6 SFRSYM    DATA     BIT       I3FR
      000000CFH   SFRSYM    DATA     BYTE      T2IE
      00000096H   SFRSYM    DATA     BYTE      TA
      000000C9H   SFRSYM    DATA     BYTE      T2IF
      000000C8H.2 SFRSYM    DATA     BIT       T2CM
      000000DFH   SFRSYM    DATA     BYTE      ADCON0
      000000DEH   SFRSYM    DATA     BYTE      ADCON1
      000000E9H   SFRSYM    DATA     BYTE      ADCON2
      000000B8H   SFRSYM    DATA     BYTE      IP
      000000CEH   SFRSYM    DATA     BYTE      CCEN
      000000D0H.7 SFRSYM    DATA     BIT       CY
      000000D2H   SFRSYM    DATA     BYTE      T34MOD
      00000093H   SFRSYM    DATA     BYTE      DPX0
      00000095H   SFRSYM    DATA     BYTE      DPX1
      000000F4H   SFRSYM    DATA     BYTE      I2CMSA
      000000F5H   SFRSYM    DATA     BYTE      I2CMCR
      00000081H   SFRSYM    DATA     BYTE      SP
      000000D0H.2 SFRSYM    DATA     BIT       OV
      000000F2H   SFRSYM    DATA     BYTE      I2CSCR
      000000C8H.7 SFRSYM    DATA     BIT       T2PS
      000000D1H   SFRSYM    DATA     BYTE      ADCMPC
      000000CBH   SFRSYM    DATA     BYTE      RLDH
      000000D5H   SFRSYM    DATA     BYTE      ADCMPH
      000000CAH   SFRSYM    DATA     BYTE      RLDL
      00000080H.0 SFRSYM    DATA     BIT       P00
      00000090H.0 SFRSYM    DATA     BIT       P10
      00000080H.1 SFRSYM    DATA     BIT       P01
      000000F7H   SFRSYM    DATA     BYTE      I2CMTP
      00000099H   SFRSYM    DATA     BYTE      SBUF
      00000087H   SFRSYM    DATA     BYTE      PCON
      000000A0H.0 SFRSYM    DATA     BIT       P20
      00000090H.1 SFRSYM    DATA     BIT       P11
      00000080H.2 SFRSYM    DATA     BIT       P02
      000000F5H   SFRSYM    DATA     BYTE      I2CMSR
      000000B0H.0 SFRSYM    DATA     BIT       P30
      000000A0H.1 SFRSYM    DATA     BIT       P21
      00000090H.2 SFRSYM    DATA     BIT       P12
      00000080H.3 SFRSYM    DATA     BIT       P03
      000000D4H   SFRSYM    DATA     BYTE      ADCMPL
      000000B0H.1 SFRSYM    DATA     BIT       P31
      000000A0H.2 SFRSYM    DATA     BIT       P22
      00000090H.3 SFRSYM    DATA     BIT       P13
      00000080H.4 SFRSYM    DATA     BIT       P04
      000000B0H.2 SFRSYM    DATA     BIT       P32
      000000A0H.3 SFRSYM    DATA     BIT       P23
      00000090H.4 SFRSYM    DATA     BIT       P14
      00000080H.5 SFRSYM    DATA     BIT       P05
      00000089H   SFRSYM    DATA     BYTE      TMOD
      00000088H   SFRSYM    DATA     BYTE      TCON
      000000B0H.3 SFRSYM    DATA     BIT       P33
      000000A0H.4 SFRSYM    DATA     BIT       P24
      00000090H.5 SFRSYM    DATA     BIT       P15
      00000080H.6 SFRSYM    DATA     BIT       P06
      000000B0H.4 SFRSYM    DATA     BIT       P34
      000000A0H.5 SFRSYM    DATA     BIT       P25
      00000090H.6 SFRSYM    DATA     BIT       P16
      00000080H.7 SFRSYM    DATA     BIT       P07
      000000B0H.5 SFRSYM    DATA     BIT       P35
      000000A0H.6 SFRSYM    DATA     BIT       P26
LX51 LINKER/LOCATER V4.66.97.0                                                        11/11/2024  12:36:56  PAGE 83


      00000090H.7 SFRSYM    DATA     BIT       P17
      000000F2H   SFRSYM    DATA     BYTE      I2CSSR
      000000B0H.6 SFRSYM    DATA     BIT       P36
      000000A0H.7 SFRSYM    DATA     BIT       P27
      000000ECH   SFRSYM    DATA     BYTE      SPCR
      000000DDH   SFRSYM    DATA     BYTE      ADRESH
      000000B0H.7 SFRSYM    DATA     BIT       P37
      000000EEH   SFRSYM    DATA     BYTE      SPDR
      000000EFH   SFRSYM    DATA     BYTE      SSCR
      000000D3H   SFRSYM    DATA     BYTE      ADDLYL
      000000DCH   SFRSYM    DATA     BYTE      ADRESL
      00000088H.1 SFRSYM    DATA     BIT       IE0
      00000088H.3 SFRSYM    DATA     BIT       IE1
      0000008FH   SFRSYM    DATA     BYTE      CLKDIV
      000000F0H   SFRSYM    DATA     BYTE      B
      00000091H   SFRSYM    DATA     BYTE      FUNCCR
      0000009AH   SFRSYM    DATA     BYTE      P0TRIS
      000000A1H   SFRSYM    DATA     BYTE      P1TRIS
      000000A2H   SFRSYM    DATA     BYTE      P2TRIS
      000000E0H   SFRSYM    DATA     BYTE      ACC
      000000A3H   SFRSYM    DATA     BYTE      P3TRIS
      000000A8H.4 SFRSYM    DATA     BIT       ES0
      000000A8H.6 SFRSYM    DATA     BIT       ES1
      000000A8H.1 SFRSYM    DATA     BIT       ET0
      000000EDH   SFRSYM    DATA     BYTE      SPSR
      000000A8H.3 SFRSYM    DATA     BIT       ET1
      00000088H.5 SFRSYM    DATA     BIT       TF0
      000000A8H.5 SFRSYM    DATA     BIT       ET2
      00000098H.0 SFRSYM    DATA     BIT       RI0
      00000088H.7 SFRSYM    DATA     BIT       TF1
      0000008CH   SFRSYM    DATA     BYTE      TH0
      000000A8H.0 SFRSYM    DATA     BIT       EX0
      00000098H.1 SFRSYM    DATA     BIT       TI0
      00000088H.0 SFRSYM    DATA     BIT       IT0
      0000008DH   SFRSYM    DATA     BYTE      TH1
      000000A8H.2 SFRSYM    DATA     BIT       EX1
      00000088H.2 SFRSYM    DATA     BIT       IT1
      000000CDH   SFRSYM    DATA     BYTE      TH2
      000000D0H.0 SFRSYM    DATA     BIT       P
      000000DBH   SFRSYM    DATA     BYTE      TH3
      000000E3H   SFRSYM    DATA     BYTE      TH4
      0000008AH   SFRSYM    DATA     BYTE      TL0
      0000008BH   SFRSYM    DATA     BYTE      TL1
      00000098H.2 SFRSYM    DATA     BIT       U0RB8
      000000CCH   SFRSYM    DATA     BYTE      TL2
      000000B8H.4 SFRSYM    DATA     BIT       PS0
      000000DAH   SFRSYM    DATA     BYTE      TL3
      000000BFH   SFRSYM    DATA     BYTE      BUZCON
      000000B8H.6 SFRSYM    DATA     BIT       PS1
      000000B8H.1 SFRSYM    DATA     BIT       PT0
      00000098H.3 SFRSYM    DATA     BIT       U0TB8
      000000E2H   SFRSYM    DATA     BYTE      TL4
      000000D0H.3 SFRSYM    DATA     BIT       RS0
      000000B8H.3 SFRSYM    DATA     BIT       PT1
      000000D0H.4 SFRSYM    DATA     BIT       RS1
      000000B8H.5 SFRSYM    DATA     BIT       PT2
      00000098H.7 SFRSYM    DATA     BIT       U0SM0
      00000088H.4 SFRSYM    DATA     BIT       TR0
      000000BEH   SFRSYM    DATA     BYTE      BUZDIV
      00000098H.6 SFRSYM    DATA     BIT       U0SM1
      00000088H.6 SFRSYM    DATA     BIT       TR1
      000000B8H.0 SFRSYM    DATA     BIT       PX0
      00000098H.5 SFRSYM    DATA     BIT       U0SM2
      000000B8H.2 SFRSYM    DATA     BIT       PX1
      000000BDH   SFRSYM    DATA     BYTE      WUTCRH
LX51 LINKER/LOCATER V4.66.97.0                                                        11/11/2024  12:36:56  PAGE 84


      00000099H   SFRSYM    DATA     BYTE      SBUF0
      000000EBH   SFRSYM    DATA     BYTE      SBUF1
      000000BCH   SFRSYM    DATA     BYTE      WUTCRL
      00000098H   SFRSYM    DATA     BYTE      SCON0
      000000EAH   SFRSYM    DATA     BYTE      SCON1
      000000C8H   SFRSYM    DATA     BYTE      T2CON
      00000086H   SFRSYM    DATA     BYTE      DPS
      000000FEH   SFRSYM    DATA     BYTE      MDATA
      000000F6H   SFRSYM    DATA     BYTE      I2CMBUF
      000000F1H   SFRSYM    DATA     BYTE      I2CSADR
      00000098H.4 SFRSYM    DATA     BIT       U0REN
      000000C8H.5 SFRSYM    DATA     BIT       CAPES
      000000FDH   SFRSYM    DATA     BYTE      MADRH
      0000008EH   SFRSYM    DATA     BYTE      CKCON
      000000F3H   SFRSYM    DATA     BYTE      I2CSBUF
      000000FCH   SFRSYM    DATA     BYTE      MADRL
      000000D0H.5 SFRSYM    DATA     BIT       F0
      000000FBH   SFRSYM    DATA     BYTE      MLOCK
      000000D0H   SFRSYM    DATA     BYTE      PSW
      00000097H   SFRSYM    DATA     BYTE      WDCON
      01003B82H   SYMBOL    CODE     ---       _SideKey1HRevGearHandler
      010023B5H   SYMBOL    CODE     ---       SOSFSM
      01002E8EH   SYMBOL    CODE     ---       RampAdjHandler
      01003B72H   SYMBOL    CODE     ---       _SideKeySwitchGearHandler
      01003220H   SYMBOL    CODE     ---       _BatteryLowAlertProcess
      0200004CH   SYMBOL    XDATA    BYTE      SOSState

      010022F6H   BLOCK     CODE     ---       LVL=0
      ---         BLOCKEND  ---      ---       LVL=0

      010039B6H   BLOCK     CODE     ---       LVL=0
      010039B6H   LINE      CODE     ---       #138
      010039B6H   LINE      CODE     ---       #139
      010039B6H   LINE      CODE     ---       #140
      010039B9H   LINE      CODE     ---       #141
      010039BCH   LINE      CODE     ---       #143
      010039C1H   LINE      CODE     ---       #144
      010039C7H   LINE      CODE     ---       #145
      010039CAH   LINE      CODE     ---       #146
      010039D3H   LINE      CODE     ---       #147
      010039D5H   LINE      CODE     ---       #148
      010039D7H   LINE      CODE     ---       #149
      010039D9H   LINE      CODE     ---       #150
      010039DBH   LINE      CODE     ---       #151
      ---         BLOCKEND  ---      ---       LVL=0

      010023B5H   BLOCK     CODE     ---       LVL=0
      010023B5H   BLOCK     CODE     NEAR LAB  LVL=1
      00000025H   SYMBOL    DATA     INT       buf
      ---         BLOCKEND  ---      ---       LVL=1
      010023B5H   LINE      CODE     ---       #154
      010023B5H   LINE      CODE     ---       #155
      010023B5H   LINE      CODE     ---       #157
      010023DDH   LINE      CODE     ---       #158
      010023DDH   LINE      CODE     ---       #160
      010023DDH   LINE      CODE     ---       #161
      010023E3H   LINE      CODE     ---       #162
      010023E7H   LINE      CODE     ---       #163
      010023EAH   LINE      CODE     ---       #165
      010023EAH   LINE      CODE     ---       #166
      010023EAH   LINE      CODE     ---       #167
      010023F4H   LINE      CODE     ---       #168
      010023F9H   LINE      CODE     ---       #169
      010023F9H   LINE      CODE     ---       #170
      010023FFH   LINE      CODE     ---       #171
LX51 LINKER/LOCATER V4.66.97.0                                                        11/11/2024  12:36:56  PAGE 85


      01002403H   LINE      CODE     ---       #172
      01002403H   LINE      CODE     ---       #173
      01002405H   LINE      CODE     ---       #175
      01002405H   LINE      CODE     ---       #176
      0100240AH   LINE      CODE     ---       #177
      0100240DH   LINE      CODE     ---       #178
      01002411H   LINE      CODE     ---       #179
      01002413H   LINE      CODE     ---       #181
      01002413H   LINE      CODE     ---       #182
      01002416H   LINE      CODE     ---       #183
      01002422H   LINE      CODE     ---       #184
      01002427H   LINE      CODE     ---       #185
      01002427H   LINE      CODE     ---       #186
      0100242DH   LINE      CODE     ---       #187
      01002431H   LINE      CODE     ---       #188
      01002431H   LINE      CODE     ---       #189
      01002433H   LINE      CODE     ---       #191
      01002433H   LINE      CODE     ---       #192
      01002438H   LINE      CODE     ---       #193
      0100243BH   LINE      CODE     ---       #194
      0100243FH   LINE      CODE     ---       #195
      01002441H   LINE      CODE     ---       #197
      01002441H   LINE      CODE     ---       #198
      01002441H   LINE      CODE     ---       #199
      01002450H   LINE      CODE     ---       #200
      01002455H   LINE      CODE     ---       #201
      01002455H   LINE      CODE     ---       #202
      0100245BH   LINE      CODE     ---       #203
      0100245FH   LINE      CODE     ---       #204
      0100245FH   LINE      CODE     ---       #205
      01002461H   LINE      CODE     ---       #207
      01002461H   LINE      CODE     ---       #208
      01002466H   LINE      CODE     ---       #209
      01002469H   LINE      CODE     ---       #210
      01002469H   LINE      CODE     ---       #211
      01002469H   LINE      CODE     ---       #213
      0100246DH   LINE      CODE     ---       #214
      ---         BLOCKEND  ---      ---       LVL=0

      010035ECH   BLOCK     CODE     ---       LVL=0
      010035ECH   BLOCK     CODE     NEAR LAB  LVL=1
      00000006H   SYMBOL    DATA     INT       buf
      ---         BLOCKEND  ---      ---       LVL=1
      010035ECH   LINE      CODE     ---       #217
      010035ECH   LINE      CODE     ---       #218
      010035ECH   LINE      CODE     ---       #221
      010035FCH   LINE      CODE     ---       #224
      010035FCH   LINE      CODE     ---       #225
      01003602H   LINE      CODE     ---       #226
      01003610H   LINE      CODE     ---       #227
      01003612H   LINE      CODE     ---       #229
      01003617H   LINE      CODE     ---       #230
      01003625H   LINE      CODE     ---       #231
      01003627H   LINE      CODE     ---       #232
      0100362CH   LINE      CODE     ---       #233
      0100362CH   LINE      CODE     ---       #234
      ---         BLOCKEND  ---      ---       LVL=0

      0100333AH   BLOCK     CODE     ---       LVL=0
      0100333AH   BLOCK     CODE     NEAR LAB  LVL=1
      00000006H   SYMBOL    DATA     CHAR      buf
      ---         BLOCKEND  ---      ---       LVL=1
      0100333AH   LINE      CODE     ---       #237
      0100333AH   LINE      CODE     ---       #238
      0100333AH   LINE      CODE     ---       #241
LX51 LINKER/LOCATER V4.66.97.0                                                        11/11/2024  12:36:56  PAGE 86


      01003342H   LINE      CODE     ---       #243
      01003352H   LINE      CODE     ---       #244
      0100335CH   LINE      CODE     ---       #246
      01003367H   LINE      CODE     ---       #248
      0100336FH   LINE      CODE     ---       #249
      0100336FH   LINE      CODE     ---       #250
      01003372H   LINE      CODE     ---       #251
      01003376H   LINE      CODE     ---       #252
      01003388H   LINE      CODE     ---       #253
      0100338EH   LINE      CODE     ---       #254
      0100338FH   LINE      CODE     ---       #255
      01003394H   LINE      CODE     ---       #256
      ---         BLOCKEND  ---      ---       LVL=0

      01002F8BH   BLOCK     CODE     ---       LVL=0
      00000028H   SYMBOL    DATA     BYTE      TargetMode
      01002F8DH   BLOCK     CODE     NEAR LAB  LVL=1
      00000029H   SYMBOL    DATA     INT       i
      0000002BH   SYMBOL    DATA     BYTE      BeforeMode
      ---         BLOCKEND  ---      ---       LVL=1
      01002F8BH   LINE      CODE     ---       #259
      01002F8DH   LINE      CODE     ---       #260
      01002F8DH   LINE      CODE     ---       #263
      01002F92H   LINE      CODE     ---       #264
      01002FB2H   LINE      CODE     ---       #265
      01002FB2H   LINE      CODE     ---       #266
      01002FB6H   LINE      CODE     ---       #267
      01002FCEH   LINE      CODE     ---       #268
      01002FE8H   LINE      CODE     ---       #269
      01002FECH   LINE      CODE     ---       #270
      01002FFAH   LINE      CODE     ---       #272
      01002FFEH   LINE      CODE     ---       #273
      ---         BLOCKEND  ---      ---       LVL=0

      01003AE4H   BLOCK     CODE     ---       LVL=0
      01003AE4H   LINE      CODE     ---       #276
      01003AE4H   LINE      CODE     ---       #277
      01003AE4H   LINE      CODE     ---       #278
      01003AEAH   LINE      CODE     ---       #279
      01003AF7H   LINE      CODE     ---       #280
      01003AFCH   LINE      CODE     ---       #281
      ---         BLOCKEND  ---      ---       LVL=0

      01003220H   BLOCK     CODE     ---       LVL=0
      00000007H   SYMBOL    DATA     BYTE      IsNeedToShutOff
      00000025H   SYMBOL    DATA     BYTE      ModeJump
      01003222H   BLOCK     CODE     NEAR LAB  LVL=1
      00000026H   SYMBOL    DATA     CHAR      time
      00000027H   SYMBOL    DATA     CHAR      Thr
      ---         BLOCKEND  ---      ---       LVL=1
      01003220H   LINE      CODE     ---       #284
      01003222H   LINE      CODE     ---       #285
      01003222H   LINE      CODE     ---       #287
      01003228H   LINE      CODE     ---       #288
      01003228H   LINE      CODE     ---       #289
      0100322EH   LINE      CODE     ---       #291
      0100322EH   LINE      CODE     ---       #292
      0100323EH   LINE      CODE     ---       #293
      01003246H   LINE      CODE     ---       #294
      0100324EH   LINE      CODE     ---       #295
      01003251H   LINE      CODE     ---       #297
      01003268H   LINE      CODE     ---       #299
      01003275H   LINE      CODE     ---       #300
      01003275H   LINE      CODE     ---       #301
      0100327BH   LINE      CODE     ---       #302
LX51 LINKER/LOCATER V4.66.97.0                                                        11/11/2024  12:36:56  PAGE 87


      01003280H   LINE      CODE     ---       #303
      01003280H   LINE      CODE     ---       #304
      ---         BLOCKEND  ---      ---       LVL=0

      01002FFFH   BLOCK     CODE     ---       LVL=0
      01002FFFH   BLOCK     CODE     NEAR LAB  LVL=1
      00000023H   SYMBOL    DATA     CHAR      buf
      ---         BLOCKEND  ---      ---       LVL=1
      01002FFFH   LINE      CODE     ---       #307
      01002FFFH   LINE      CODE     ---       #308
      01002FFFH   LINE      CODE     ---       #310
      01003010H   LINE      CODE     ---       #312
      01003010H   LINE      CODE     ---       #313
      01003013H   LINE      CODE     ---       #314
      0100301FH   LINE      CODE     ---       #315
      01003022H   LINE      CODE     ---       #316
      0100302FH   LINE      CODE     ---       #317
      01003032H   LINE      CODE     ---       #318
      01003039H   LINE      CODE     ---       #319
      01003039H   LINE      CODE     ---       #321
      01003049H   LINE      CODE     ---       #323
      01003049H   LINE      CODE     ---       #324
      0100304CH   LINE      CODE     ---       #325
      01003058H   LINE      CODE     ---       #326
      0100305BH   LINE      CODE     ---       #327
      01003068H   LINE      CODE     ---       #328
      0100306BH   LINE      CODE     ---       #329
      01003072H   LINE      CODE     ---       #330
      01003072H   LINE      CODE     ---       #331
      ---         BLOCKEND  ---      ---       LVL=0

      01003B72H   BLOCK     CODE     ---       LVL=0
      00000003H   SYMBOL    DATA     BYTE      TargetMode
      01003B72H   LINE      CODE     ---       #334
      01003B72H   LINE      CODE     ---       #335
      01003B72H   LINE      CODE     ---       #336
      01003B7AH   LINE      CODE     ---       #337
      01003B7EH   LINE      CODE     ---       #338
      01003B81H   LINE      CODE     ---       #339
      ---         BLOCKEND  ---      ---       LVL=0

      01003B82H   BLOCK     CODE     ---       LVL=0
      00000003H   SYMBOL    DATA     BYTE      TargetMode
      01003B82H   LINE      CODE     ---       #342
      01003B82H   LINE      CODE     ---       #343
      01003B82H   LINE      CODE     ---       #344
      01003B8AH   LINE      CODE     ---       #345
      01003B8EH   LINE      CODE     ---       #346
      01003B91H   LINE      CODE     ---       #347
      ---         BLOCKEND  ---      ---       LVL=0

      01003150H   BLOCK     CODE     ---       LVL=0
      01003150H   BLOCK     CODE     NEAR LAB  LVL=1
      02000041H   SYMBOL    XDATA    BYTE      SideLEDRampDir
      02000042H   SYMBOL    XDATA    CHAR      SpeedDIV
      ---         BLOCKEND  ---      ---       LVL=1
      01003150H   LINE      CODE     ---       #349
      01003150H   LINE      CODE     ---       #350
      01003150H   LINE      CODE     ---       #354
      01003158H   LINE      CODE     ---       #356
      0100315EH   LINE      CODE     ---       #357
      01003161H   LINE      CODE     ---       #358
      01003164H   LINE      CODE     ---       #360
      0100316AH   LINE      CODE     ---       #361
      0100316AH   LINE      CODE     ---       #362
LX51 LINKER/LOCATER V4.66.97.0                                                        11/11/2024  12:36:56  PAGE 88


      01003189H   LINE      CODE     ---       #363
      0100318FH   LINE      CODE     ---       #364
      01003191H   LINE      CODE     ---       #367
      01003191H   LINE      CODE     ---       #368
      010031B0H   LINE      CODE     ---       #369
      010031B5H   LINE      CODE     ---       #370
      010031B5H   LINE      CODE     ---       #371
      010031B8H   LINE      CODE     ---       #372
      ---         BLOCKEND  ---      ---       LVL=0

      01002E8EH   BLOCK     CODE     ---       LVL=0
      01002E8EH   BLOCK     CODE     NEAR LAB  LVL=1
      00000020H.0 SYMBOL    BIT      BIT       IsKeyPressed
      ---         BLOCKEND  ---      ---       LVL=1
      01002E8EH   LINE      CODE     ---       #375
      01002E8EH   LINE      CODE     ---       #376
      01002E8EH   LINE      CODE     ---       #379
      01002E9FH   LINE      CODE     ---       #380
      01002EB5H   LINE      CODE     ---       #381
      01002EC4H   LINE      CODE     ---       #383
      01002ED5H   LINE      CODE     ---       #384
      01002ED5H   LINE      CODE     ---       #385
      01002ED5H   LINE      CODE     ---       #386
      01002ED5H   LINE      CODE     ---       #387
      01002ED8H   LINE      CODE     ---       #388
      01002ED8H   LINE      CODE     ---       #390
      01002EECH   LINE      CODE     ---       #391
      01002EECH   LINE      CODE     ---       #392
      01002EECH   LINE      CODE     ---       #393
      01002EECH   LINE      CODE     ---       #394
      01002EEFH   LINE      CODE     ---       #395
      01002EEFH   LINE      CODE     ---       #397
      01002EFDH   LINE      CODE     ---       #398
      01002F0AH   LINE      CODE     ---       #399
      01002F0AH   LINE      CODE     ---       #400
      01002F0CH   LINE      CODE     ---       #401
      01002F11H   LINE      CODE     ---       #402
      01002F11H   LINE      CODE     ---       #403
      ---         BLOCKEND  ---      ---       LVL=0

      01000846H   BLOCK     CODE     ---       LVL=0
      01000846H   BLOCK     CODE     NEAR LAB  LVL=1
      00000020H.6 SYMBOL    BIT      BIT       IsHoldEvent
      00000023H   SYMBOL    DATA     INT       ClickCount
      02000000H   SYMBOL    XDATA    FLOAT     TargetCurrent
      ---         BLOCKEND  ---      ---       LVL=1
      01000846H   LINE      CODE     ---       #408
      01000846H   LINE      CODE     ---       #409
      01000846H   LINE      CODE     ---       #418
      0100084BH   LINE      CODE     ---       #419
      01000854H   LINE      CODE     ---       #421
      01000869H   LINE      CODE     ---       #423
      0100087DH   LINE      CODE     ---       #424
      010008B0H   LINE      CODE     ---       #425
      010008B0H   LINE      CODE     ---       #427
      010008B0H   LINE      CODE     ---       #428
      010008B2H   LINE      CODE     ---       #429
      010008C3H   LINE      CODE     ---       #430
      010008C5H   LINE      CODE     ---       #431
      010008C6H   LINE      CODE     ---       #432
      010008C9H   LINE      CODE     ---       #434
      010008C9H   LINE      CODE     ---       #435
      010008D1H   LINE      CODE     ---       #436
      010008D1H   LINE      CODE     ---       #437
      010008D3H   LINE      CODE     ---       #438
LX51 LINKER/LOCATER V4.66.97.0                                                        11/11/2024  12:36:56  PAGE 89


      010008DAH   LINE      CODE     ---       #439
      010008E0H   LINE      CODE     ---       #440
      010008E2H   LINE      CODE     ---       #441
      010008FAH   LINE      CODE     ---       #443
      01000900H   LINE      CODE     ---       #445
      01000908H   LINE      CODE     ---       #446
      01000908H   LINE      CODE     ---       #447
      0100090FH   LINE      CODE     ---       #448
      01000915H   LINE      CODE     ---       #449
      01000915H   LINE      CODE     ---       #450
      01000918H   LINE      CODE     ---       #451
      01000918H   LINE      CODE     ---       #452
      01000920H   LINE      CODE     ---       #453
      01000934H   LINE      CODE     ---       #454
      0100093FH   LINE      CODE     ---       #457
      0100093FH   LINE      CODE     ---       #459
      01000947H   LINE      CODE     ---       #460
      01000947H   LINE      CODE     ---       #461
      01000962H   LINE      CODE     ---       #462
      0100096BH   LINE      CODE     ---       #463
      0100096BH   LINE      CODE     ---       #464
      0100096DH   LINE      CODE     ---       #465
      01000972H   LINE      CODE     ---       #466
      01000972H   LINE      CODE     ---       #467
      01000977H   LINE      CODE     ---       #468
      01000989H   LINE      CODE     ---       #469
      0100099FH   LINE      CODE     ---       #470
      0100099FH   LINE      CODE     ---       #471
      010009A1H   LINE      CODE     ---       #472
      010009A9H   LINE      CODE     ---       #473
      010009AEH   LINE      CODE     ---       #474
      010009AEH   LINE      CODE     ---       #475
      010009BAH   LINE      CODE     ---       #476
      010009BDH   LINE      CODE     ---       #477
      010009C0H   LINE      CODE     ---       #478
      010009C8H   LINE      CODE     ---       #479
      010009C8H   LINE      CODE     ---       #480
      010009CFH   LINE      CODE     ---       #481
      010009D8H   LINE      CODE     ---       #482
      010009DDH   LINE      CODE     ---       #483
      010009E0H   LINE      CODE     ---       #484
      010009EBH   LINE      CODE     ---       #485
      010009EEH   LINE      CODE     ---       #487
      010009EEH   LINE      CODE     ---       #488
      010009F0H   LINE      CODE     ---       #489
      010009F5H   LINE      CODE     ---       #490
      010009F5H   LINE      CODE     ---       #491
      01000A00H   LINE      CODE     ---       #492
      01000A02H   LINE      CODE     ---       #493
      01000A04H   LINE      CODE     ---       #494
      01000A07H   LINE      CODE     ---       #495
      01000A07H   LINE      CODE     ---       #496
      01000A14H   LINE      CODE     ---       #498
      01000A1AH   LINE      CODE     ---       #499
      01000A26H   LINE      CODE     ---       #501
      01000A30H   LINE      CODE     ---       #502
      01000A46H   LINE      CODE     ---       #503
      01000A46H   LINE      CODE     ---       #504
      01000A50H   LINE      CODE     ---       #505
      01000A56H   LINE      CODE     ---       #506
      01000A5DH   LINE      CODE     ---       #507
      01000A60H   LINE      CODE     ---       #508
      01000A60H   LINE      CODE     ---       #509
      01000A63H   LINE      CODE     ---       #511
      01000A63H   LINE      CODE     ---       #512
LX51 LINKER/LOCATER V4.66.97.0                                                        11/11/2024  12:36:56  PAGE 90


      01000A65H   LINE      CODE     ---       #513
      01000A75H   LINE      CODE     ---       #514
      01000A82H   LINE      CODE     ---       #515
      01000A8CH   LINE      CODE     ---       #517
      01000A8FH   LINE      CODE     ---       #518
      01000A92H   LINE      CODE     ---       #520
      01000A92H   LINE      CODE     ---       #521
      01000A94H   LINE      CODE     ---       #522
      01000AA4H   LINE      CODE     ---       #523
      01000AB1H   LINE      CODE     ---       #524
      01000ABBH   LINE      CODE     ---       #526
      01000ABDH   LINE      CODE     ---       #527
      01000AC0H   LINE      CODE     ---       #529
      01000AC0H   LINE      CODE     ---       #530
      01000AC2H   LINE      CODE     ---       #531
      01000AD2H   LINE      CODE     ---       #532
      01000ADFH   LINE      CODE     ---       #533
      01000AE9H   LINE      CODE     ---       #535
      01000AEEH   LINE      CODE     ---       #536
      01000AF0H   LINE      CODE     ---       #537
      01000AF2H   LINE      CODE     ---       #539
      01000AF2H   LINE      CODE     ---       #540
      01000AF4H   LINE      CODE     ---       #541
      01000B04H   LINE      CODE     ---       #542
      01000B11H   LINE      CODE     ---       #543
      01000B1BH   LINE      CODE     ---       #545
      01000B20H   LINE      CODE     ---       #546
      01000B22H   LINE      CODE     ---       #547
      01000B24H   LINE      CODE     ---       #549
      01000B24H   LINE      CODE     ---       #550
      01000B26H   LINE      CODE     ---       #551
      01000B36H   LINE      CODE     ---       #552
      01000B43H   LINE      CODE     ---       #553
      01000B4DH   LINE      CODE     ---       #555
      01000B52H   LINE      CODE     ---       #556
      01000B57H   LINE      CODE     ---       #557
      01000B5AH   LINE      CODE     ---       #559
      01000B5AH   LINE      CODE     ---       #560
      01000B5CH   LINE      CODE     ---       #561
      01000B6CH   LINE      CODE     ---       #562
      01000B7EH   LINE      CODE     ---       #563
      01000B88H   LINE      CODE     ---       #564
      01000B8AH   LINE      CODE     ---       #566
      01000B8AH   LINE      CODE     ---       #567
      01000B8CH   LINE      CODE     ---       #568
      01000B9CH   LINE      CODE     ---       #569
      01000BA9H   LINE      CODE     ---       #570
      01000BB8H   LINE      CODE     ---       #572
      01000BBAH   LINE      CODE     ---       #573
      01000BBCH   LINE      CODE     ---       #575
      01000BBCH   LINE      CODE     ---       #576
      01000BC3H   LINE      CODE     ---       #577
      01000BD6H   LINE      CODE     ---       #578
      01000BE3H   LINE      CODE     ---       #579
      01000BF2H   LINE      CODE     ---       #581
      01000BF7H   LINE      CODE     ---       #582
      01000BF7H   LINE      CODE     ---       #583
      01000BF7H   LINE      CODE     ---       #585
      01000C0CH   LINE      CODE     ---       #586
      01000C18H   LINE      CODE     ---       #587
      01000C2DH   LINE      CODE     ---       #588
      01000C3AH   LINE      CODE     ---       #589
      01000C4AH   LINE      CODE     ---       #590
      01000C68H   LINE      CODE     ---       #591
      01000C68H   LINE      CODE     ---       #592
LX51 LINKER/LOCATER V4.66.97.0                                                        11/11/2024  12:36:56  PAGE 91


      01000C74H   LINE      CODE     ---       #593
      01000C80H   LINE      CODE     ---       #594
      01000C8CH   LINE      CODE     ---       #595
      01000C98H   LINE      CODE     ---       #596
      01000CA4H   LINE      CODE     ---       #597
      01000CAFH   LINE      CODE     ---       #598
      01000CAFH   LINE      CODE     ---       #599
      01000CBFH   LINE      CODE     ---       #601
      01000CDBH   LINE      CODE     ---       #602
      ---         BLOCKEND  ---      ---       LVL=0

      ---         MODULE    ---      ---       RAMPCONFIG
      01003E15H   PUBLIC    CONST    ---       VendorString
      00000020H.7 PUBLIC    BIT      BIT       ?SaveRampConfig?BIT
      0100216BH   PUBLIC    CODE     ---       SaveRampConfig
      010036E6H   PUBLIC    CODE     ---       RestoreToMinimumRampCurrent
      01002691H   PUBLIC    CODE     ---       ReadRampConfig
      000000C8H.0 SFRSYM    DATA     BIT       T2I0
      000000C3H   SFRSYM    DATA     BYTE      CCH1
      00000080H   SFRSYM    DATA     BYTE      P0
      000000C8H.1 SFRSYM    DATA     BIT       T2I1
      000000C5H   SFRSYM    DATA     BYTE      CCH2
      00000090H   SFRSYM    DATA     BYTE      P1
      000000C7H   SFRSYM    DATA     BYTE      CCH3
      000000ACH   SFRSYM    DATA     BYTE      P0EXTIE
      000000A0H   SFRSYM    DATA     BYTE      P2
      000000B4H   SFRSYM    DATA     BYTE      P0EXTIF
      000000B0H   SFRSYM    DATA     BYTE      P3
      000000ADH   SFRSYM    DATA     BYTE      P1EXTIE
      000000D0H.6 SFRSYM    DATA     BIT       AC
      000000FFH   SFRSYM    DATA     BYTE      MCTRL
      000000C2H   SFRSYM    DATA     BYTE      CCL1
      000000B5H   SFRSYM    DATA     BYTE      P1EXTIF
      000000AEH   SFRSYM    DATA     BYTE      P2EXTIE
      000000C4H   SFRSYM    DATA     BYTE      CCL2
      000000B6H   SFRSYM    DATA     BYTE      P2EXTIF
      000000AFH   SFRSYM    DATA     BYTE      P3EXTIE
      000000A8H.7 SFRSYM    DATA     BIT       EA
      000000C6H   SFRSYM    DATA     BYTE      CCL3
      000000B7H   SFRSYM    DATA     BYTE      P3EXTIF
      000000AAH   SFRSYM    DATA     BYTE      EIE2
      000000B2H   SFRSYM    DATA     BYTE      EIF2
      000000C8H.3 SFRSYM    DATA     BIT       T2R0
      000000C8H.4 SFRSYM    DATA     BIT       T2R1
      00000083H   SFRSYM    DATA     BYTE      DPH0
      000000A8H   SFRSYM    DATA     BYTE      IE
      00000085H   SFRSYM    DATA     BYTE      DPH1
      000000B9H   SFRSYM    DATA     BYTE      EIP1
      000000BAH   SFRSYM    DATA     BYTE      EIP2
      00000082H   SFRSYM    DATA     BYTE      DPL0
      00000084H   SFRSYM    DATA     BYTE      DPL1
      000000C8H.6 SFRSYM    DATA     BIT       I3FR
      000000CFH   SFRSYM    DATA     BYTE      T2IE
      00000096H   SFRSYM    DATA     BYTE      TA
      000000C9H   SFRSYM    DATA     BYTE      T2IF
      000000C8H.2 SFRSYM    DATA     BIT       T2CM
      000000DFH   SFRSYM    DATA     BYTE      ADCON0
      000000DEH   SFRSYM    DATA     BYTE      ADCON1
      000000E9H   SFRSYM    DATA     BYTE      ADCON2
      000000B8H   SFRSYM    DATA     BYTE      IP
      000000CEH   SFRSYM    DATA     BYTE      CCEN
      000000D0H.7 SFRSYM    DATA     BIT       CY
      000000D2H   SFRSYM    DATA     BYTE      T34MOD
      00000093H   SFRSYM    DATA     BYTE      DPX0
      00000095H   SFRSYM    DATA     BYTE      DPX1
LX51 LINKER/LOCATER V4.66.97.0                                                        11/11/2024  12:36:56  PAGE 92


      000000F4H   SFRSYM    DATA     BYTE      I2CMSA
      000000F5H   SFRSYM    DATA     BYTE      I2CMCR
      00000081H   SFRSYM    DATA     BYTE      SP
      000000D0H.2 SFRSYM    DATA     BIT       OV
      000000F2H   SFRSYM    DATA     BYTE      I2CSCR
      000000C8H.7 SFRSYM    DATA     BIT       T2PS
      000000D1H   SFRSYM    DATA     BYTE      ADCMPC
      000000CBH   SFRSYM    DATA     BYTE      RLDH
      000000D5H   SFRSYM    DATA     BYTE      ADCMPH
      000000CAH   SFRSYM    DATA     BYTE      RLDL
      00000080H.0 SFRSYM    DATA     BIT       P00
      00000090H.0 SFRSYM    DATA     BIT       P10
      00000080H.1 SFRSYM    DATA     BIT       P01
      000000F7H   SFRSYM    DATA     BYTE      I2CMTP
      00000099H   SFRSYM    DATA     BYTE      SBUF
      00000087H   SFRSYM    DATA     BYTE      PCON
      000000A0H.0 SFRSYM    DATA     BIT       P20
      00000090H.1 SFRSYM    DATA     BIT       P11
      00000080H.2 SFRSYM    DATA     BIT       P02
      000000F5H   SFRSYM    DATA     BYTE      I2CMSR
      000000B0H.0 SFRSYM    DATA     BIT       P30
      000000A0H.1 SFRSYM    DATA     BIT       P21
      00000090H.2 SFRSYM    DATA     BIT       P12
      00000080H.3 SFRSYM    DATA     BIT       P03
      000000D4H   SFRSYM    DATA     BYTE      ADCMPL
      000000B0H.1 SFRSYM    DATA     BIT       P31
      000000A0H.2 SFRSYM    DATA     BIT       P22
      00000090H.3 SFRSYM    DATA     BIT       P13
      00000080H.4 SFRSYM    DATA     BIT       P04
      000000B0H.2 SFRSYM    DATA     BIT       P32
      000000A0H.3 SFRSYM    DATA     BIT       P23
      00000090H.4 SFRSYM    DATA     BIT       P14
      00000080H.5 SFRSYM    DATA     BIT       P05
      00000089H   SFRSYM    DATA     BYTE      TMOD
      00000088H   SFRSYM    DATA     BYTE      TCON
      000000B0H.3 SFRSYM    DATA     BIT       P33
      000000A0H.4 SFRSYM    DATA     BIT       P24
      00000090H.5 SFRSYM    DATA     BIT       P15
      00000080H.6 SFRSYM    DATA     BIT       P06
      000000B0H.4 SFRSYM    DATA     BIT       P34
      000000A0H.5 SFRSYM    DATA     BIT       P25
      00000090H.6 SFRSYM    DATA     BIT       P16
      00000080H.7 SFRSYM    DATA     BIT       P07
      000000B0H.5 SFRSYM    DATA     BIT       P35
      000000A0H.6 SFRSYM    DATA     BIT       P26
      00000090H.7 SFRSYM    DATA     BIT       P17
      000000F2H   SFRSYM    DATA     BYTE      I2CSSR
      000000B0H.6 SFRSYM    DATA     BIT       P36
      000000A0H.7 SFRSYM    DATA     BIT       P27
      000000ECH   SFRSYM    DATA     BYTE      SPCR
      000000DDH   SFRSYM    DATA     BYTE      ADRESH
      000000B0H.7 SFRSYM    DATA     BIT       P37
      000000EEH   SFRSYM    DATA     BYTE      SPDR
      000000EFH   SFRSYM    DATA     BYTE      SSCR
      000000D3H   SFRSYM    DATA     BYTE      ADDLYL
      000000DCH   SFRSYM    DATA     BYTE      ADRESL
      00000088H.1 SFRSYM    DATA     BIT       IE0
      00000088H.3 SFRSYM    DATA     BIT       IE1
      0000008FH   SFRSYM    DATA     BYTE      CLKDIV
      000000F0H   SFRSYM    DATA     BYTE      B
      00000091H   SFRSYM    DATA     BYTE      FUNCCR
      0000009AH   SFRSYM    DATA     BYTE      P0TRIS
      000000A1H   SFRSYM    DATA     BYTE      P1TRIS
      000000A2H   SFRSYM    DATA     BYTE      P2TRIS
      000000E0H   SFRSYM    DATA     BYTE      ACC
LX51 LINKER/LOCATER V4.66.97.0                                                        11/11/2024  12:36:56  PAGE 93


      000000A3H   SFRSYM    DATA     BYTE      P3TRIS
      000000A8H.4 SFRSYM    DATA     BIT       ES0
      000000A8H.6 SFRSYM    DATA     BIT       ES1
      000000A8H.1 SFRSYM    DATA     BIT       ET0
      000000EDH   SFRSYM    DATA     BYTE      SPSR
      000000A8H.3 SFRSYM    DATA     BIT       ET1
      00000088H.5 SFRSYM    DATA     BIT       TF0
      000000A8H.5 SFRSYM    DATA     BIT       ET2
      00000098H.0 SFRSYM    DATA     BIT       RI0
      00000088H.7 SFRSYM    DATA     BIT       TF1
      0000008CH   SFRSYM    DATA     BYTE      TH0
      000000A8H.0 SFRSYM    DATA     BIT       EX0
      00000098H.1 SFRSYM    DATA     BIT       TI0
      00000088H.0 SFRSYM    DATA     BIT       IT0
      0000008DH   SFRSYM    DATA     BYTE      TH1
      000000A8H.2 SFRSYM    DATA     BIT       EX1
      00000088H.2 SFRSYM    DATA     BIT       IT1
      000000CDH   SFRSYM    DATA     BYTE      TH2
      000000D0H.0 SFRSYM    DATA     BIT       P
      000000DBH   SFRSYM    DATA     BYTE      TH3
      000000E3H   SFRSYM    DATA     BYTE      TH4
      0000008AH   SFRSYM    DATA     BYTE      TL0
      0000008BH   SFRSYM    DATA     BYTE      TL1
      00000098H.2 SFRSYM    DATA     BIT       U0RB8
      000000CCH   SFRSYM    DATA     BYTE      TL2
      000000B8H.4 SFRSYM    DATA     BIT       PS0
      000000DAH   SFRSYM    DATA     BYTE      TL3
      000000BFH   SFRSYM    DATA     BYTE      BUZCON
      000000B8H.6 SFRSYM    DATA     BIT       PS1
      000000B8H.1 SFRSYM    DATA     BIT       PT0
      00000098H.3 SFRSYM    DATA     BIT       U0TB8
      000000E2H   SFRSYM    DATA     BYTE      TL4
      000000D0H.3 SFRSYM    DATA     BIT       RS0
      000000B8H.3 SFRSYM    DATA     BIT       PT1
      000000D0H.4 SFRSYM    DATA     BIT       RS1
      000000B8H.5 SFRSYM    DATA     BIT       PT2
      00000098H.7 SFRSYM    DATA     BIT       U0SM0
      00000088H.4 SFRSYM    DATA     BIT       TR0
      000000BEH   SFRSYM    DATA     BYTE      BUZDIV
      00000098H.6 SFRSYM    DATA     BIT       U0SM1
      00000088H.6 SFRSYM    DATA     BIT       TR1
      000000B8H.0 SFRSYM    DATA     BIT       PX0
      00000098H.5 SFRSYM    DATA     BIT       U0SM2
      000000B8H.2 SFRSYM    DATA     BIT       PX1
      000000BDH   SFRSYM    DATA     BYTE      WUTCRH
      00000099H   SFRSYM    DATA     BYTE      SBUF0
      000000EBH   SFRSYM    DATA     BYTE      SBUF1
      000000BCH   SFRSYM    DATA     BYTE      WUTCRL
      00000098H   SFRSYM    DATA     BYTE      SCON0
      000000EAH   SFRSYM    DATA     BYTE      SCON1
      000000C8H   SFRSYM    DATA     BYTE      T2CON
      00000086H   SFRSYM    DATA     BYTE      DPS
      000000FEH   SFRSYM    DATA     BYTE      MDATA
      000000F6H   SFRSYM    DATA     BYTE      I2CMBUF
      000000F1H   SFRSYM    DATA     BYTE      I2CSADR
      00000098H.4 SFRSYM    DATA     BIT       U0REN
      000000C8H.5 SFRSYM    DATA     BIT       CAPES
      000000FDH   SFRSYM    DATA     BYTE      MADRH
      0000008EH   SFRSYM    DATA     BYTE      CKCON
      000000F3H   SFRSYM    DATA     BYTE      I2CSBUF
      000000FCH   SFRSYM    DATA     BYTE      MADRL
      000000D0H.5 SFRSYM    DATA     BIT       F0
      000000FBH   SFRSYM    DATA     BYTE      MLOCK
      000000D0H   SFRSYM    DATA     BYTE      PSW
      00000097H   SFRSYM    DATA     BYTE      WDCON
LX51 LINKER/LOCATER V4.66.97.0                                                        11/11/2024  12:36:56  PAGE 94


      01001EBDH   SYMBOL    CODE     ---       _PEC8Check

      0100385EH   BLOCK     CODE     ---       LVL=0
      ---         BLOCKEND  ---      ---       LVL=0

      01001EBDH   BLOCK     CODE     ---       LVL=0
      0000003CH   SYMBOL    DATA     ---       DIN
      0000003FH   SYMBOL    DATA     LONG      Len
      01001ECBH   BLOCK     CODE     NEAR LAB  LVL=1
      00000043H   SYMBOL    DATA     BYTE      crcbuf
      00000044H   SYMBOL    DATA     LONG      i
      00000048H   SYMBOL    DATA     LONG      ptr
      ---         BLOCKEND  ---      ---       LVL=1
      01001EBDH   LINE      CODE     ---       #11
      01001ECBH   LINE      CODE     ---       #12
      01001ECBH   LINE      CODE     ---       #13
      01001ECEH   LINE      CODE     ---       #14
      01001ED6H   LINE      CODE     ---       #15
      01001EECH   LINE      CODE     ---       #16
      01001EECH   LINE      CODE     ---       #18
      01001EFDH   LINE      CODE     ---       #20
      01001F0FH   LINE      CODE     ---       #21
      01001F0FH   LINE      CODE     ---       #22
      01001F1CH   LINE      CODE     ---       #23
      01001F22H   LINE      CODE     ---       #24
      01001F3CH   LINE      CODE     ---       #26
      01001F55H   LINE      CODE     ---       #27
      01001F6DH   LINE      CODE     ---       #28
      01001F70H   LINE      CODE     ---       #30
      01001FA5H   LINE      CODE     ---       #32
      01001FA7H   LINE      CODE     ---       #33
      ---         BLOCKEND  ---      ---       LVL=0

      01002691H   BLOCK     CODE     ---       LVL=0
      01002691H   BLOCK     CODE     NEAR LAB  LVL=1
      00000023H   SYMBOL    DATA     INT       i
      00000025H   SYMBOL    DATA     ---       ROMData
      ---         BLOCKEND  ---      ---       LVL=1
      01002691H   LINE      CODE     ---       #36
      01002691H   LINE      CODE     ---       #37
      01002691H   LINE      CODE     ---       #42
      01002693H   LINE      CODE     ---       #43
      01002694H   LINE      CODE     ---       #44
      01002697H   LINE      CODE     ---       #46
      0100269CH   LINE      CODE     ---       #47
      0100269CH   LINE      CODE     ---       #48
      0100269FH   LINE      CODE     ---       #49
      010026A4H   LINE      CODE     ---       #50
      010026A5H   LINE      CODE     ---       #51
      010026A8H   LINE      CODE     ---       #52
      010026A9H   LINE      CODE     ---       #53
      010026AAH   LINE      CODE     ---       #54
      010026ABH   LINE      CODE     ---       #55
      010026ACH   LINE      CODE     ---       #56
      010026ADH   LINE      CODE     ---       #57
      010026AEH   LINE      CODE     ---       #58
      010026B3H   LINE      CODE     ---       #60
      010026BAH   LINE      CODE     ---       #61
      010026C8H   LINE      CODE     ---       #63
      010026CBH   LINE      CODE     ---       #64
      010026CCH   LINE      CODE     ---       #65
      010026CEH   LINE      CODE     ---       #67
      010026DCH   LINE      CODE     ---       #68
      010026DCH   LINE      CODE     ---       #70
      010026E6H   LINE      CODE     ---       #71
LX51 LINKER/LOCATER V4.66.97.0                                                        11/11/2024  12:36:56  PAGE 95


      010026ECH   LINE      CODE     ---       #72
      010026F2H   LINE      CODE     ---       #73
      010026FAH   LINE      CODE     ---       #74
      010026FBH   LINE      CODE     ---       #77
      010026FBH   LINE      CODE     ---       #78
      01002700H   LINE      CODE     ---       #79
      01002706H   LINE      CODE     ---       #80
      01002710H   LINE      CODE     ---       #81
      0100271FH   LINE      CODE     ---       #82
      0100273AH   LINE      CODE     ---       #83
      0100273CH   LINE      CODE     ---       #84
      01002741H   LINE      CODE     ---       #85
      01002741H   LINE      CODE     ---       #86
      ---         BLOCKEND  ---      ---       LVL=0

      010036E6H   BLOCK     CODE     ---       LVL=0
      010036E6H   BLOCK     CODE     NEAR LAB  LVL=1
      00000006H   SYMBOL    DATA     INT       i
      ---         BLOCKEND  ---      ---       LVL=1
      010036E6H   LINE      CODE     ---       #89
      010036E6H   LINE      CODE     ---       #90
      010036E6H   LINE      CODE     ---       #93
      010036ECH   LINE      CODE     ---       #94
      01003701H   LINE      CODE     ---       #95
      01003721H   LINE      CODE     ---       #96
      ---         BLOCKEND  ---      ---       LVL=0

      0100216BH   BLOCK     CODE     ---       LVL=0
      00000020H.7 SYMBOL    BIT      BIT       IsForceSave
      0100216BH   BLOCK     CODE     NEAR LAB  LVL=1
      0000002CH   SYMBOL    DATA     INT       i
      0000002EH   SYMBOL    DATA     ---       ROMData
      00000035H   SYMBOL    DATA     ---       SavedData
      ---         BLOCKEND  ---      ---       LVL=1
      0100216BH   LINE      CODE     ---       #99
      0100216BH   LINE      CODE     ---       #100
      0100216BH   LINE      CODE     ---       #104
      0100216DH   LINE      CODE     ---       #105
      0100216EH   LINE      CODE     ---       #106
      01002171H   LINE      CODE     ---       #108
      01002179H   LINE      CODE     ---       #109
      01002179H   LINE      CODE     ---       #110
      0100217DH   LINE      CODE     ---       #111
      01002183H   LINE      CODE     ---       #112
      01002184H   LINE      CODE     ---       #113
      01002187H   LINE      CODE     ---       #114
      01002188H   LINE      CODE     ---       #115
      01002189H   LINE      CODE     ---       #116
      0100218AH   LINE      CODE     ---       #117
      0100218BH   LINE      CODE     ---       #118
      0100218CH   LINE      CODE     ---       #119
      0100218DH   LINE      CODE     ---       #120
      01002192H   LINE      CODE     ---       #122
      01002199H   LINE      CODE     ---       #123
      010021A7H   LINE      CODE     ---       #125
      010021B1H   LINE      CODE     ---       #126
      010021B7H   LINE      CODE     ---       #127
      010021BDH   LINE      CODE     ---       #128
      010021C6H   LINE      CODE     ---       #129
      010021D2H   LINE      CODE     ---       #131
      010021DAH   LINE      CODE     ---       #132
      010021DAH   LINE      CODE     ---       #133
      010021DAH   LINE      CODE     ---       #134
      010021DAH   LINE      CODE     ---       #135
      010021DCH   LINE      CODE     ---       #137
LX51 LINKER/LOCATER V4.66.97.0                                                        11/11/2024  12:36:56  PAGE 96


      010021DCH   LINE      CODE     ---       #139
      010021DFH   LINE      CODE     ---       #140
      010021E1H   LINE      CODE     ---       #141
      010021E2H   LINE      CODE     ---       #142
      010021E5H   LINE      CODE     ---       #143
      010021E6H   LINE      CODE     ---       #144
      010021E7H   LINE      CODE     ---       #145
      010021E8H   LINE      CODE     ---       #146
      010021E9H   LINE      CODE     ---       #147
      010021EAH   LINE      CODE     ---       #148
      010021EBH   LINE      CODE     ---       #149
      010021F6H   LINE      CODE     ---       #151
      010021FBH   LINE      CODE     ---       #152
      010021FBH   LINE      CODE     ---       #153
      01002204H   LINE      CODE     ---       #155
      01002207H   LINE      CODE     ---       #156
      0100220DH   LINE      CODE     ---       #157
      0100220EH   LINE      CODE     ---       #158
      01002211H   LINE      CODE     ---       #159
      01002212H   LINE      CODE     ---       #160
      01002213H   LINE      CODE     ---       #161
      01002214H   LINE      CODE     ---       #162
      01002215H   LINE      CODE     ---       #163
      01002216H   LINE      CODE     ---       #164
      01002217H   LINE      CODE     ---       #165
      01002222H   LINE      CODE     ---       #166
      01002230H   LINE      CODE     ---       #168
      01002233H   LINE      CODE     ---       #169
      01002234H   LINE      CODE     ---       #170
      01002236H   LINE      CODE     ---       #171
      ---         BLOCKEND  ---      ---       LVL=0

      ---         MODULE    ---      ---       SELFTEST
      02000053H   PUBLIC    XDATA    CHAR      InputDetectTIM
      0200004FH   PUBLIC    XDATA    FLOAT     VBattBeforeTurbo
      010025DCH   PUBLIC    CODE     ---       OutputFaultDetect
      01003395H   PUBLIC    CODE     ---       InputFaultDetect
      01002F12H   PUBLIC    CODE     ---       DisplayErrorIDHandler
      010035AAH   PUBLIC    CODE     ---       DisplayErrorTIMHandler
      0200004DH   SYMBOL    XDATA    INT       ErrDisplayIndex
      02000054H   SYMBOL    XDATA    CHAR      ShortDetectTIM

      0100393CH   BLOCK     CODE     ---       LVL=0
      ---         BLOCKEND  ---      ---       LVL=0

      010035AAH   BLOCK     CODE     ---       LVL=0
      010035AAH   LINE      CODE     ---       #14
      010035AAH   LINE      CODE     ---       #15
      010035AAH   LINE      CODE     ---       #17
      010035B8H   LINE      CODE     ---       #19
      010035B8H   LINE      CODE     ---       #20
      010035C6H   LINE      CODE     ---       #21
      010035EBH   LINE      CODE     ---       #22
      010035EBH   LINE      CODE     ---       #23
      ---         BLOCKEND  ---      ---       LVL=0

      01002F12H   BLOCK     CODE     ---       LVL=0
      01002F12H   BLOCK     CODE     NEAR LAB  LVL=1
      00000006H   SYMBOL    DATA     INT       buf
      ---         BLOCKEND  ---      ---       LVL=1
      01002F12H   LINE      CODE     ---       #26
      01002F12H   LINE      CODE     ---       #27
      01002F12H   LINE      CODE     ---       #30
      01002F32H   LINE      CODE     ---       #31
      01002F32H   LINE      CODE     ---       #32
LX51 LINKER/LOCATER V4.66.97.0                                                        11/11/2024  12:36:56  PAGE 97


      01002F36H   LINE      CODE     ---       #33
      01002F3AH   LINE      CODE     ---       #34
      01002F3CH   LINE      CODE     ---       #35
      01002F3CH   LINE      CODE     ---       #36
      01002F3EH   LINE      CODE     ---       #37
      01002F67H   LINE      CODE     ---       #38
      01002F67H   LINE      CODE     ---       #39
      01002F76H   LINE      CODE     ---       #40
      01002F85H   LINE      CODE     ---       #41
      01002F85H   LINE      CODE     ---       #42
      01002F87H   LINE      CODE     ---       #43
      01002F8AH   LINE      CODE     ---       #44
      ---         BLOCKEND  ---      ---       LVL=0

      01003395H   BLOCK     CODE     ---       LVL=0
      01003395H   LINE      CODE     ---       #47
      01003395H   LINE      CODE     ---       #48
      01003395H   LINE      CODE     ---       #49
      010033A2H   LINE      CODE     ---       #50
      010033B6H   LINE      CODE     ---       #51
      010033B6H   LINE      CODE     ---       #52
      010033B9H   LINE      CODE     ---       #53
      010033E1H   LINE      CODE     ---       #54
      010033E3H   LINE      CODE     ---       #55
      010033EFH   LINE      CODE     ---       #56
      010033EFH   LINE      CODE     ---       #57
      ---         BLOCKEND  ---      ---       LVL=0

      010025DCH   BLOCK     CODE     ---       LVL=0
      010025DCH   BLOCK     CODE     NEAR LAB  LVL=1
      00000023H   SYMBOL    DATA     CHAR      buf
      ---         BLOCKEND  ---      ---       LVL=1
      010025DCH   LINE      CODE     ---       #60
      010025DCH   LINE      CODE     ---       #61
      010025DCH   LINE      CODE     ---       #63
      010025E6H   LINE      CODE     ---       #64
      010025FAH   LINE      CODE     ---       #65
      010025FAH   LINE      CODE     ---       #66
      01002602H   LINE      CODE     ---       #67
      0100260CH   LINE      CODE     ---       #68
      0100260CH   LINE      CODE     ---       #69
      0100261CH   LINE      CODE     ---       #70
      01002623H   LINE      CODE     ---       #71
      01002625H   LINE      CODE     ---       #72
      01002632H   LINE      CODE     ---       #73
      01002632H   LINE      CODE     ---       #74
      01002641H   LINE      CODE     ---       #75
      01002648H   LINE      CODE     ---       #76
      0100264AH   LINE      CODE     ---       #77
      01002666H   LINE      CODE     ---       #79
      0100266DH   LINE      CODE     ---       #80
      01002670H   LINE      CODE     ---       #82
      01002675H   LINE      CODE     ---       #83
      01002684H   LINE      CODE     ---       #84
      01002690H   LINE      CODE     ---       #85
      01002690H   LINE      CODE     ---       #86
      ---         BLOCKEND  ---      ---       LVL=0

      ---         MODULE    ---      ---       ?C?FPADD
      01000055H   PUBLIC    CODE     ---       ?C?FPADD
      01000051H   PUBLIC    CODE     ---       ?C?FPSUB

      ---         MODULE    ---      ---       ?C?FPMUL
      01000146H   PUBLIC    CODE     ---       ?C?FPMUL

LX51 LINKER/LOCATER V4.66.97.0                                                        11/11/2024  12:36:56  PAGE 98


      ---         MODULE    ---      ---       ?C?FPDIV
      0100024FH   PUBLIC    CODE     ---       ?C?FPDIV

      ---         MODULE    ---      ---       ?C?FPCMP
      010002EEH   PUBLIC    CODE     ---       ?C?FPCMP
      010002ECH   PUBLIC    CODE     ---       ?C?FPCMP3

      ---         MODULE    ---      ---       ?C?FCAST
      0100036FH   PUBLIC    CODE     ---       ?C?FCASTC
      0100036AH   PUBLIC    CODE     ---       ?C?FCASTI
      01000365H   PUBLIC    CODE     ---       ?C?FCASTL

      ---         MODULE    ---      ---       ?C?CASTF
      010003A3H   PUBLIC    CODE     ---       ?C?CASTF

      ---         MODULE    ---      ---       ?C?FPGETOPN
      010003DAH   PUBLIC    CODE     ---       ?C?FPGETOPN2
      0100040FH   PUBLIC    CODE     ---       ?C?FPNANRESULT
      01000419H   PUBLIC    CODE     ---       ?C?FPOVERFLOW
      010003F1H   PUBLIC    CODE     ---       ?C?FPRESULT
      01000405H   PUBLIC    CODE     ---       ?C?FPRESULT2
      01000416H   PUBLIC    CODE     ---       ?C?FPUNDERFLOW

      ---         MODULE    ---      ---       ?C_INIT
      01002B7CH   PUBLIC    CODE     ---       ?C_START

      ---         MODULE    ---      ---       ?C?COPY
      010004F4H   PUBLIC    CODE     ---       ?C?COPY

      ---         MODULE    ---      ---       ?C?SCDIV
      0100051AH   PUBLIC    CODE     ---       ?C?SCDIV

      ---         MODULE    ---      ---       ?C?CLDPTR
      0100053CH   PUBLIC    CODE     ---       ?C?CLDPTR

      ---         MODULE    ---      ---       ?C?CLDOPTR
      01000555H   PUBLIC    CODE     ---       ?C?CLDOPTR

      ---         MODULE    ---      ---       ?C?CSTPTR
      01000582H   PUBLIC    CODE     ---       ?C?CSTPTR

      ---         MODULE    ---      ---       ?C?IMUL
      01000594H   PUBLIC    CODE     ---       ?C?IMUL

      ---         MODULE    ---      ---       ?C?SIDIV
      010005A6H   PUBLIC    CODE     ---       ?C?SIDIV

      ---         MODULE    ---      ---       ?C?ILDOPTR
      010005DCH   PUBLIC    CODE     ---       ?C?ILDOPTR

      ---         MODULE    ---      ---       ?C?ISTPTR
      01000614H   PUBLIC    CODE     ---       ?C?ISTPTR

      ---         MODULE    ---      ---       ?C?LMUL
      01000633H   PUBLIC    CODE     ---       ?C?LMUL

      ---         MODULE    ---      ---       ?C?ULDIV
      010006BEH   PUBLIC    CODE     ---       ?C?ULDIV

      ---         MODULE    ---      ---       ?C?SLDIV
      01003566H   PUBLIC    CODE     ---       ?C?SLDIV

      ---         MODULE    ---      ---       ?C?LNEG
      01000750H   PUBLIC    CODE     ---       ?C?LNEG

LX51 LINKER/LOCATER V4.66.97.0                                                        11/11/2024  12:36:56  PAGE 99


      ---         MODULE    ---      ---       ?C?SLCMP
      0100075EH   PUBLIC    CODE     ---       ?C?SLCMP

      ---         MODULE    ---      ---       ?C?ULCMP
      01000774H   PUBLIC    CODE     ---       ?C?ULCMP

      ---         MODULE    ---      ---       ?C?ULSHR
      01000785H   PUBLIC    CODE     ---       ?C?ULSHR

      ---         MODULE    ---      ---       ?C?LLDCODE
      01000798H   PUBLIC    CODE     ---       ?C?LLDCODE

      ---         MODULE    ---      ---       ?C?LSTXDATA
      010007A8H   PUBLIC    CODE     ---       ?C?LSTXDATA

      ---         MODULE    ---      ---       ?C?LSTKXDATA
      010007B4H   PUBLIC    CODE     ---       ?C?LSTKXDATA

      ---         MODULE    ---      ---       ?C?OFFXADD
      010007E5H   PUBLIC    CODE     ---       ?C?OFFXADD

      ---         MODULE    ---      ---       ?C?UIDIV
      010007F1H   PUBLIC    CODE     ---       ?C?UIDIV

Program Size: data=97.0 xdata=98 const=646 code=15310
LX51 RUN COMPLETE.  0 WARNING(S),  0 ERROR(S)
